   1              		.file	"gmt024_spi.c"
   2              		.option nopic
   3              		.text
   4              	.Ltext0:
   5              		.cfi_sections	.debug_frame
   6              		.section	.text.delay_us,"ax",@progbits
   7              		.align	1
   8              		.globl	delay_us
  10              	delay_us:
  11              	.LFB1:
  12              		.file 1 "../src/gmt024_spi.c"
   1:../src/gmt024_spi.c **** /********************金逸晨**************************
   2:../src/gmt024_spi.c **** ******************GMT024-01 模块 2.4寸   7PIN SPI TFT FOR AT89S52/STC12*************
   3:../src/gmt024_spi.c **** *****AT89S52驱动**************************
   4:../src/gmt024_spi.c **** *********ST7789 控制器,
   5:../src/gmt024_spi.c **** ***** GPIO_OUT0  SCK   ,  GPIO_OUT1  SDA   ,  GPIO_OUT2   RES
   6:../src/gmt024_spi.c **** 	  GPIO_OUT3   DC   ,  GPIO_OUT4  CS    ,  GPIO_OUT5  BLK   ,  
   7:../src/gmt024_spi.c **** ***** BY:zhangyuhe
   8:../src/gmt024_spi.c **** *********ST7789V2
   9:../src/gmt024_spi.c **** 
  10:../src/gmt024_spi.c **** 从左往右，从上往下    240*320  18bit 6 6 6 RGB 模式  高位模式
  11:../src/gmt024_spi.c **** 
  12:../src/gmt024_spi.c **** ********************************************************/
  13:../src/gmt024_spi.c **** #include "gmt024_spi.h"
  14:../src/gmt024_spi.c **** #include "gpio.h"
  15:../src/gmt024_spi.c **** #include "osp.h"
  16:../src/gmt024_spi.c **** //取模方式：逐行式、文字左旋90°
  17:../src/gmt024_spi.c **** const unsigned char  chines_word[   ][32]=   //汉字码
  18:../src/gmt024_spi.c **** {
  19:../src/gmt024_spi.c **** //  便(0) 携(1) 式(2) 多(3) 功(4) 能(5) 仪(6) 器(7) 示(8) 波(9) 器(10) 逻(11) 辑(12) 分(13) 析(14) 
  20:../src/gmt024_spi.c **** //  信(16) 号(17) 发(18) 生(19) 器(20) 按(21) 键(22) ：(23) 零(24) 一(25) 二(26) 三(27) 四(28) 五(2
  21:../src/gmt024_spi.c **** //  八(32) 九(33) 十(34)
  22:../src/gmt024_spi.c **** //  屏(35) 幕(36) 上(37) 位(38) 机(39) 振(40) 幅(41) 频(42) 率(43) 触(44) 发(45) 高(46) 低(47) 电(4
  23:../src/gmt024_spi.c **** //  升(51) 下(52) 降(53) 沿(54) 通(55) 道(56) 按(57) 下(58) 等(59) 待(60) 正(61) 弦(62) 三(63) 角(6
  24:../src/gmt024_spi.c **** //  齿(67) 波(68) 步(69) 进(70) 点(71) 百(72) 分(73) 之(74) 模(75) 式(76) 切(77) 换(78) 形(79)
  25:../src/gmt024_spi.c **** //  直(80) 接(81) 当(82) 前(83)
  26:../src/gmt024_spi.c **** 
  27:../src/gmt024_spi.c **** 0x00,0x00,0x02,0x80,0xFA,0x83,0x4A,0x82,0x4A,0x42,0x4A,0x42,0xFE,0x2F,0x4A,0x12,
  28:../src/gmt024_spi.c **** 0x4A,0x2A,0x4A,0x46,0xFA,0x83,0x00,0x80,0x07,0x00,0xF8,0xFF,0x60,0x00,0x80,0x00,/*"便",0*/
  29:../src/gmt024_spi.c **** 
  30:../src/gmt024_spi.c **** 0x00,0x00,0x04,0x71,0x54,0x95,0x54,0x5D,0x56,0x15,0xFD,0x05,0x54,0x05,0x57,0x1D,
  31:../src/gmt024_spi.c **** 0xFC,0x27,0x08,0x44,0x90,0x80,0x10,0x01,0xFF,0x7F,0x10,0x82,0x10,0x44,0x10,0x04,/*"携",1*/
  32:../src/gmt024_spi.c **** 
  33:../src/gmt024_spi.c **** 0x00,0x00,0x10,0xF8,0x16,0x40,0x11,0x20,0x10,0x10,0x10,0x0C,0xFF,0x03,0x10,0x00,
  34:../src/gmt024_spi.c **** 0x10,0x10,0x90,0x10,0x90,0x10,0x90,0x3F,0x90,0x20,0x90,0x60,0x10,0x20,0x10,0x00,/*"式",2*/
  35:../src/gmt024_spi.c **** 
  36:../src/gmt024_spi.c **** 0x00,0x00,0x00,0x00,0x00,0x00,0x00,0x03,0x04,0x05,0x0C,0x09,0x54,0x11,0xA4,0x21,
  37:../src/gmt024_spi.c **** 0x44,0x31,0x47,0x4A,0xA4,0x44,0x98,0x44,0x10,0x89,0x10,0x89,0x00,0x81,0x00,0x00,/*"多",3*/
  38:../src/gmt024_spi.c **** 
  39:../src/gmt024_spi.c **** 0x00,0x00,0x00,0x00,0xF0,0x3F,0x10,0x40,0x10,0x80,0x10,0x40,0xFF,0x01,0x10,0x0E,
  40:../src/gmt024_spi.c **** 0x10,0x30,0x08,0x48,0x08,0x88,0x08,0x08,0xF8,0x1F,0x08,0x10,0x08,0x30,0x08,0x10,/*"功",4*/
  41:../src/gmt024_spi.c **** 
  42:../src/gmt024_spi.c **** 0x00,0x00,0xE0,0xE0,0x82,0x82,0x84,0x84,0x88,0x88,0x88,0x88,0x7F,0x7E,0x00,0x00,
  43:../src/gmt024_spi.c **** 0x18,0x00,0xCC,0x7F,0x4A,0x92,0x48,0x52,0x49,0x12,0x4A,0x12,0xCC,0xFF,0x08,0x00,/*"能",5*/
  44:../src/gmt024_spi.c **** 
  45:../src/gmt024_spi.c **** 0x00,0x00,0x00,0x80,0x00,0x80,0x1E,0x40,0xE0,0x20,0x00,0x13,0x06,0x0C,0x01,0x13,
  46:../src/gmt024_spi.c **** 0xE0,0x20,0x1C,0x40,0x00,0x80,0x07,0x00,0xF8,0xFF,0x60,0x00,0x80,0x00,0x00,0x01,/*"仪",6*/
  47:../src/gmt024_spi.c **** 
  48:../src/gmt024_spi.c **** 0x00,0x00,0x80,0x08,0x9E,0xF8,0x92,0x94,0xD2,0x94,0xB2,0x92,0x9E,0xF2,0x80,0x01,
  49:../src/gmt024_spi.c **** 0xE0,0x00,0x9E,0xF1,0x92,0x92,0x92,0x92,0x92,0x94,0x9E,0xF4,0x80,0x08,0x80,0x08,/*"器",7*/
  50:../src/gmt024_spi.c **** 
  51:../src/gmt024_spi.c **** 0x00,0x00,0x40,0x30,0x40,0x08,0x42,0x04,0x42,0x02,0x42,0x00,0x42,0x00,0x42,0x00,
  52:../src/gmt024_spi.c **** 0xC2,0x7F,0x42,0x80,0x42,0x40,0x42,0x00,0x42,0x06,0x42,0x08,0x40,0x10,0x40,0x20,/*"示",8*/
  53:../src/gmt024_spi.c **** 
  54:../src/gmt024_spi.c **** 0x00,0x00,0x18,0x80,0xA8,0x81,0x88,0x46,0x88,0x28,0xFF,0x10,0x88,0x2C,0x88,0x43,
  55:../src/gmt024_spi.c **** 0x88,0x80,0xF8,0x1F,0x00,0x60,0xC0,0x80,0x0C,0x03,0x02,0x7C,0x60,0x04,0x10,0x04,/*"波",9*/
  56:../src/gmt024_spi.c **** 
  57:../src/gmt024_spi.c **** 0x00,0x00,0x80,0x08,0x9E,0xF8,0x92,0x94,0xD2,0x94,0xB2,0x92,0x9E,0xF2,0x80,0x01,
  58:../src/gmt024_spi.c **** 0xE0,0x00,0x9E,0xF1,0x92,0x92,0x92,0x92,0x92,0x94,0x9E,0xF4,0x80,0x08,0x80,0x08,/*"器",10*/
  59:../src/gmt024_spi.c **** 
  60:../src/gmt024_spi.c **** 0x00,0x00,0x00,0x40,0x1E,0x40,0xD2,0x40,0x52,0x41,0x5E,0x42,0x52,0x44,0x7E,0x4A,
  61:../src/gmt024_spi.c **** 0x52,0x49,0x92,0x50,0x1E,0x51,0x00,0x50,0x00,0x20,0xCC,0x1F,0x42,0x20,0x40,0x40,/*"逻",11*/
  62:../src/gmt024_spi.c **** 
  63:../src/gmt024_spi.c **** 0x00,0x00,0x40,0x10,0x40,0x10,0xDE,0xFF,0x52,0x15,0x52,0x15,0x52,0x25,0x52,0x25,
  64:../src/gmt024_spi.c **** 0xDE,0x3F,0x40,0x20,0xC8,0x24,0x88,0x04,0xE8,0xFF,0x8F,0x08,0xB8,0x18,0xC8,0x08,/*"辑",12*/
  65:../src/gmt024_spi.c **** 
  66:../src/gmt024_spi.c **** 0x00,0x00,0x80,0x00,0x40,0x00,0x20,0x00,0x10,0x00,0x8C,0x3F,0x83,0x40,0x80,0x80,
  67:../src/gmt024_spi.c **** 0x80,0x40,0x80,0x00,0x86,0x07,0x88,0x18,0x90,0x20,0x20,0x40,0x40,0x80,0x80,0x00,/*"分",13*/
  68:../src/gmt024_spi.c **** 
  69:../src/gmt024_spi.c **** 0x00,0x00,0x40,0x00,0x42,0x00,0x43,0x00,0xC2,0xFF,0x44,0x00,0x44,0x00,0x44,0x00,
  70:../src/gmt024_spi.c **** 0xFC,0x1F,0x00,0x60,0x10,0x81,0x90,0x00,0xFF,0xFF,0xD0,0x00,0x10,0x03,0x10,0x04,/*"析",14*/
  71:../src/gmt024_spi.c **** 
  72:../src/gmt024_spi.c **** 0x00,0x00,0x00,0x80,0x00,0x80,0x1E,0x40,0xE0,0x20,0x00,0x13,0x06,0x0C,0x01,0x13,
  73:../src/gmt024_spi.c **** 0xE0,0x20,0x1C,0x40,0x00,0x80,0x07,0x00,0xF8,0xFF,0x60,0x00,0x80,0x00,0x00,0x01,/*"仪",15*/
  74:../src/gmt024_spi.c **** 
  75:../src/gmt024_spi.c **** 0x00,0x00,0x04,0x00,0x24,0xF9,0x24,0x49,0x24,0x49,0x26,0x49,0x25,0x49,0x24,0x49,
  76:../src/gmt024_spi.c **** 0x24,0xF9,0x04,0x00,0x00,0x00,0x07,0x00,0xF8,0xFF,0x60,0x00,0x80,0x00,0x00,0x01,/*"信",16*/
  77:../src/gmt024_spi.c **** 
  78:../src/gmt024_spi.c **** 0x00,0x00,0x80,0x00,0x80,0x00,0x80,0x00,0xBE,0x3C,0xA2,0x44,0xA2,0x84,0xA2,0x44,
  79:../src/gmt024_spi.c **** 0xA2,0x04,0xA2,0x04,0xA2,0x04,0xA2,0x05,0xBE,0x06,0x80,0x00,0x80,0x00,0x80,0x00,/*"号",17*/
  80:../src/gmt024_spi.c **** 
  81:../src/gmt024_spi.c **** 0x00,0x00,0x00,0x80,0x10,0x80,0x94,0x43,0x92,0x44,0x90,0x28,0x90,0x10,0x90,0x28,
  82:../src/gmt024_spi.c **** 0x97,0x46,0xB8,0x41,0xD0,0x80,0x10,0x83,0x16,0x8C,0x18,0x10,0x00,0x20,0x00,0x00,/*"发",18*/
  83:../src/gmt024_spi.c **** 
  84:../src/gmt024_spi.c **** 0x00,0x00,0x00,0x40,0x10,0x40,0x10,0x42,0x10,0x42,0x10,0x42,0x10,0x42,0x10,0x42,
  85:../src/gmt024_spi.c **** 0xFF,0x7F,0x10,0x42,0x10,0x42,0x10,0x42,0x1E,0x42,0x30,0x42,0x40,0x40,0x80,0x40,/*"生",19*/
  86:../src/gmt024_spi.c **** 
  87:../src/gmt024_spi.c **** 0x00,0x00,0x80,0x08,0x9E,0xF8,0x92,0x94,0xD2,0x94,0xB2,0x92,0x9E,0xF2,0x80,0x01,
  88:../src/gmt024_spi.c **** 0xE0,0x00,0x9E,0xF1,0x92,0x92,0x92,0x92,0x92,0x94,0x9E,0xF4,0x80,0x08,0x80,0x08,/*"器",20*/
  89:../src/gmt024_spi.c **** 
  90:../src/gmt024_spi.c **** 0x00,0x00,0x98,0x00,0xA8,0x80,0x88,0x47,0x88,0x28,0x8E,0x10,0xE9,0x28,0x88,0x4B,
  91:../src/gmt024_spi.c **** 0x88,0x84,0x98,0x80,0x20,0x00,0x90,0x00,0xFF,0x7F,0x10,0x81,0x10,0x42,0x10,0x02,/*"按",21*/
  92:../src/gmt024_spi.c **** 
  93:../src/gmt024_spi.c **** 0x00,0x00,0x10,0x44,0x7C,0x45,0x54,0x45,0xFF,0x5F,0x54,0x45,0x54,0x45,0x10,0x44,
  94:../src/gmt024_spi.c **** 0x9C,0x27,0xE4,0x18,0x80,0x26,0x24,0x51,0x24,0x21,0xEF,0x7F,0x30,0x01,0x40,0x01,/*"键",22*/
  95:../src/gmt024_spi.c **** 
  96:../src/gmt024_spi.c **** 0x00,0x00,0x00,0x00,0x00,0x00,0x00,0x00,0x00,0x00,0x00,0x00,0x00,0x00,0x00,0x00,
  97:../src/gmt024_spi.c **** 0x00,0x00,0x00,0x00,0x00,0x00,0x00,0x00,0x00,0x36,0x00,0x36,0x00,0x00,0x00,0x00,/*"：",23*/
  98:../src/gmt024_spi.c **** 
  99:../src/gmt024_spi.c **** 0x00,0x00,0x0C,0x04,0x14,0x04,0x05,0x02,0x55,0x02,0x55,0x19,0x55,0xA9,0x85,0x48,
 100:../src/gmt024_spi.c **** 0x7F,0x4C,0x85,0x2A,0x55,0x29,0x55,0x09,0x55,0x0A,0x05,0x02,0x0C,0x04,0x10,0x04,/*"零",24*/
 101:../src/gmt024_spi.c **** 
 102:../src/gmt024_spi.c **** 0x00,0x00,0x80,0x00,0x80,0x00,0x80,0x00,0x80,0x00,0x80,0x00,0x80,0x00,0x80,0x00,
 103:../src/gmt024_spi.c **** 0x80,0x00,0x80,0x00,0x80,0x00,0x80,0x00,0x80,0x00,0x80,0x00,0x80,0x00,0x80,0x00,/*"一",25*/
 104:../src/gmt024_spi.c **** 
 105:../src/gmt024_spi.c **** 0x00,0x00,0x00,0x10,0x00,0x10,0x08,0x10,0x08,0x10,0x08,0x10,0x08,0x10,0x08,0x10,
 106:../src/gmt024_spi.c **** 0x08,0x10,0x08,0x10,0x08,0x10,0x08,0x10,0x08,0x10,0x08,0x10,0x00,0x10,0x00,0x10,/*"二",26*/
 107:../src/gmt024_spi.c **** 
 108:../src/gmt024_spi.c **** 0x00,0x00,0x00,0x20,0x04,0x20,0x84,0x20,0x84,0x20,0x84,0x20,0x84,0x20,0x84,0x20,
 109:../src/gmt024_spi.c **** 0x84,0x20,0x84,0x20,0x84,0x20,0x84,0x20,0x84,0x20,0x84,0x20,0x04,0x20,0x00,0x20,/*"三",27*/
 110:../src/gmt024_spi.c **** 
 111:../src/gmt024_spi.c **** 0x00,0x00,0x00,0x00,0xFC,0x7F,0x04,0x22,0x04,0x22,0x04,0x22,0xFC,0x21,0x04,0x20,
 112:../src/gmt024_spi.c **** 0x04,0x20,0x04,0x20,0xFC,0x20,0x04,0x23,0x04,0x24,0x04,0x28,0xFC,0x7F,0x00,0x00,/*"四",28*/
 113:../src/gmt024_spi.c **** 
 114:../src/gmt024_spi.c **** 0x00,0x00,0x00,0x40,0x02,0x40,0x02,0x40,0xC2,0x7F,0x42,0x40,0x42,0x40,0x42,0x40,
 115:../src/gmt024_spi.c **** 0x42,0x40,0x7E,0x40,0xC2,0x47,0x42,0x78,0x42,0x40,0x42,0x40,0x02,0x40,0x00,0x40,/*"五",29*/
 116:../src/gmt024_spi.c **** 
 117:../src/gmt024_spi.c **** 0x00,0x00,0x20,0x00,0x20,0x60,0x20,0x18,0x20,0x04,0x20,0x02,0x20,0x01,0x2C,0x00,
 118:../src/gmt024_spi.c **** 0x22,0x00,0x21,0x00,0x20,0x03,0x20,0x0C,0x20,0x10,0x20,0x20,0x20,0x40,0x20,0x00,/*"六",30*/
 119:../src/gmt024_spi.c **** 
 120:../src/gmt024_spi.c **** 0x00,0x00,0x00,0x00,0x20,0x78,0x20,0x40,0x20,0x40,0x20,0x40,0x40,0x40,0x40,0x40,
 121:../src/gmt024_spi.c **** 0x40,0x40,0xFF,0x3F,0x40,0x00,0x80,0x00,0x80,0x00,0x80,0x00,0x80,0x00,0x80,0x00,/*"七",31*/
 122:../src/gmt024_spi.c **** 
 123:../src/gmt024_spi.c **** 0x00,0x00,0x00,0x80,0x00,0x40,0x00,0x30,0x00,0x0C,0x80,0x03,0x7E,0x00,0x00,0x00,
 124:../src/gmt024_spi.c **** 0x00,0x00,0x00,0x00,0xFC,0x00,0x00,0x07,0x00,0x18,0x00,0x60,0x00,0x80,0x00,0x00,/*"八",32*/
 125:../src/gmt024_spi.c **** 
 126:../src/gmt024_spi.c **** 0x00,0x00,0x00,0x78,0x00,0x40,0x00,0x40,0x00,0x40,0xF0,0x3F,0x10,0x00,0x10,0x00,
 127:../src/gmt024_spi.c **** 0x10,0x00,0x10,0x00,0xFF,0x00,0x10,0x07,0x10,0x18,0x10,0x20,0x10,0x40,0x00,0x80,/*"九",33*/
 128:../src/gmt024_spi.c **** 
 129:../src/gmt024_spi.c **** 0x00,0x00,0x40,0x00,0x40,0x00,0x40,0x00,0x40,0x00,0x40,0x00,0x40,0x00,0x40,0x00,
 130:../src/gmt024_spi.c **** 0xFF,0xFF,0x40,0x00,0x40,0x00,0x40,0x00,0x40,0x00,0x40,0x00,0x40,0x00,0x40,0x00,/*"十",34*/
 131:../src/gmt024_spi.c **** 
 132:../src/gmt024_spi.c **** 0x00,0x00,0x00,0x00,0x00,0x04,0x9E,0x04,0xB2,0x04,0xD2,0xFF,0x92,0x04,0x92,0x04,
 133:../src/gmt024_spi.c **** 0x92,0x04,0xD2,0x1F,0xB2,0x64,0x92,0x84,0x12,0x04,0xFE,0x0F,0x00,0x30,0x00,0x40,/*"屏",35*/
 134:../src/gmt024_spi.c **** 
 135:../src/gmt024_spi.c **** 0x00,0x00,0x00,0x12,0x02,0x12,0x02,0x0A,0xFA,0x3E,0xAA,0x4A,0xAF,0x2A,0xAA,0x0A,
 136:../src/gmt024_spi.c **** 0xAA,0xFE,0xAA,0x0A,0xAF,0x0B,0xAA,0x0A,0xFA,0x7E,0x02,0x0A,0x02,0x12,0x00,0x12,/*"幕",36*/
 137:../src/gmt024_spi.c **** 
 138:../src/gmt024_spi.c **** 0x00,0x00,0x00,0x40,0x00,0x40,0x40,0x40,0x40,0x40,0x40,0x40,0x40,0x40,0x40,0x40,
 139:../src/gmt024_spi.c **** 0x40,0x40,0xFF,0x7F,0x00,0x40,0x00,0x40,0x00,0x40,0x00,0x40,0x00,0x40,0x00,0x40,/*"上",37*/
 140:../src/gmt024_spi.c **** 
 141:../src/gmt024_spi.c **** 0x00,0x00,0x00,0x40,0x10,0x40,0xD0,0x41,0x10,0x4E,0x10,0x70,0x16,0x40,0x11,0x40,
 142:../src/gmt024_spi.c **** 0x10,0x5E,0x90,0x41,0x10,0x40,0x07,0x40,0xF8,0xFF,0x60,0x00,0x80,0x00,0x00,0x01,/*"位",38*/
 143:../src/gmt024_spi.c **** 
 144:../src/gmt024_spi.c **** 0x00,0x00,0x00,0x78,0x00,0x40,0x00,0x40,0xFE,0x3F,0x02,0x00,0x02,0x00,0x02,0x00,
 145:../src/gmt024_spi.c **** 0xFE,0x1F,0x00,0x60,0x10,0x83,0x90,0x00,0xFF,0xFF,0xD0,0x00,0x10,0x03,0x10,0x04,/*"机",39*/
 146:../src/gmt024_spi.c **** 
 147:../src/gmt024_spi.c **** 0x00,0x00,0x00,0x80,0x82,0x42,0x92,0x24,0x92,0x18,0x92,0x47,0x92,0x80,0x92,0xFF,
 148:../src/gmt024_spi.c **** 0x82,0x00,0xFE,0x1F,0x90,0x60,0x10,0x81,0xFF,0x7F,0x10,0x82,0x10,0x44,0x10,0x04,/*"振",40*/
 149:../src/gmt024_spi.c **** 
 150:../src/gmt024_spi.c **** 0x00,0x00,0x02,0x00,0x02,0xFF,0x7A,0x49,0x4A,0x49,0x4A,0x7F,0x4A,0x49,0x7A,0x49,
 151:../src/gmt024_spi.c **** 0x02,0xFF,0x00,0x00,0xF8,0x0F,0x08,0x08,0xFF,0xFF,0x08,0x00,0xF8,0x0F,0x00,0x00,/*"幅",41*/
 152:../src/gmt024_spi.c **** 
 153:../src/gmt024_spi.c **** 0x00,0x00,0x02,0x80,0xF2,0x4F,0x12,0x20,0x12,0x10,0xD6,0x07,0x1A,0x18,0x12,0x20,
 154:../src/gmt024_spi.c **** 0xF2,0x4F,0x40,0x80,0x48,0x1E,0x48,0x20,0x7F,0x4F,0x40,0x40,0x7C,0x8E,0x40,0x90,/*"频",42*/
 155:../src/gmt024_spi.c **** 
 156:../src/gmt024_spi.c **** 0x00,0x00,0x00,0x08,0x14,0x09,0xA4,0x08,0x44,0x08,0x04,0x0B,0x94,0x09,0x24,0x09,
 157:../src/gmt024_spi.c **** 0x66,0xFD,0xAD,0x09,0x34,0x09,0x24,0x09,0x44,0x08,0xA4,0x08,0x14,0x09,0x00,0x08,/*"率",43*/
 158:../src/gmt024_spi.c **** 
 159:../src/gmt024_spi.c **** 0x00,0x00,0x00,0x60,0xF8,0x33,0x08,0x29,0x08,0x21,0xFF,0x3F,0x08,0x21,0x08,0x21,
 160:../src/gmt024_spi.c **** 0xF8,0x63,0x00,0x20,0xE0,0xFF,0x2C,0x89,0xF4,0x3F,0x27,0x09,0xEC,0x7F,0x10,0x80,/*"触",44*/
 161:../src/gmt024_spi.c **** 
 162:../src/gmt024_spi.c **** 0x00,0x00,0x00,0x80,0x10,0x80,0x94,0x43,0x92,0x44,0x90,0x28,0x90,0x10,0x90,0x28,
 163:../src/gmt024_spi.c **** 0x97,0x46,0xB8,0x41,0xD0,0x80,0x10,0x83,0x16,0x8C,0x18,0x10,0x00,0x20,0x00,0x00,/*"发",45*/
 164:../src/gmt024_spi.c **** 
 165:../src/gmt024_spi.c **** 0x00,0x00,0x04,0x00,0x04,0xFE,0x04,0x82,0x04,0x02,0xF4,0x7A,0x94,0x4A,0x94,0x4A,
 166:../src/gmt024_spi.c **** 0x96,0x4A,0x95,0x4A,0x94,0x4A,0xF4,0x7A,0x04,0x02,0x04,0x02,0x04,0xFE,0x04,0x00,/*"高",46*/
 167:../src/gmt024_spi.c **** 
 168:../src/gmt024_spi.c **** 0x00,0x00,0x80,0xF8,0x82,0x40,0x83,0x30,0x82,0x8E,0xFE,0x41,0x84,0x00,0x84,0x20,
 169:../src/gmt024_spi.c **** 0x84,0x40,0xFC,0xFF,0x00,0x00,0x07,0x00,0xF8,0xFF,0x60,0x00,0x80,0x00,0x00,0x01,/*"低",47*/
 170:../src/gmt024_spi.c **** 
 171:../src/gmt024_spi.c **** 0x00,0x00,0x00,0xF0,0x00,0x80,0xF8,0x9F,0x88,0x88,0x88,0x88,0x88,0x88,0x88,0x88,
 172:../src/gmt024_spi.c **** 0xFF,0x7F,0x88,0x08,0x88,0x08,0x88,0x08,0x88,0x08,0xF8,0x1F,0x00,0x00,0x00,0x00,/*"电",48*/
 173:../src/gmt024_spi.c **** 
 174:../src/gmt024_spi.c **** 0x00,0x00,0x00,0x01,0x02,0x01,0x02,0x01,0x32,0x01,0x42,0x01,0x02,0x01,0x02,0x01,
 175:../src/gmt024_spi.c **** 0xFE,0xFF,0x02,0x01,0x02,0x01,0x62,0x01,0x12,0x01,0x02,0x01,0x02,0x01,0x00,0x01,/*"平",49*/
 176:../src/gmt024_spi.c **** 
 177:../src/gmt024_spi.c **** 0x00,0x00,0x00,0x40,0x00,0x40,0x40,0x40,0x40,0x40,0x40,0x40,0x40,0x40,0x40,0x40,
 178:../src/gmt024_spi.c **** 0x40,0x40,0xFF,0x7F,0x00,0x40,0x00,0x40,0x00,0x40,0x00,0x40,0x00,0x40,0x00,0x40,/*"上",50*/
 179:../src/gmt024_spi.c **** 
 180:../src/gmt024_spi.c **** 0x00,0x00,0x80,0x00,0x80,0x00,0x80,0x00,0x80,0x00,0xFF,0xFF,0x80,0x00,0x82,0x00,
 181:../src/gmt024_spi.c **** 0x83,0x00,0x82,0x00,0xFE,0x07,0x84,0x18,0x84,0x20,0x84,0x40,0x80,0x80,0x80,0x00,/*"升",51*/
 182:../src/gmt024_spi.c **** 
 183:../src/gmt024_spi.c **** 0x00,0x00,0x02,0x00,0x02,0x00,0x02,0x06,0x02,0x01,0x82,0x00,0x42,0x00,0x02,0x00,
 184:../src/gmt024_spi.c **** 0x02,0x00,0xFE,0xFF,0x02,0x00,0x02,0x00,0x02,0x00,0x02,0x00,0x02,0x00,0x02,0x00,/*"下",52*/
 185:../src/gmt024_spi.c **** 
 186:../src/gmt024_spi.c **** 0x00,0x00,0x80,0x10,0x84,0x12,0x4C,0x12,0x54,0x12,0xA4,0xFF,0x24,0x12,0x57,0x12,
 187:../src/gmt024_spi.c **** 0x48,0x12,0x90,0x18,0x86,0x07,0xDA,0x08,0x22,0x10,0x02,0x08,0xFE,0xFF,0x00,0x00,/*"降",53*/
 188:../src/gmt024_spi.c **** 
 189:../src/gmt024_spi.c **** 0x00,0x00,0x40,0x00,0x40,0x00,0x40,0xFE,0x3E,0x42,0x02,0x42,0x02,0x42,0x02,0x42,
 190:../src/gmt024_spi.c **** 0x3E,0x42,0x40,0xFE,0x80,0x00,0x00,0x00,0x8C,0x01,0x02,0x7E,0x60,0x04,0x10,0x04,/*"沿",54*/
 191:../src/gmt024_spi.c **** 
 192:../src/gmt024_spi.c **** 0x00,0x00,0x00,0x80,0xE0,0xBF,0x22,0xC9,0x26,0xA9,0x2A,0x89,0xF2,0xBF,0x2A,0x89,
 193:../src/gmt024_spi.c **** 0x2A,0x89,0x22,0x89,0xE2,0xFF,0x00,0x80,0x00,0x40,0xCC,0x3F,0x42,0x40,0x40,0x80,/*"通",55*/
 194:../src/gmt024_spi.c **** 
 195:../src/gmt024_spi.c **** 0x00,0x00,0x00,0x40,0x08,0x40,0xE9,0x5F,0xAA,0x4A,0xA8,0x4A,0xA8,0x4A,0xB8,0x4A,
 196:../src/gmt024_spi.c **** 0xAA,0x4A,0xE9,0x5F,0x08,0x40,0x00,0x20,0xCC,0x1F,0x42,0x20,0x40,0x40,0x40,0x00,/*"道",56*/
 197:../src/gmt024_spi.c **** 
 198:../src/gmt024_spi.c **** 0x00,0x00,0x98,0x00,0xA8,0x80,0x88,0x47,0x88,0x28,0x8E,0x10,0xE9,0x28,0x88,0x4B,
 199:../src/gmt024_spi.c **** 0x88,0x84,0x98,0x80,0x20,0x00,0x90,0x00,0xFF,0x7F,0x10,0x81,0x10,0x42,0x10,0x02,/*"按",57*/
 200:../src/gmt024_spi.c **** 
 201:../src/gmt024_spi.c **** 0x00,0x00,0x02,0x00,0x02,0x00,0x02,0x06,0x02,0x01,0x82,0x00,0x42,0x00,0x02,0x00,
 202:../src/gmt024_spi.c **** 0x02,0x00,0xFE,0xFF,0x02,0x00,0x02,0x00,0x02,0x00,0x02,0x00,0x02,0x00,0x02,0x00,/*"下",58*/
 203:../src/gmt024_spi.c **** 
 204:../src/gmt024_spi.c **** 0x00,0x00,0x02,0x01,0x02,0x09,0x2A,0x09,0x26,0x09,0x22,0x7D,0x23,0x89,0x24,0x49,
 205:../src/gmt024_spi.c **** 0xFA,0x09,0x22,0x09,0x2A,0x69,0x26,0x19,0x22,0x09,0x23,0x09,0x04,0x09,0x08,0x01,/*"等",59*/
 206:../src/gmt024_spi.c **** 
 207:../src/gmt024_spi.c **** 0x00,0x00,0x40,0x02,0x48,0x02,0x48,0x02,0xC8,0x7F,0x48,0x82,0x7F,0x42,0x48,0x02,
 208:../src/gmt024_spi.c **** 0x48,0x32,0x48,0x0A,0x40,0x02,0x33,0x00,0xC4,0xFF,0x88,0x00,0x10,0x01,0x00,0x02,/*"待",60*/
 209:../src/gmt024_spi.c **** 
 210:../src/gmt024_spi.c **** 0x00,0x00,0x00,0x40,0x02,0x40,0x82,0x40,0x82,0x40,0x82,0x40,0x82,0x40,0x82,0x40,
 211:../src/gmt024_spi.c **** 0xFE,0x7F,0x02,0x40,0x02,0x40,0x02,0x40,0xC2,0x7F,0x02,0x40,0x02,0x40,0x00,0x40,/*"正",61*/
 212:../src/gmt024_spi.c **** 
 213:../src/gmt024_spi.c **** 0x00,0x00,0x08,0x00,0x08,0x70,0xC8,0x28,0x08,0x21,0x0E,0x23,0x39,0x25,0x48,0x29,
 214:../src/gmt024_spi.c **** 0x88,0x71,0x08,0x21,0x00,0x00,0x3E,0x3E,0x22,0x42,0x22,0x82,0xE2,0x43,0x02,0x00,/*"弦",62*/
 215:../src/gmt024_spi.c **** 
 216:../src/gmt024_spi.c **** 0x00,0x00,0x00,0x20,0x04,0x20,0x84,0x20,0x84,0x20,0x84,0x20,0x84,0x20,0x84,0x20,
 217:../src/gmt024_spi.c **** 0x84,0x20,0x84,0x20,0x84,0x20,0x84,0x20,0x84,0x20,0x84,0x20,0x04,0x20,0x00,0x20,/*"三",63*/
 218:../src/gmt024_spi.c **** 
 219:../src/gmt024_spi.c **** 0x00,0x00,0x00,0x00,0x00,0x00,0xE0,0x7F,0x20,0x89,0x2C,0x49,0x34,0x09,0x24,0x09,
 220:../src/gmt024_spi.c **** 0xE4,0x7F,0x24,0x09,0x24,0x09,0x27,0x09,0x24,0x09,0xE8,0x1F,0x10,0x60,0x20,0x80,/*"角",64*/
 221:../src/gmt024_spi.c **** 
 222:../src/gmt024_spi.c **** 0x00,0x00,0x08,0x00,0x08,0x00,0x08,0x00,0x88,0x3F,0x88,0x40,0x88,0x80,0x88,0x40,
 223:../src/gmt024_spi.c **** 0x8E,0x00,0x89,0x00,0xF8,0x07,0x08,0x18,0x08,0x20,0x08,0x40,0x08,0x80,0x08,0x00,/*"方",65*/
 224:../src/gmt024_spi.c **** 
 225:../src/gmt024_spi.c **** 0x00,0x00,0x80,0x00,0x9E,0xFC,0x92,0x44,0x92,0x44,0xF2,0x47,0x92,0x44,0x92,0xFC,
 226:../src/gmt024_spi.c **** 0x92,0x00,0xFE,0x1F,0x00,0x60,0x24,0x91,0x24,0x21,0xEF,0x7F,0x30,0x01,0x40,0x01,/*"锯",66*/
 227:../src/gmt024_spi.c **** 
 228:../src/gmt024_spi.c **** 0x00,0x00,0x40,0x00,0x40,0x00,0x44,0xFF,0x44,0x40,0x44,0x50,0x44,0x48,0x44,0x44,
 229:../src/gmt024_spi.c **** 0x7F,0x43,0x40,0x44,0x40,0x48,0x40,0x50,0x7C,0x40,0x40,0x7F,0x40,0x00,0x40,0x00,/*"齿",67*/
 230:../src/gmt024_spi.c **** 
 231:../src/gmt024_spi.c **** 0x00,0x00,0x18,0x80,0xA8,0x81,0x88,0x46,0x88,0x28,0xFF,0x10,0x88,0x2C,0x88,0x43,
 232:../src/gmt024_spi.c **** 0x88,0x80,0xF8,0x1F,0x00,0x60,0xC0,0x80,0x0C,0x03,0x02,0x7C,0x60,0x04,0x10,0x04,/*"波",68*/
 233:../src/gmt024_spi.c **** 
 234:../src/gmt024_spi.c **** 0x00,0x00,0x40,0x00,0x40,0x00,0x44,0x02,0x44,0x04,0x44,0x08,0x44,0x10,0x44,0x10,
 235:../src/gmt024_spi.c **** 0xFF,0x2F,0x40,0x20,0x40,0x40,0x40,0x40,0x7C,0x46,0x40,0x88,0x40,0x90,0x40,0x80,/*"步",69*/
 236:../src/gmt024_spi.c **** 
 237:../src/gmt024_spi.c **** 0x00,0x00,0x80,0x40,0x88,0x40,0x88,0x40,0xFF,0x5F,0x88,0x40,0x88,0x40,0xFF,0x43,
 238:../src/gmt024_spi.c **** 0x88,0x4C,0x88,0x50,0x80,0x40,0x00,0x20,0xCC,0x1F,0x42,0x20,0x40,0x40,0x40,0x00,/*"进",70*/
 239:../src/gmt024_spi.c **** 
 240:../src/gmt024_spi.c **** 0x00,0x00,0x00,0x00,0x08,0xE0,0x08,0x10,0xC8,0x07,0x48,0x04,0x48,0x64,0x48,0x14,
 241:../src/gmt024_spi.c **** 0x48,0x04,0x7F,0x64,0x40,0x14,0x40,0x04,0x40,0x04,0xC0,0x37,0x00,0x40,0x00,0x80,/*"点",71*/
 242:../src/gmt024_spi.c **** 
 243:../src/gmt024_spi.c **** 0x00,0x00,0x02,0x00,0x02,0x00,0xE2,0xFF,0x22,0x42,0x22,0x42,0x22,0x42,0x22,0x42,
 244:../src/gmt024_spi.c **** 0x26,0x42,0x2A,0x42,0x32,0x42,0x22,0x42,0x22,0x42,0xE2,0xFF,0x02,0x00,0x02,0x00,/*"百",72*/
 245:../src/gmt024_spi.c **** 
 246:../src/gmt024_spi.c **** 0x00,0x00,0x80,0x00,0x40,0x00,0x20,0x00,0x10,0x00,0x8C,0x3F,0x83,0x40,0x80,0x80,
 247:../src/gmt024_spi.c **** 0x80,0x40,0x80,0x00,0x86,0x07,0x88,0x18,0x90,0x20,0x20,0x40,0x40,0x80,0x80,0x00,/*"分",73*/
 248:../src/gmt024_spi.c **** 
 249:../src/gmt024_spi.c **** 0x00,0x00,0x00,0x40,0x00,0x40,0x10,0x40,0x30,0x40,0x50,0x40,0x90,0x40,0x10,0x41,
 250:../src/gmt024_spi.c **** 0x16,0x42,0x11,0x44,0x10,0x28,0x10,0x10,0x10,0x10,0x10,0x20,0x10,0x40,0x00,0x00,/*"之",74*/
 251:../src/gmt024_spi.c **** 
 252:../src/gmt024_spi.c **** 0x00,0x00,0x00,0x80,0x04,0x88,0xE4,0x4B,0xAF,0x2A,0xA4,0x1A,0xA4,0x0E,0xA4,0x1A,
 253:../src/gmt024_spi.c **** 0xAF,0x2A,0xE4,0x4B,0x14,0x89,0x90,0x00,0xFF,0xFF,0xD0,0x00,0x10,0x03,0x10,0x04,/*"模",75*/
 254:../src/gmt024_spi.c **** 
 255:../src/gmt024_spi.c **** 0x00,0x00,0x10,0xF8,0x16,0x40,0x11,0x20,0x10,0x10,0x10,0x0C,0xFF,0x03,0x10,0x00,
 256:../src/gmt024_spi.c **** 0x10,0x10,0x90,0x10,0x90,0x10,0x90,0x3F,0x90,0x20,0x90,0x60,0x10,0x20,0x10,0x00,/*"式",76*/
 257:../src/gmt024_spi.c **** 
 258:../src/gmt024_spi.c **** 0x00,0x00,0x00,0x00,0xFC,0x3F,0x04,0x40,0x04,0x80,0x04,0x40,0xFC,0x07,0x04,0x18,
 259:../src/gmt024_spi.c **** 0x04,0x20,0x20,0x42,0x20,0x84,0x20,0x08,0xFF,0x1F,0x40,0x00,0x40,0x00,0x40,0x00,/*"切",77*/
 260:../src/gmt024_spi.c **** 
 261:../src/gmt024_spi.c **** 0x00,0x00,0x00,0x84,0xE0,0x47,0x2C,0x24,0x34,0x1C,0xE4,0x07,0x24,0x1C,0x27,0x24,
 262:../src/gmt024_spi.c **** 0xE8,0x47,0x10,0x84,0x20,0x84,0x90,0x00,0xFF,0x7F,0x10,0x81,0x10,0x42,0x10,0x02,/*"换",78*/
 263:../src/gmt024_spi.c **** 
 264:../src/gmt024_spi.c **** 0x00,0x00,0x60,0x0C,0x86,0x10,0x08,0x21,0x10,0x42,0x20,0x84,0x80,0x80,0x82,0x00,
 265:../src/gmt024_spi.c **** 0x82,0x00,0xFE,0xFF,0x82,0x00,0x82,0x00,0xFE,0x0F,0x82,0x30,0x82,0x40,0x80,0x80,/*"形",79*/
 266:../src/gmt024_spi.c **** 
 267:../src/gmt024_spi.c **** 0x00,0x00,0x00,0x40,0x04,0x40,0x04,0x40,0xF4,0x7F,0x94,0x4A,0x94,0x4A,0x94,0x4A,
 268:../src/gmt024_spi.c **** 0x9F,0x4A,0x94,0x4A,0x94,0x4A,0x94,0x4A,0xF4,0x7F,0x04,0x40,0x04,0x40,0x00,0x40,/*"直",80*/
 269:../src/gmt024_spi.c **** 
 270:../src/gmt024_spi.c **** 0x00,0x00,0x40,0x02,0x44,0x82,0x54,0x4E,0x64,0x52,0x44,0x22,0xC6,0x23,0x65,0x56,
 271:../src/gmt024_spi.c **** 0x54,0x4A,0x44,0x82,0x50,0x82,0x10,0x01,0xFF,0x7F,0x10,0x82,0x10,0x44,0x10,0x04,/*"接",81*/
 272:../src/gmt024_spi.c **** 
 273:../src/gmt024_spi.c **** 0x00,0x00,0x00,0x00,0x00,0x00,0xC6,0xFF,0x48,0x44,0x50,0x44,0x40,0x44,0x40,0x44,
 274:../src/gmt024_spi.c **** 0x7F,0x44,0x40,0x44,0x40,0x44,0x58,0x44,0x44,0x44,0x42,0x44,0x40,0x40,0x00,0x00,/*"当",82*/
 275:../src/gmt024_spi.c **** 
 276:../src/gmt024_spi.c **** 0x00,0x00,0x08,0x00,0x08,0x00,0xE8,0x7F,0x0B,0x80,0x0C,0x40,0xC8,0x0F,0x08,0x00,
 277:../src/gmt024_spi.c **** 0x08,0x00,0xE8,0x7F,0x28,0x89,0x2E,0x49,0x29,0x09,0xE8,0xFF,0x08,0x00,0x08,0x00,/*"前",83*/
 278:../src/gmt024_spi.c **** };
 279:../src/gmt024_spi.c **** 
 280:../src/gmt024_spi.c **** void delay_us(unsigned int _us_time)
 281:../src/gmt024_spi.c **** {       
  13              		.loc 1 281 0
  14              		.cfi_startproc
  15              	.LVL0:
 282:../src/gmt024_spi.c ****   unsigned char x=0;
 283:../src/gmt024_spi.c ****   for(;_us_time>0;_us_time--)
 284:../src/gmt024_spi.c ****   {
 285:../src/gmt024_spi.c ****     x++;
 286:../src/gmt024_spi.c ****   }
 287:../src/gmt024_spi.c **** }
  16              		.loc 1 287 0
  17 0000 8280     		ret
  18              		.cfi_endproc
  19              	.LFE1:
  21              		.section	.text.Delay_ms,"ax",@progbits
  22              		.align	1
  23              		.globl	Delay_ms
  25              	Delay_ms:
  26              	.LFB13:
  27              		.cfi_startproc
  28 0000 8280     		ret
  29              		.cfi_endproc
  30              	.LFE13:
  32              		.section	.text.SPI_SendByte,"ax",@progbits
  33              		.align	1
  34              		.globl	SPI_SendByte
  36              	SPI_SendByte:
  37              	.LFB3:
 288:../src/gmt024_spi.c **** void Delay_ms(unsigned int _ms_time)
 289:../src/gmt024_spi.c ****   {
 290:../src/gmt024_spi.c ****     unsigned int i,j;
 291:../src/gmt024_spi.c ****     for(i=0;i<_ms_time;i++)
 292:../src/gmt024_spi.c ****     {
 293:../src/gmt024_spi.c ****     for(j=0;j<900;j++)
 294:../src/gmt024_spi.c ****       {;}
 295:../src/gmt024_spi.c ****     }
 296:../src/gmt024_spi.c ****   }
 297:../src/gmt024_spi.c **** /*************SPI配置函数*******************
 298:../src/gmt024_spi.c **** SCL空闲时低电平，第一个上升沿采样
 299:../src/gmt024_spi.c **** 模拟SPI
 300:../src/gmt024_spi.c **** ******************************************/
 301:../src/gmt024_spi.c **** 
 302:../src/gmt024_spi.c **** /**************************SPI模块发送函数************************************************
 303:../src/gmt024_spi.c **** 
 304:../src/gmt024_spi.c ****  *************************************************************************/
 305:../src/gmt024_spi.c **** void SPI_SendByte(unsigned  char byte)				//向液晶屏写一个8位数据
 306:../src/gmt024_spi.c **** {
  38              		.loc 1 306 0
  39              		.cfi_startproc
  40              	.LVL1:
  41              		.loc 1 306 0
  42 0000 2147     		li	a4,8
 307:../src/gmt024_spi.c ****   
 308:../src/gmt024_spi.c ****   unsigned char counter;
 309:../src/gmt024_spi.c ****  
 310:../src/gmt024_spi.c ****   for(counter=0;counter<8;counter++)
 311:../src/gmt024_spi.c ****   { 
 312:../src/gmt024_spi.c ****     SPI_SCK_0;		  
  43              		.loc 1 312 0
  44 0002 A167     		li	a5,32768
  45 0004 15A0     		j	.L7
  46              	.LVL2:
  47              	.L10:
 313:../src/gmt024_spi.c ****     if((byte&0x80)==0)
 314:../src/gmt024_spi.c ****     {
 315:../src/gmt024_spi.c ****       SPI_SDA_0;
  48              		.loc 1 315 0
  49 0006 9453     		lw	a3,32(a5)
  50 0008 93F6D60F 		andi	a3,a3,253
  51 000c 94D3     		sw	a3,32(a5)
  52              	.L6:
 316:../src/gmt024_spi.c ****     }
 317:../src/gmt024_spi.c ****     else SPI_SDA_1;
 318:../src/gmt024_spi.c ****     byte=byte<<1;	
 319:../src/gmt024_spi.c ****     SPI_SCK_1;		
  53              		.loc 1 319 0 discriminator 2
  54 000e 9453     		lw	a3,32(a5)
  55 0010 7D17     		addi	a4,a4,-1
  56              	.LVL3:
 318:../src/gmt024_spi.c ****     SPI_SCK_1;		
  57              		.loc 1 318 0 discriminator 2
  58 0012 0605     		slli	a0,a0,1
  59              	.LVL4:
  60              		.loc 1 319 0 discriminator 2
  61 0014 93E61600 		ori	a3,a3,1
  62 0018 94D3     		sw	a3,32(a5)
  63 001a 1377F70F 		andi	a4,a4,0xff
 318:../src/gmt024_spi.c ****     SPI_SCK_1;		
  64              		.loc 1 318 0 discriminator 2
  65 001e 1375F50F 		andi	a0,a0,0xff
  66              	.LVL5:
  67              		.loc 1 319 0 discriminator 2
  68 0022 93860702 		addi	a3,a5,32
 310:../src/gmt024_spi.c ****   { 
  69              		.loc 1 310 0 discriminator 2
  70 0026 19CF     		beqz	a4,.L9
  71              	.L7:
  72              	.LVL6:
 312:../src/gmt024_spi.c ****     if((byte&0x80)==0)
  73              		.loc 1 312 0
  74 0028 9053     		lw	a2,32(a5)
 313:../src/gmt024_spi.c ****     {
  75              		.loc 1 313 0
  76 002a 93168501 		slli	a3,a0,24
  77 002e E186     		srai	a3,a3,24
 312:../src/gmt024_spi.c ****     if((byte&0x80)==0)
  78              		.loc 1 312 0
  79 0030 1376E60F 		andi	a2,a2,254
  80 0034 90D3     		sw	a2,32(a5)
 313:../src/gmt024_spi.c ****     {
  81              		.loc 1 313 0
  82 0036 E3D806FC 		bgez	a3,.L10
 317:../src/gmt024_spi.c ****     byte=byte<<1;	
  83              		.loc 1 317 0
  84 003a 9453     		lw	a3,32(a5)
  85 003c 93E62600 		ori	a3,a3,2
  86 0040 94D3     		sw	a3,32(a5)
  87 0042 F1B7     		j	.L6
  88              	.LVL7:
  89              	.L9:
 320:../src/gmt024_spi.c ****   }		
 321:../src/gmt024_spi.c **** 	SPI_SCK_0;
  90              		.loc 1 321 0
  91 0044 9C53     		lw	a5,32(a5)
  92 0046 93F7E70F 		andi	a5,a5,254
  93 004a 9CC2     		sw	a5,0(a3)
 322:../src/gmt024_spi.c **** }
  94              		.loc 1 322 0
  95 004c 8280     		ret
  96              		.cfi_endproc
  97              	.LFE3:
  99              		.section	.text.TFT_SEND_CMD,"ax",@progbits
 100              		.align	1
 101              		.globl	TFT_SEND_CMD
 103              	TFT_SEND_CMD:
 104              	.LFB4:
 323:../src/gmt024_spi.c **** 
 324:../src/gmt024_spi.c **** void TFT_SEND_CMD(unsigned char o_command)
 325:../src/gmt024_spi.c ****   {
 105              		.loc 1 325 0
 106              		.cfi_startproc
 107              	.LVL8:
 108 0000 4111     		addi	sp,sp,-16
 109              		.cfi_def_cfa_offset 16
 110 0002 22C4     		sw	s0,8(sp)
 111              		.cfi_offset 8, -8
 326:../src/gmt024_spi.c **** 	SPI_DC_0;
 112              		.loc 1 326 0
 113 0004 2164     		li	s0,32768
 114 0006 1C50     		lw	a5,32(s0)
 325:../src/gmt024_spi.c **** 	SPI_DC_0;
 115              		.loc 1 325 0
 116 0008 06C6     		sw	ra,12(sp)
 117              		.cfi_offset 1, -4
 118              		.loc 1 326 0
 119 000a 93F7770F 		andi	a5,a5,247
 120 000e 1CD0     		sw	a5,32(s0)
 327:../src/gmt024_spi.c **** 	SPI_CS_0;
 121              		.loc 1 327 0
 122 0010 1C50     		lw	a5,32(s0)
 123 0012 93F7F70E 		andi	a5,a5,239
 124 0016 1CD0     		sw	a5,32(s0)
 328:../src/gmt024_spi.c **** 	  
 329:../src/gmt024_spi.c ****     SPI_SendByte(o_command);
 125              		.loc 1 329 0
 126 0018 97000000 		call	SPI_SendByte
 126      E7800000 
 127              	.LVL9:
 330:../src/gmt024_spi.c **** 	SPI_CS_1;
 128              		.loc 1 330 0
 129 0020 1C50     		lw	a5,32(s0)
 331:../src/gmt024_spi.c ****   }
 130              		.loc 1 331 0
 131 0022 B240     		lw	ra,12(sp)
 132              		.cfi_restore 1
 330:../src/gmt024_spi.c **** 	SPI_CS_1;
 133              		.loc 1 330 0
 134 0024 93E70701 		ori	a5,a5,16
 135 0028 1CD0     		sw	a5,32(s0)
 136              		.loc 1 331 0
 137 002a 2244     		lw	s0,8(sp)
 138              		.cfi_restore 8
 139 002c 4101     		addi	sp,sp,16
 140              		.cfi_def_cfa_offset 0
 141 002e 8280     		jr	ra
 142              		.cfi_endproc
 143              	.LFE4:
 145              		.section	.text.TFT_SEND_DATA,"ax",@progbits
 146              		.align	1
 147              		.globl	TFT_SEND_DATA
 149              	TFT_SEND_DATA:
 150              	.LFB5:
 332:../src/gmt024_spi.c ****   //向液晶屏写一个8位数据
 333:../src/gmt024_spi.c **** void TFT_SEND_DATA(unsigned  char o_data)
 334:../src/gmt024_spi.c ****   { 
 151              		.loc 1 334 0
 152              		.cfi_startproc
 153              	.LVL10:
 154 0000 4111     		addi	sp,sp,-16
 155              		.cfi_def_cfa_offset 16
 156 0002 22C4     		sw	s0,8(sp)
 157              		.cfi_offset 8, -8
 335:../src/gmt024_spi.c ****     SPI_DC_1;
 158              		.loc 1 335 0
 159 0004 2164     		li	s0,32768
 160 0006 1C50     		lw	a5,32(s0)
 334:../src/gmt024_spi.c ****     SPI_DC_1;
 161              		.loc 1 334 0
 162 0008 06C6     		sw	ra,12(sp)
 163              		.cfi_offset 1, -4
 164              		.loc 1 335 0
 165 000a 93E78700 		ori	a5,a5,8
 166 000e 1CD0     		sw	a5,32(s0)
 336:../src/gmt024_spi.c **** 	SPI_CS_0;	
 167              		.loc 1 336 0
 168 0010 1C50     		lw	a5,32(s0)
 169 0012 93F7F70E 		andi	a5,a5,239
 170 0016 1CD0     		sw	a5,32(s0)
 337:../src/gmt024_spi.c ****     SPI_SendByte(o_data);
 171              		.loc 1 337 0
 172 0018 97000000 		call	SPI_SendByte
 172      E7800000 
 173              	.LVL11:
 338:../src/gmt024_spi.c **** 	SPI_CS_1;	  
 174              		.loc 1 338 0
 175 0020 1C50     		lw	a5,32(s0)
 339:../src/gmt024_spi.c ****    }
 176              		.loc 1 339 0
 177 0022 B240     		lw	ra,12(sp)
 178              		.cfi_restore 1
 338:../src/gmt024_spi.c **** 	SPI_CS_1;	  
 179              		.loc 1 338 0
 180 0024 93E70701 		ori	a5,a5,16
 181 0028 1CD0     		sw	a5,32(s0)
 182              		.loc 1 339 0
 183 002a 2244     		lw	s0,8(sp)
 184              		.cfi_restore 8
 185 002c 4101     		addi	sp,sp,16
 186              		.cfi_def_cfa_offset 0
 187 002e 8280     		jr	ra
 188              		.cfi_endproc
 189              	.LFE5:
 191              		.section	.text.TFT_clear,"ax",@progbits
 192              		.align	1
 193              		.globl	TFT_clear
 195              	TFT_clear:
 196              	.LFB6:
 340:../src/gmt024_spi.c **** void TFT_clear(void)
 341:../src/gmt024_spi.c ****   {
 197              		.loc 1 341 0
 198              		.cfi_startproc
 199 0000 4111     		addi	sp,sp,-16
 200              		.cfi_def_cfa_offset 16
 342:../src/gmt024_spi.c ****     unsigned int ROW,column;
 343:../src/gmt024_spi.c ****   TFT_SEND_CMD(0x2a);     //Column address set
 201              		.loc 1 343 0
 202 0002 1305A002 		li	a0,42
 341:../src/gmt024_spi.c ****     unsigned int ROW,column;
 203              		.loc 1 341 0
 204 0006 06C6     		sw	ra,12(sp)
 205 0008 26C2     		sw	s1,4(sp)
 206 000a 22C4     		sw	s0,8(sp)
 207              		.cfi_offset 1, -4
 208              		.cfi_offset 9, -12
 209              		.cfi_offset 8, -8
 210              		.loc 1 343 0
 211 000c 97000000 		call	TFT_SEND_CMD
 211      E7800000 
 212              	.LVL12:
 344:../src/gmt024_spi.c ****   TFT_SEND_DATA(0x00);    //start column
 213              		.loc 1 344 0
 214 0014 0145     		li	a0,0
 215 0016 97000000 		call	TFT_SEND_DATA
 215      E7800000 
 216              	.LVL13:
 345:../src/gmt024_spi.c ****   TFT_SEND_DATA(0x00); 
 217              		.loc 1 345 0
 218 001e 0145     		li	a0,0
 219 0020 97000000 		call	TFT_SEND_DATA
 219      E7800000 
 220              	.LVL14:
 346:../src/gmt024_spi.c ****   TFT_SEND_DATA(0x00);    //end column
 221              		.loc 1 346 0
 222 0028 0145     		li	a0,0
 223 002a 97000000 		call	TFT_SEND_DATA
 223      E7800000 
 224              	.LVL15:
 347:../src/gmt024_spi.c ****   TFT_SEND_DATA(0xF0);
 225              		.loc 1 347 0
 226 0032 1305000F 		li	a0,240
 227 0036 97000000 		call	TFT_SEND_DATA
 227      E7800000 
 228              	.LVL16:
 348:../src/gmt024_spi.c **** 
 349:../src/gmt024_spi.c ****   TFT_SEND_CMD(0x2b);     //Row address set
 229              		.loc 1 349 0
 230 003e 1305B002 		li	a0,43
 231 0042 97000000 		call	TFT_SEND_CMD
 231      E7800000 
 232              	.LVL17:
 350:../src/gmt024_spi.c ****   TFT_SEND_DATA(0x00);    //start row
 233              		.loc 1 350 0
 234 004a 0145     		li	a0,0
 235 004c 97000000 		call	TFT_SEND_DATA
 235      E7800000 
 236              	.LVL18:
 351:../src/gmt024_spi.c ****   TFT_SEND_DATA(0x00); 
 237              		.loc 1 351 0
 238 0054 0145     		li	a0,0
 239 0056 97000000 		call	TFT_SEND_DATA
 239      E7800000 
 240              	.LVL19:
 352:../src/gmt024_spi.c ****   TFT_SEND_DATA(0x01);    //end row
 241              		.loc 1 352 0
 242 005e 0545     		li	a0,1
 243 0060 97000000 		call	TFT_SEND_DATA
 243      E7800000 
 244              	.LVL20:
 353:../src/gmt024_spi.c ****   TFT_SEND_DATA(0x40);
 245              		.loc 1 353 0
 246 0068 13050004 		li	a0,64
 247 006c 97000000 		call	TFT_SEND_DATA
 247      E7800000 
 248              	.LVL21:
 354:../src/gmt024_spi.c ****     TFT_SEND_CMD(0x2C);     //Memory write
 249              		.loc 1 354 0
 250 0074 1305C002 		li	a0,44
 251 0078 97000000 		call	TFT_SEND_CMD
 251      E7800000 
 252              	.LVL22:
 253 0080 93040014 		li	s1,320
 254              	.LVL23:
 255              	.L16:
 341:../src/gmt024_spi.c ****     unsigned int ROW,column;
 256              		.loc 1 341 0
 257 0084 1304000F 		li	s0,240
 258              	.LVL24:
 259              	.L17:
 355:../src/gmt024_spi.c ****     for(ROW=0;ROW<TFT_LINE_NUMBER;ROW++)             //ROW loop
 356:../src/gmt024_spi.c ****       { 
 357:../src/gmt024_spi.c ****     
 358:../src/gmt024_spi.c ****           for(column=0;column<TFT_COLUMN_NUMBER;column++)  //column loop
 359:../src/gmt024_spi.c ****             {
 360:../src/gmt024_spi.c ****               
 361:../src/gmt024_spi.c **** 				TFT_SEND_DATA(0xFF);
 260              		.loc 1 361 0 discriminator 3
 261 0088 1305F00F 		li	a0,255
 262 008c 97000000 		call	TFT_SEND_DATA
 262      E7800000 
 263              	.LVL25:
 264 0094 7D14     		addi	s0,s0,-1
 265              	.LVL26:
 362:../src/gmt024_spi.c **** 				TFT_SEND_DATA(0xFF);
 266              		.loc 1 362 0 discriminator 3
 267 0096 1305F00F 		li	a0,255
 268 009a 97000000 		call	TFT_SEND_DATA
 268      E7800000 
 269              	.LVL27:
 358:../src/gmt024_spi.c ****             {
 270              		.loc 1 358 0 discriminator 3
 271 00a2 7DF0     		bnez	s0,.L17
 272              	.LVL28:
 273 00a4 FD14     		addi	s1,s1,-1
 274              	.LVL29:
 355:../src/gmt024_spi.c ****     for(ROW=0;ROW<TFT_LINE_NUMBER;ROW++)             //ROW loop
 275              		.loc 1 355 0 discriminator 2
 276 00a6 F9FC     		bnez	s1,.L16
 363:../src/gmt024_spi.c ****             }
 364:../src/gmt024_spi.c ****       }
 365:../src/gmt024_spi.c ****   }
 277              		.loc 1 365 0
 278 00a8 B240     		lw	ra,12(sp)
 279              		.cfi_restore 1
 280 00aa 2244     		lw	s0,8(sp)
 281              		.cfi_restore 8
 282 00ac 9244     		lw	s1,4(sp)
 283              		.cfi_restore 9
 284              	.LVL30:
 285 00ae 4101     		addi	sp,sp,16
 286              		.cfi_def_cfa_offset 0
 287 00b0 8280     		jr	ra
 288              		.cfi_endproc
 289              	.LFE6:
 291              		.section	.text.TFT_full,"ax",@progbits
 292              		.align	1
 293              		.globl	TFT_full
 295              	TFT_full:
 296              	.LFB7:
 366:../src/gmt024_spi.c **** void TFT_full(unsigned int color)
 367:../src/gmt024_spi.c ****   {
 297              		.loc 1 367 0
 298              		.cfi_startproc
 299              	.LVL31:
 300 0000 0111     		addi	sp,sp,-32
 301              		.cfi_def_cfa_offset 32
 302 0002 26CA     		sw	s1,20(sp)
 303              		.cfi_offset 9, -12
 304 0004 AA84     		mv	s1,a0
 368:../src/gmt024_spi.c ****     unsigned int ROW,column;
 369:../src/gmt024_spi.c ****     TFT_SEND_CMD(0x2a);     //Column address set
 305              		.loc 1 369 0
 306 0006 1305A002 		li	a0,42
 307              	.LVL32:
 367:../src/gmt024_spi.c ****     unsigned int ROW,column;
 308              		.loc 1 367 0
 309 000a 06CE     		sw	ra,28(sp)
 310 000c 4AC8     		sw	s2,16(sp)
 311 000e 4EC6     		sw	s3,12(sp)
 312 0010 22CC     		sw	s0,24(sp)
 313              		.cfi_offset 1, -4
 314              		.cfi_offset 18, -16
 315              		.cfi_offset 19, -20
 316              		.cfi_offset 8, -8
 317              		.loc 1 369 0
 318 0012 97000000 		call	TFT_SEND_CMD
 318      E7800000 
 319              	.LVL33:
 370:../src/gmt024_spi.c ****   TFT_SEND_DATA(0x00);    //start column
 320              		.loc 1 370 0
 321 001a 0145     		li	a0,0
 322 001c 97000000 		call	TFT_SEND_DATA
 322      E7800000 
 323              	.LVL34:
 371:../src/gmt024_spi.c ****   TFT_SEND_DATA(0x00); 
 324              		.loc 1 371 0
 325 0024 0145     		li	a0,0
 326 0026 97000000 		call	TFT_SEND_DATA
 326      E7800000 
 327              	.LVL35:
 372:../src/gmt024_spi.c ****   TFT_SEND_DATA(0x00);    //end column
 328              		.loc 1 372 0
 329 002e 0145     		li	a0,0
 330 0030 97000000 		call	TFT_SEND_DATA
 330      E7800000 
 331              	.LVL36:
 373:../src/gmt024_spi.c ****   TFT_SEND_DATA(0xF0);
 332              		.loc 1 373 0
 333 0038 1305000F 		li	a0,240
 334 003c 97000000 		call	TFT_SEND_DATA
 334      E7800000 
 335              	.LVL37:
 374:../src/gmt024_spi.c **** 
 375:../src/gmt024_spi.c ****   TFT_SEND_CMD(0x2b);     //Row address set
 336              		.loc 1 375 0
 337 0044 1305B002 		li	a0,43
 338 0048 97000000 		call	TFT_SEND_CMD
 338      E7800000 
 339              	.LVL38:
 376:../src/gmt024_spi.c ****   TFT_SEND_DATA(0x00);    //start row
 340              		.loc 1 376 0
 341 0050 0145     		li	a0,0
 342 0052 97000000 		call	TFT_SEND_DATA
 342      E7800000 
 343              	.LVL39:
 377:../src/gmt024_spi.c ****   TFT_SEND_DATA(0x00); 
 344              		.loc 1 377 0
 345 005a 0145     		li	a0,0
 346 005c 97000000 		call	TFT_SEND_DATA
 346      E7800000 
 347              	.LVL40:
 378:../src/gmt024_spi.c ****   TFT_SEND_DATA(0x01);    //end row
 348              		.loc 1 378 0
 349 0064 0545     		li	a0,1
 350 0066 97000000 		call	TFT_SEND_DATA
 350      E7800000 
 351              	.LVL41:
 379:../src/gmt024_spi.c ****   TFT_SEND_DATA(0x40);
 352              		.loc 1 379 0
 353 006e 13050004 		li	a0,64
 354 0072 97000000 		call	TFT_SEND_DATA
 354      E7800000 
 355              	.LVL42:
 380:../src/gmt024_spi.c ****     TFT_SEND_CMD(0x2C);     //Memory write
 381:../src/gmt024_spi.c ****     for(ROW=0;ROW<TFT_LINE_NUMBER;ROW++)             //ROW loop
 382:../src/gmt024_spi.c ****       { 
 383:../src/gmt024_spi.c ****     
 384:../src/gmt024_spi.c ****   for(column=0;column<TFT_COLUMN_NUMBER ;column++) //column loop
 385:../src/gmt024_spi.c ****           {
 386:../src/gmt024_spi.c **** 
 387:../src/gmt024_spi.c **** 			TFT_SEND_DATA(color>>8);
 356              		.loc 1 387 0
 357 007a 13D98400 		srli	s2,s1,8
 380:../src/gmt024_spi.c ****     TFT_SEND_CMD(0x2C);     //Memory write
 358              		.loc 1 380 0
 359 007e 1305C002 		li	a0,44
 360 0082 97000000 		call	TFT_SEND_CMD
 360      E7800000 
 361              	.LVL43:
 362              		.loc 1 387 0
 363 008a 1379F90F 		andi	s2,s2,0xff
 364 008e 93F4F40F 		andi	s1,s1,0xff
 365              	.LVL44:
 366 0092 93090014 		li	s3,320
 367              	.LVL45:
 368              	.L22:
 367:../src/gmt024_spi.c ****     unsigned int ROW,column;
 369              		.loc 1 367 0
 370 0096 1304000F 		li	s0,240
 371              	.LVL46:
 372              	.L23:
 373              		.loc 1 387 0 discriminator 3
 374 009a 4A85     		mv	a0,s2
 375 009c 97000000 		call	TFT_SEND_DATA
 375      E7800000 
 376              	.LVL47:
 377 00a4 7D14     		addi	s0,s0,-1
 378              	.LVL48:
 388:../src/gmt024_spi.c **** 			  TFT_SEND_DATA(color);
 379              		.loc 1 388 0 discriminator 3
 380 00a6 2685     		mv	a0,s1
 381 00a8 97000000 		call	TFT_SEND_DATA
 381      E7800000 
 382              	.LVL49:
 384:../src/gmt024_spi.c ****           {
 383              		.loc 1 384 0 discriminator 3
 384 00b0 6DF4     		bnez	s0,.L23
 385              	.LVL50:
 386 00b2 FD19     		addi	s3,s3,-1
 387              	.LVL51:
 381:../src/gmt024_spi.c ****       { 
 388              		.loc 1 381 0 discriminator 2
 389 00b4 E39109FE 		bnez	s3,.L22
 389:../src/gmt024_spi.c ****           }
 390:../src/gmt024_spi.c ****       }
 391:../src/gmt024_spi.c ****   }
 390              		.loc 1 391 0
 391 00b8 F240     		lw	ra,28(sp)
 392              		.cfi_restore 1
 393 00ba 6244     		lw	s0,24(sp)
 394              		.cfi_restore 8
 395 00bc D244     		lw	s1,20(sp)
 396              		.cfi_restore 9
 397 00be 4249     		lw	s2,16(sp)
 398              		.cfi_restore 18
 399 00c0 B249     		lw	s3,12(sp)
 400              		.cfi_restore 19
 401              	.LVL52:
 402 00c2 0561     		addi	sp,sp,32
 403              		.cfi_def_cfa_offset 0
 404 00c4 8280     		jr	ra
 405              		.cfi_endproc
 406              	.LFE7:
 408              		.section	.text.TFT_init,"ax",@progbits
 409              		.align	1
 410              		.globl	TFT_init
 412              	TFT_init:
 413              	.LFB8:
 392:../src/gmt024_spi.c **** 
 393:../src/gmt024_spi.c **** 
 394:../src/gmt024_spi.c **** void TFT_init(void)				////ST7789V2
 395:../src/gmt024_spi.c ****   {
 414              		.loc 1 395 0
 415              		.cfi_startproc
 396:../src/gmt024_spi.c **** 	SPI_SCK_1;			//特别注意！！
 416              		.loc 1 396 0
 417 0000 A167     		li	a5,32768
 418 0002 9853     		lw	a4,32(a5)
 395:../src/gmt024_spi.c **** 	SPI_SCK_1;			//特别注意！！
 419              		.loc 1 395 0
 420 0004 4111     		addi	sp,sp,-16
 421              		.cfi_def_cfa_offset 16
 422 0006 06C6     		sw	ra,12(sp)
 423              		.cfi_offset 1, -4
 424              		.loc 1 396 0
 425 0008 13671700 		ori	a4,a4,1
 426 000c 98D3     		sw	a4,32(a5)
 397:../src/gmt024_spi.c **** 	SPI_RST_0;
 427              		.loc 1 397 0
 428 000e 9853     		lw	a4,32(a5)
 398:../src/gmt024_spi.c **** 	Delay_ms(50);//1000
 399:../src/gmt024_spi.c **** 	SPI_RST_1;
 400:../src/gmt024_spi.c **** 	Delay_ms(10);//1000
 401:../src/gmt024_spi.c ****     TFT_SEND_CMD(0x11); 			//Sleep Out
 429              		.loc 1 401 0
 430 0010 4545     		li	a0,17
 397:../src/gmt024_spi.c **** 	SPI_RST_0;
 431              		.loc 1 397 0
 432 0012 1377B70F 		andi	a4,a4,251
 433 0016 98D3     		sw	a4,32(a5)
 434              	.LVL53:
 399:../src/gmt024_spi.c **** 	Delay_ms(10);//1000
 435              		.loc 1 399 0
 436 0018 9853     		lw	a4,32(a5)
 437 001a 13674700 		ori	a4,a4,4
 438 001e 98D3     		sw	a4,32(a5)
 439              	.LVL54:
 440              		.loc 1 401 0
 441 0020 97000000 		call	TFT_SEND_CMD
 441      E7800000 
 442              	.LVL55:
 402:../src/gmt024_spi.c **** 	Delay_ms(120);               //DELAY120ms
 403:../src/gmt024_spi.c **** 	 	  //-----------------------ST7789V Frame rate setting-----------------//
 404:../src/gmt024_spi.c **** //************************************************
 405:../src/gmt024_spi.c ****                 TFT_SEND_CMD(0x3A);        //65k mode
 443              		.loc 1 405 0
 444 0028 1305A003 		li	a0,58
 445 002c 97000000 		call	TFT_SEND_CMD
 445      E7800000 
 446              	.LVL56:
 406:../src/gmt024_spi.c ****                 TFT_SEND_DATA(0x05);
 447              		.loc 1 406 0
 448 0034 1545     		li	a0,5
 449 0036 97000000 		call	TFT_SEND_DATA
 449      E7800000 
 450              	.LVL57:
 407:../src/gmt024_spi.c ****                 TFT_SEND_CMD(0xC5); 		//VCOM
 451              		.loc 1 407 0
 452 003e 1305500C 		li	a0,197
 453 0042 97000000 		call	TFT_SEND_CMD
 453      E7800000 
 454              	.LVL58:
 408:../src/gmt024_spi.c ****                 TFT_SEND_DATA(0x1A);
 455              		.loc 1 408 0
 456 004a 6945     		li	a0,26
 457 004c 97000000 		call	TFT_SEND_DATA
 457      E7800000 
 458              	.LVL59:
 409:../src/gmt024_spi.c ****                 TFT_SEND_CMD(0x36);                 // 屏幕显示方向设置
 459              		.loc 1 409 0
 460 0054 13056003 		li	a0,54
 461 0058 97000000 		call	TFT_SEND_CMD
 461      E7800000 
 462              	.LVL60:
 410:../src/gmt024_spi.c ****                 TFT_SEND_DATA(0x00);
 463              		.loc 1 410 0
 464 0060 0145     		li	a0,0
 465 0062 97000000 		call	TFT_SEND_DATA
 465      E7800000 
 466              	.LVL61:
 411:../src/gmt024_spi.c ****                 //-------------ST7789V Frame rate setting-----------//
 412:../src/gmt024_spi.c ****                 TFT_SEND_CMD(0xb2);		//Porch Setting
 467              		.loc 1 412 0
 468 006a 1305200B 		li	a0,178
 469 006e 97000000 		call	TFT_SEND_CMD
 469      E7800000 
 470              	.LVL62:
 413:../src/gmt024_spi.c ****                 TFT_SEND_DATA(0x05);
 471              		.loc 1 413 0
 472 0076 1545     		li	a0,5
 473 0078 97000000 		call	TFT_SEND_DATA
 473      E7800000 
 474              	.LVL63:
 414:../src/gmt024_spi.c ****                 TFT_SEND_DATA(0x05);
 475              		.loc 1 414 0
 476 0080 1545     		li	a0,5
 477 0082 97000000 		call	TFT_SEND_DATA
 477      E7800000 
 478              	.LVL64:
 415:../src/gmt024_spi.c ****                 TFT_SEND_DATA(0x00);
 479              		.loc 1 415 0
 480 008a 0145     		li	a0,0
 481 008c 97000000 		call	TFT_SEND_DATA
 481      E7800000 
 482              	.LVL65:
 416:../src/gmt024_spi.c ****                 TFT_SEND_DATA(0x33);
 483              		.loc 1 416 0
 484 0094 13053003 		li	a0,51
 485 0098 97000000 		call	TFT_SEND_DATA
 485      E7800000 
 486              	.LVL66:
 417:../src/gmt024_spi.c ****                 TFT_SEND_DATA(0x33);
 487              		.loc 1 417 0
 488 00a0 13053003 		li	a0,51
 489 00a4 97000000 		call	TFT_SEND_DATA
 489      E7800000 
 490              	.LVL67:
 418:../src/gmt024_spi.c **** 
 419:../src/gmt024_spi.c ****                 TFT_SEND_CMD(0xb7);			//Gate Control
 491              		.loc 1 419 0
 492 00ac 1305700B 		li	a0,183
 493 00b0 97000000 		call	TFT_SEND_CMD
 493      E7800000 
 494              	.LVL68:
 420:../src/gmt024_spi.c ****                 TFT_SEND_DATA(0x05);			//12.2v   -10.43v
 495              		.loc 1 420 0
 496 00b8 1545     		li	a0,5
 497 00ba 97000000 		call	TFT_SEND_DATA
 497      E7800000 
 498              	.LVL69:
 421:../src/gmt024_spi.c ****                 //--------------ST7789V Power setting---------------//
 422:../src/gmt024_spi.c ****                 TFT_SEND_CMD(0xBB);//VCOM
 499              		.loc 1 422 0
 500 00c2 1305B00B 		li	a0,187
 501 00c6 97000000 		call	TFT_SEND_CMD
 501      E7800000 
 502              	.LVL70:
 423:../src/gmt024_spi.c ****                 TFT_SEND_DATA(0x3F);
 503              		.loc 1 423 0
 504 00ce 1305F003 		li	a0,63
 505 00d2 97000000 		call	TFT_SEND_DATA
 505      E7800000 
 506              	.LVL71:
 424:../src/gmt024_spi.c **** 
 425:../src/gmt024_spi.c ****                 TFT_SEND_CMD(0xC0); //Power control
 507              		.loc 1 425 0
 508 00da 1305000C 		li	a0,192
 509 00de 97000000 		call	TFT_SEND_CMD
 509      E7800000 
 510              	.LVL72:
 426:../src/gmt024_spi.c ****                 TFT_SEND_DATA(0x2c);
 511              		.loc 1 426 0
 512 00e6 1305C002 		li	a0,44
 513 00ea 97000000 		call	TFT_SEND_DATA
 513      E7800000 
 514              	.LVL73:
 427:../src/gmt024_spi.c **** 
 428:../src/gmt024_spi.c ****                 TFT_SEND_CMD(0xC2);		//VDV and VRH Command Enable
 515              		.loc 1 428 0
 516 00f2 1305200C 		li	a0,194
 517 00f6 97000000 		call	TFT_SEND_CMD
 517      E7800000 
 518              	.LVL74:
 429:../src/gmt024_spi.c ****                 TFT_SEND_DATA(0x01);
 519              		.loc 1 429 0
 520 00fe 0545     		li	a0,1
 521 0100 97000000 		call	TFT_SEND_DATA
 521      E7800000 
 522              	.LVL75:
 430:../src/gmt024_spi.c **** 
 431:../src/gmt024_spi.c ****                 TFT_SEND_CMD(0xC3);			//VRH Set
 523              		.loc 1 431 0
 524 0108 1305300C 		li	a0,195
 525 010c 97000000 		call	TFT_SEND_CMD
 525      E7800000 
 526              	.LVL76:
 432:../src/gmt024_spi.c ****                 TFT_SEND_DATA(0x0F);		//4.3+( vcom+vcom offset+vdv)
 527              		.loc 1 432 0
 528 0114 3D45     		li	a0,15
 529 0116 97000000 		call	TFT_SEND_DATA
 529      E7800000 
 530              	.LVL77:
 433:../src/gmt024_spi.c **** 
 434:../src/gmt024_spi.c ****                 TFT_SEND_CMD(0xC4);			//VDV Set
 531              		.loc 1 434 0
 532 011e 1305400C 		li	a0,196
 533 0122 97000000 		call	TFT_SEND_CMD
 533      E7800000 
 534              	.LVL78:
 435:../src/gmt024_spi.c ****                 TFT_SEND_DATA(0x20);				//0v
 535              		.loc 1 435 0
 536 012a 13050002 		li	a0,32
 537 012e 97000000 		call	TFT_SEND_DATA
 537      E7800000 
 538              	.LVL79:
 436:../src/gmt024_spi.c **** 
 437:../src/gmt024_spi.c ****                 TFT_SEND_CMD(0xC6);				//Frame Rate Control in Normal Mode
 539              		.loc 1 437 0
 540 0136 1305600C 		li	a0,198
 541 013a 97000000 		call	TFT_SEND_CMD
 541      E7800000 
 542              	.LVL80:
 438:../src/gmt024_spi.c ****                 TFT_SEND_DATA(0X01);			//111Hz
 543              		.loc 1 438 0
 544 0142 0545     		li	a0,1
 545 0144 97000000 		call	TFT_SEND_DATA
 545      E7800000 
 546              	.LVL81:
 439:../src/gmt024_spi.c **** 
 440:../src/gmt024_spi.c ****                 TFT_SEND_CMD(0xd0);				//Power Control 1
 547              		.loc 1 440 0
 548 014c 1305000D 		li	a0,208
 549 0150 97000000 		call	TFT_SEND_CMD
 549      E7800000 
 550              	.LVL82:
 441:../src/gmt024_spi.c ****                 TFT_SEND_DATA(0xa4);
 551              		.loc 1 441 0
 552 0158 1305400A 		li	a0,164
 553 015c 97000000 		call	TFT_SEND_DATA
 553      E7800000 
 554              	.LVL83:
 442:../src/gmt024_spi.c ****                 TFT_SEND_DATA(0xa1);
 555              		.loc 1 442 0
 556 0164 1305100A 		li	a0,161
 557 0168 97000000 		call	TFT_SEND_DATA
 557      E7800000 
 558              	.LVL84:
 443:../src/gmt024_spi.c **** 
 444:../src/gmt024_spi.c ****                 TFT_SEND_CMD(0xE8);				//Power Control 1
 559              		.loc 1 444 0
 560 0170 1305800E 		li	a0,232
 561 0174 97000000 		call	TFT_SEND_CMD
 561      E7800000 
 562              	.LVL85:
 445:../src/gmt024_spi.c ****                 TFT_SEND_DATA(0x03);
 563              		.loc 1 445 0
 564 017c 0D45     		li	a0,3
 565 017e 97000000 		call	TFT_SEND_DATA
 565      E7800000 
 566              	.LVL86:
 446:../src/gmt024_spi.c **** 
 447:../src/gmt024_spi.c ****                 TFT_SEND_CMD(0xE9);				//Equalize time control
 567              		.loc 1 447 0
 568 0186 1305900E 		li	a0,233
 569 018a 97000000 		call	TFT_SEND_CMD
 569      E7800000 
 570              	.LVL87:
 448:../src/gmt024_spi.c ****                 TFT_SEND_DATA(0x09);
 571              		.loc 1 448 0
 572 0192 2545     		li	a0,9
 573 0194 97000000 		call	TFT_SEND_DATA
 573      E7800000 
 574              	.LVL88:
 449:../src/gmt024_spi.c ****                 TFT_SEND_DATA(0x09);
 575              		.loc 1 449 0
 576 019c 2545     		li	a0,9
 577 019e 97000000 		call	TFT_SEND_DATA
 577      E7800000 
 578              	.LVL89:
 450:../src/gmt024_spi.c ****                 TFT_SEND_DATA(0x08);
 579              		.loc 1 450 0
 580 01a6 2145     		li	a0,8
 581 01a8 97000000 		call	TFT_SEND_DATA
 581      E7800000 
 582              	.LVL90:
 451:../src/gmt024_spi.c ****                 //---------------ST7789V gamma setting-------------//
 452:../src/gmt024_spi.c ****                 TFT_SEND_CMD(0xE0); //Set Gamma
 583              		.loc 1 452 0
 584 01b0 1305000E 		li	a0,224
 585 01b4 97000000 		call	TFT_SEND_CMD
 585      E7800000 
 586              	.LVL91:
 453:../src/gmt024_spi.c ****                 TFT_SEND_DATA(0xD0);
 587              		.loc 1 453 0
 588 01bc 1305000D 		li	a0,208
 589 01c0 97000000 		call	TFT_SEND_DATA
 589      E7800000 
 590              	.LVL92:
 454:../src/gmt024_spi.c ****                 TFT_SEND_DATA(0x05);
 591              		.loc 1 454 0
 592 01c8 1545     		li	a0,5
 593 01ca 97000000 		call	TFT_SEND_DATA
 593      E7800000 
 594              	.LVL93:
 455:../src/gmt024_spi.c ****                 TFT_SEND_DATA(0x09);
 595              		.loc 1 455 0
 596 01d2 2545     		li	a0,9
 597 01d4 97000000 		call	TFT_SEND_DATA
 597      E7800000 
 598              	.LVL94:
 456:../src/gmt024_spi.c ****                 TFT_SEND_DATA(0x09);
 599              		.loc 1 456 0
 600 01dc 2545     		li	a0,9
 601 01de 97000000 		call	TFT_SEND_DATA
 601      E7800000 
 602              	.LVL95:
 457:../src/gmt024_spi.c ****                 TFT_SEND_DATA(0x08);
 603              		.loc 1 457 0
 604 01e6 2145     		li	a0,8
 605 01e8 97000000 		call	TFT_SEND_DATA
 605      E7800000 
 606              	.LVL96:
 458:../src/gmt024_spi.c ****                 TFT_SEND_DATA(0x14);
 607              		.loc 1 458 0
 608 01f0 5145     		li	a0,20
 609 01f2 97000000 		call	TFT_SEND_DATA
 609      E7800000 
 610              	.LVL97:
 459:../src/gmt024_spi.c ****                 TFT_SEND_DATA(0x28);
 611              		.loc 1 459 0
 612 01fa 13058002 		li	a0,40
 613 01fe 97000000 		call	TFT_SEND_DATA
 613      E7800000 
 614              	.LVL98:
 460:../src/gmt024_spi.c ****                 TFT_SEND_DATA(0x33);
 615              		.loc 1 460 0
 616 0206 13053003 		li	a0,51
 617 020a 97000000 		call	TFT_SEND_DATA
 617      E7800000 
 618              	.LVL99:
 461:../src/gmt024_spi.c ****                 TFT_SEND_DATA(0x3F);
 619              		.loc 1 461 0
 620 0212 1305F003 		li	a0,63
 621 0216 97000000 		call	TFT_SEND_DATA
 621      E7800000 
 622              	.LVL100:
 462:../src/gmt024_spi.c ****                 TFT_SEND_DATA(0x07);
 623              		.loc 1 462 0
 624 021e 1D45     		li	a0,7
 625 0220 97000000 		call	TFT_SEND_DATA
 625      E7800000 
 626              	.LVL101:
 463:../src/gmt024_spi.c ****                 TFT_SEND_DATA(0x13);
 627              		.loc 1 463 0
 628 0228 4D45     		li	a0,19
 629 022a 97000000 		call	TFT_SEND_DATA
 629      E7800000 
 630              	.LVL102:
 464:../src/gmt024_spi.c ****                 TFT_SEND_DATA(0x14);
 631              		.loc 1 464 0
 632 0232 5145     		li	a0,20
 633 0234 97000000 		call	TFT_SEND_DATA
 633      E7800000 
 634              	.LVL103:
 465:../src/gmt024_spi.c ****                 TFT_SEND_DATA(0x28);
 635              		.loc 1 465 0
 636 023c 13058002 		li	a0,40
 637 0240 97000000 		call	TFT_SEND_DATA
 637      E7800000 
 638              	.LVL104:
 466:../src/gmt024_spi.c ****                 TFT_SEND_DATA(0x30);
 639              		.loc 1 466 0
 640 0248 13050003 		li	a0,48
 641 024c 97000000 		call	TFT_SEND_DATA
 641      E7800000 
 642              	.LVL105:
 467:../src/gmt024_spi.c **** 
 468:../src/gmt024_spi.c ****                 TFT_SEND_CMD(0XE1); //Set Gamma
 643              		.loc 1 468 0
 644 0254 1305100E 		li	a0,225
 645 0258 97000000 		call	TFT_SEND_CMD
 645      E7800000 
 646              	.LVL106:
 469:../src/gmt024_spi.c ****                 TFT_SEND_DATA(0xD0);
 647              		.loc 1 469 0
 648 0260 1305000D 		li	a0,208
 649 0264 97000000 		call	TFT_SEND_DATA
 649      E7800000 
 650              	.LVL107:
 470:../src/gmt024_spi.c ****                 TFT_SEND_DATA(0x05);
 651              		.loc 1 470 0
 652 026c 1545     		li	a0,5
 653 026e 97000000 		call	TFT_SEND_DATA
 653      E7800000 
 654              	.LVL108:
 471:../src/gmt024_spi.c ****                 TFT_SEND_DATA(0x09);
 655              		.loc 1 471 0
 656 0276 2545     		li	a0,9
 657 0278 97000000 		call	TFT_SEND_DATA
 657      E7800000 
 658              	.LVL109:
 472:../src/gmt024_spi.c ****                 TFT_SEND_DATA(0x09);
 659              		.loc 1 472 0
 660 0280 2545     		li	a0,9
 661 0282 97000000 		call	TFT_SEND_DATA
 661      E7800000 
 662              	.LVL110:
 473:../src/gmt024_spi.c ****                 TFT_SEND_DATA(0x08);
 663              		.loc 1 473 0
 664 028a 2145     		li	a0,8
 665 028c 97000000 		call	TFT_SEND_DATA
 665      E7800000 
 666              	.LVL111:
 474:../src/gmt024_spi.c ****                 TFT_SEND_DATA(0x03);
 667              		.loc 1 474 0
 668 0294 0D45     		li	a0,3
 669 0296 97000000 		call	TFT_SEND_DATA
 669      E7800000 
 670              	.LVL112:
 475:../src/gmt024_spi.c ****                 TFT_SEND_DATA(0x24);
 671              		.loc 1 475 0
 672 029e 13054002 		li	a0,36
 673 02a2 97000000 		call	TFT_SEND_DATA
 673      E7800000 
 674              	.LVL113:
 476:../src/gmt024_spi.c ****                 TFT_SEND_DATA(0x32);
 675              		.loc 1 476 0
 676 02aa 13052003 		li	a0,50
 677 02ae 97000000 		call	TFT_SEND_DATA
 677      E7800000 
 678              	.LVL114:
 477:../src/gmt024_spi.c ****                 TFT_SEND_DATA(0x32);
 679              		.loc 1 477 0
 680 02b6 13052003 		li	a0,50
 681 02ba 97000000 		call	TFT_SEND_DATA
 681      E7800000 
 682              	.LVL115:
 478:../src/gmt024_spi.c ****                 TFT_SEND_DATA(0x3B);
 683              		.loc 1 478 0
 684 02c2 1305B003 		li	a0,59
 685 02c6 97000000 		call	TFT_SEND_DATA
 685      E7800000 
 686              	.LVL116:
 479:../src/gmt024_spi.c ****                 TFT_SEND_DATA(0x14);
 687              		.loc 1 479 0
 688 02ce 5145     		li	a0,20
 689 02d0 97000000 		call	TFT_SEND_DATA
 689      E7800000 
 690              	.LVL117:
 480:../src/gmt024_spi.c ****                 TFT_SEND_DATA(0x13);
 691              		.loc 1 480 0
 692 02d8 4D45     		li	a0,19
 693 02da 97000000 		call	TFT_SEND_DATA
 693      E7800000 
 694              	.LVL118:
 481:../src/gmt024_spi.c ****                 TFT_SEND_DATA(0x28);
 695              		.loc 1 481 0
 696 02e2 13058002 		li	a0,40
 697 02e6 97000000 		call	TFT_SEND_DATA
 697      E7800000 
 698              	.LVL119:
 482:../src/gmt024_spi.c ****                 TFT_SEND_DATA(0x2F);
 699              		.loc 1 482 0
 700 02ee 1305F002 		li	a0,47
 701 02f2 97000000 		call	TFT_SEND_DATA
 701      E7800000 
 702              	.LVL120:
 483:../src/gmt024_spi.c **** 
 484:../src/gmt024_spi.c ****                 TFT_SEND_CMD(0x20); 		//反显
 703              		.loc 1 484 0
 704 02fa 13050002 		li	a0,32
 705 02fe 97000000 		call	TFT_SEND_CMD
 705      E7800000 
 706              	.LVL121:
 485:../src/gmt024_spi.c **** 
 486:../src/gmt024_spi.c ****                 TFT_SEND_CMD(0x29);         //开启显示
 487:../src/gmt024_spi.c **** 
 488:../src/gmt024_spi.c ****   }
 707              		.loc 1 488 0
 708 0306 B240     		lw	ra,12(sp)
 709              		.cfi_restore 1
 486:../src/gmt024_spi.c **** 
 710              		.loc 1 486 0
 711 0308 13059002 		li	a0,41
 712              		.loc 1 488 0
 713 030c 4101     		addi	sp,sp,16
 714              		.cfi_def_cfa_offset 0
 486:../src/gmt024_spi.c **** 
 715              		.loc 1 486 0
 716 030e 17030000 		tail	TFT_SEND_CMD
 716      67000300 
 717              	.LVL122:
 718              		.cfi_endproc
 719              	.LFE8:
 721              		.section	.text.display_char16_16,"ax",@progbits
 722              		.align	1
 723              		.globl	display_char16_16
 725              	display_char16_16:
 726              	.LFB9:
 489:../src/gmt024_spi.c **** 
 490:../src/gmt024_spi.c **** void display_char16_16(unsigned int x,unsigned int y,unsigned long color,unsigned char word_serial_
 491:../src/gmt024_spi.c **** {
 727              		.loc 1 491 0
 728              		.cfi_startproc
 729              	.LVL123:
 730 0000 0111     		addi	sp,sp,-32
 731              		.cfi_def_cfa_offset 32
 732 0002 26CA     		sw	s1,20(sp)
 733              		.cfi_offset 9, -12
 734 0004 AA84     		mv	s1,a0
 492:../src/gmt024_spi.c ****    unsigned int column;
 493:../src/gmt024_spi.c ****   unsigned char tm=0,temp=0,xxx=0;
 494:../src/gmt024_spi.c **** 
 495:../src/gmt024_spi.c ****    TFT_SEND_CMD(0x2a);    //Column address set
 735              		.loc 1 495 0
 736 0006 1305A002 		li	a0,42
 737              	.LVL124:
 491:../src/gmt024_spi.c ****    unsigned int column;
 738              		.loc 1 491 0
 739 000a 06CE     		sw	ra,28(sp)
 740 000c 22CC     		sw	s0,24(sp)
 741 000e 4AC8     		sw	s2,16(sp)
 742              		.cfi_offset 1, -4
 743              		.cfi_offset 8, -8
 744              		.cfi_offset 18, -16
 745 0010 2E84     		mv	s0,a1
 746 0012 4EC6     		sw	s3,12(sp)
 747 0014 52C4     		sw	s4,8(sp)
 748              		.cfi_offset 19, -20
 749              		.cfi_offset 20, -24
 750 0016 B289     		mv	s3,a2
 751 0018 56C2     		sw	s5,4(sp)
 752              		.cfi_offset 21, -28
 491:../src/gmt024_spi.c ****    unsigned int column;
 753              		.loc 1 491 0
 754 001a B68A     		mv	s5,a3
 755              		.loc 1 495 0
 756 001c 97000000 		call	TFT_SEND_CMD
 756      E7800000 
 757              	.LVL125:
 496:../src/gmt024_spi.c ****   TFT_SEND_DATA(x>>8);    //start column
 758              		.loc 1 496 0
 759 0024 13D58400 		srli	a0,s1,8
 760 0028 1375F50F 		andi	a0,a0,0xff
 761 002c 97000000 		call	TFT_SEND_DATA
 761      E7800000 
 762              	.LVL126:
 497:../src/gmt024_spi.c ****   TFT_SEND_DATA(x);
 763              		.loc 1 497 0
 764 0034 13F5F40F 		andi	a0,s1,0xff
 765 0038 97000000 		call	TFT_SEND_DATA
 765      E7800000 
 766              	.LVL127:
 498:../src/gmt024_spi.c ****   x=x+15;
 767              		.loc 1 498 0
 768 0040 BD04     		addi	s1,s1,15
 769              	.LVL128:
 499:../src/gmt024_spi.c ****   TFT_SEND_DATA(x>>8);    //end column
 770              		.loc 1 499 0
 771 0042 13D58400 		srli	a0,s1,8
 772 0046 1375F50F 		andi	a0,a0,0xff
 773 004a 97000000 		call	TFT_SEND_DATA
 773      E7800000 
 774              	.LVL129:
 500:../src/gmt024_spi.c ****   TFT_SEND_DATA(x);
 775              		.loc 1 500 0
 776 0052 13F5F40F 		andi	a0,s1,0xff
 777 0056 97000000 		call	TFT_SEND_DATA
 777      E7800000 
 778              	.LVL130:
 501:../src/gmt024_spi.c **** 
 502:../src/gmt024_spi.c ****   TFT_SEND_CMD(0x2b);     //Row address set
 779              		.loc 1 502 0
 780 005e 1305B002 		li	a0,43
 781 0062 97000000 		call	TFT_SEND_CMD
 781      E7800000 
 782              	.LVL131:
 503:../src/gmt024_spi.c ****   TFT_SEND_DATA(y>>8);    //start row
 783              		.loc 1 503 0
 784 006a 13558400 		srli	a0,s0,8
 785 006e 1375F50F 		andi	a0,a0,0xff
 786 0072 97000000 		call	TFT_SEND_DATA
 786      E7800000 
 787              	.LVL132:
 504:../src/gmt024_spi.c ****   TFT_SEND_DATA(y);
 788              		.loc 1 504 0
 789 007a 1375F40F 		andi	a0,s0,0xff
 790 007e 97000000 		call	TFT_SEND_DATA
 790      E7800000 
 791              	.LVL133:
 505:../src/gmt024_spi.c ****   y=y+15;
 792              		.loc 1 505 0
 793 0086 3D04     		addi	s0,s0,15
 794              	.LVL134:
 506:../src/gmt024_spi.c ****   TFT_SEND_DATA(y>>8);    //end row
 795              		.loc 1 506 0
 796 0088 13558400 		srli	a0,s0,8
 797 008c 1375F50F 		andi	a0,a0,0xff
 798 0090 97000000 		call	TFT_SEND_DATA
 798      E7800000 
 799              	.LVL135:
 507:../src/gmt024_spi.c ****   TFT_SEND_DATA(y);
 800              		.loc 1 507 0
 801 0098 1375F40F 		andi	a0,s0,0xff
 802 009c 97000000 		call	TFT_SEND_DATA
 802      E7800000 
 803              	.LVL136:
 508:../src/gmt024_spi.c ****     TFT_SEND_CMD(0x2C);     //Memory write
 804              		.loc 1 508 0
 805 00a4 1305C002 		li	a0,44
 806 00a8 37090000 		lui	s2,%hi(chines_word)
 807 00ac 13090900 		addi	s2,s2,%lo(chines_word)
 808 00b0 97000000 		call	TFT_SEND_CMD
 808      E7800000 
 809              	.LVL137:
 810 00b8 93975A00 		slli	a5,s5,5
 509:../src/gmt024_spi.c **** 
 510:../src/gmt024_spi.c **** 
 511:../src/gmt024_spi.c ****   for(column=0;column<32;column++)  //column loop
 512:../src/gmt024_spi.c ****           {
 513:../src/gmt024_spi.c ****         temp=chines_word[  word_serial_number ][xxx];
 514:../src/gmt024_spi.c ****         for(tm=0;tm<8;tm++)
 515:../src/gmt024_spi.c ****         {
 516:../src/gmt024_spi.c ****         if(temp&0x01)
 517:../src/gmt024_spi.c ****           {
 518:../src/gmt024_spi.c ****           TFT_SEND_DATA(color>>8);
 811              		.loc 1 518 0
 812 00bc 13DA8900 		srli	s4,s3,8
 813 00c0 930A0902 		addi	s5,s2,32
 814 00c4 137AFA0F 		andi	s4,s4,0xff
 815 00c8 3E99     		add	s2,a5,s2
 816 00ca BE9A     		add	s5,s5,a5
 519:../src/gmt024_spi.c ****           TFT_SEND_DATA(color);
 817              		.loc 1 519 0
 818 00cc 93F9F90F 		andi	s3,s3,0xff
 819              	.LVL138:
 820              	.L33:
 513:../src/gmt024_spi.c ****         for(tm=0;tm<8;tm++)
 821              		.loc 1 513 0
 822 00d0 83440900 		lbu	s1,0(s2)
 823              	.LVL139:
 824 00d4 2144     		li	s0,8
 825 00d6 05A0     		j	.L32
 826              	.LVL140:
 827              	.L38:
 518:../src/gmt024_spi.c ****           TFT_SEND_DATA(color);
 828              		.loc 1 518 0
 829 00d8 5285     		mv	a0,s4
 830 00da 97000000 		call	TFT_SEND_DATA
 830      E7800000 
 831              	.LVL141:
 832 00e2 7D14     		addi	s0,s0,-1
 833              	.LVL142:
 834              		.loc 1 519 0
 835 00e4 4E85     		mv	a0,s3
 836 00e6 1374F40F 		andi	s0,s0,0xff
 837 00ea 97000000 		call	TFT_SEND_DATA
 837      E7800000 
 838              	.LVL143:
 520:../src/gmt024_spi.c ****           }
 521:../src/gmt024_spi.c ****         else
 522:../src/gmt024_spi.c ****           {
 523:../src/gmt024_spi.c ****           TFT_SEND_DATA(0XFF);
 524:../src/gmt024_spi.c ****           TFT_SEND_DATA(0XFF);
 525:../src/gmt024_spi.c ****           }
 526:../src/gmt024_spi.c ****           temp>>=1;
 839              		.loc 1 526 0
 840 00f2 8580     		srli	s1,s1,1
 841              	.LVL144:
 514:../src/gmt024_spi.c ****         {
 842              		.loc 1 514 0
 843 00f4 0DC4     		beqz	s0,.L37
 844              	.L32:
 845              	.LVL145:
 516:../src/gmt024_spi.c ****           {
 846              		.loc 1 516 0
 847 00f6 93F71400 		andi	a5,s1,1
 523:../src/gmt024_spi.c ****           TFT_SEND_DATA(0XFF);
 848              		.loc 1 523 0
 849 00fa 1305F00F 		li	a0,255
 516:../src/gmt024_spi.c ****           {
 850              		.loc 1 516 0
 851 00fe E9FF     		bnez	a5,.L38
 523:../src/gmt024_spi.c ****           TFT_SEND_DATA(0XFF);
 852              		.loc 1 523 0
 853 0100 97000000 		call	TFT_SEND_DATA
 853      E7800000 
 854              	.LVL146:
 855 0108 7D14     		addi	s0,s0,-1
 856              	.LVL147:
 524:../src/gmt024_spi.c ****           }
 857              		.loc 1 524 0
 858 010a 1305F00F 		li	a0,255
 859 010e 1374F40F 		andi	s0,s0,0xff
 860 0112 97000000 		call	TFT_SEND_DATA
 860      E7800000 
 861              	.LVL148:
 862              		.loc 1 526 0
 863 011a 8580     		srli	s1,s1,1
 864              	.LVL149:
 514:../src/gmt024_spi.c ****         {
 865              		.loc 1 514 0
 866 011c 69FC     		bnez	s0,.L32
 867              	.L37:
 868 011e 0509     		addi	s2,s2,1
 511:../src/gmt024_spi.c ****           {
 869              		.loc 1 511 0 discriminator 2
 870 0120 E3982AFB 		bne	s5,s2,.L33
 527:../src/gmt024_spi.c ****         }
 528:../src/gmt024_spi.c ****         xxx++;
 529:../src/gmt024_spi.c **** 
 530:../src/gmt024_spi.c ****       }
 531:../src/gmt024_spi.c **** }
 871              		.loc 1 531 0
 872 0124 F240     		lw	ra,28(sp)
 873              		.cfi_restore 1
 874 0126 6244     		lw	s0,24(sp)
 875              		.cfi_restore 8
 876 0128 D244     		lw	s1,20(sp)
 877              		.cfi_restore 9
 878              	.LVL150:
 879 012a 4249     		lw	s2,16(sp)
 880              		.cfi_restore 18
 881 012c B249     		lw	s3,12(sp)
 882              		.cfi_restore 19
 883 012e 224A     		lw	s4,8(sp)
 884              		.cfi_restore 20
 885 0130 924A     		lw	s5,4(sp)
 886              		.cfi_restore 21
 887 0132 0561     		addi	sp,sp,32
 888              		.cfi_def_cfa_offset 0
 889 0134 8280     		jr	ra
 890              		.cfi_endproc
 891              	.LFE9:
 893              		.section	.text.IO_init,"ax",@progbits
 894              		.align	1
 895              		.globl	IO_init
 897              	IO_init:
 898              	.LFB10:
 532:../src/gmt024_spi.c **** 
 533:../src/gmt024_spi.c **** 
 534:../src/gmt024_spi.c **** void IO_init(void)
 535:../src/gmt024_spi.c **** {
 899              		.loc 1 535 0
 900              		.cfi_startproc
 536:../src/gmt024_spi.c ****   gpio_out_address |= 0x3F;                         //PC  0011_1111
 901              		.loc 1 536 0
 902 0000 2167     		li	a4,32768
 903 0002 1C53     		lw	a5,32(a4)
 904 0004 93E7F703 		ori	a5,a5,63
 905 0008 1CD3     		sw	a5,32(a4)
 537:../src/gmt024_spi.c ****   
 538:../src/gmt024_spi.c **** 
 539:../src/gmt024_spi.c **** }
 906              		.loc 1 539 0
 907 000a 8280     		ret
 908              		.cfi_endproc
 909              	.LFE10:
 911              		.section	.text.TFT_show,"ax",@progbits
 912              		.align	1
 913              		.globl	TFT_show
 915              	TFT_show:
 916              	.LFB11:
 540:../src/gmt024_spi.c **** 
 541:../src/gmt024_spi.c **** //0-240   0x00-0xf0    而且上是0下是0xf0
 542:../src/gmt024_spi.c **** void TFT_show(unsigned int color, unsigned int colorn)
 543:../src/gmt024_spi.c ****   {
 917              		.loc 1 543 0
 918              		.cfi_startproc
 919              	.LVL151:
 920 0000 7971     		addi	sp,sp,-48
 921              		.cfi_def_cfa_offset 48
 922 0002 56CA     		sw	s5,20(sp)
 923              		.cfi_offset 21, -28
 924 0004 AA8A     		mv	s5,a0
 544:../src/gmt024_spi.c **** 	unsigned char temp_data;
 545:../src/gmt024_spi.c ****     unsigned int ROW,column;
 546:../src/gmt024_spi.c ****   TFT_SEND_CMD(0x2a);     //Column address set
 925              		.loc 1 546 0
 926 0006 1305A002 		li	a0,42
 927              	.LVL152:
 543:../src/gmt024_spi.c **** 	unsigned char temp_data;
 928              		.loc 1 543 0
 929 000a 06D6     		sw	ra,44(sp)
 930 000c 4AD0     		sw	s2,32(sp)
 931 000e 4ECE     		sw	s3,28(sp)
 932 0010 52CC     		sw	s4,24(sp)
 933 0012 5AC8     		sw	s6,16(sp)
 934              		.cfi_offset 1, -4
 935              		.cfi_offset 18, -16
 936              		.cfi_offset 19, -20
 937              		.cfi_offset 20, -24
 938              		.cfi_offset 22, -32
 939 0014 2E8A     		mv	s4,a1
 940 0016 5EC6     		sw	s7,12(sp)
 941 0018 22D4     		sw	s0,40(sp)
 942 001a 26D2     		sw	s1,36(sp)
 943              		.cfi_offset 23, -36
 944              		.cfi_offset 8, -8
 945              		.cfi_offset 9, -12
 946              		.loc 1 546 0
 947 001c 97000000 		call	TFT_SEND_CMD
 947      E7800000 
 948              	.LVL153:
 547:../src/gmt024_spi.c ****   TFT_SEND_DATA(0x00);    //start column
 949              		.loc 1 547 0
 950 0024 0145     		li	a0,0
 951 0026 97000000 		call	TFT_SEND_DATA
 951      E7800000 
 952              	.LVL154:
 548:../src/gmt024_spi.c ****   TFT_SEND_DATA(0x00);
 953              		.loc 1 548 0
 954 002e 0145     		li	a0,0
 955 0030 97000000 		call	TFT_SEND_DATA
 955      E7800000 
 956              	.LVL155:
 549:../src/gmt024_spi.c ****   TFT_SEND_DATA(0x00);    //end column
 957              		.loc 1 549 0
 958 0038 0145     		li	a0,0
 959 003a 97000000 		call	TFT_SEND_DATA
 959      E7800000 
 960              	.LVL156:
 550:../src/gmt024_spi.c ****   TFT_SEND_DATA(0xF0);
 961              		.loc 1 550 0
 962 0042 1305000F 		li	a0,240
 963 0046 97000000 		call	TFT_SEND_DATA
 963      E7800000 
 964              	.LVL157:
 551:../src/gmt024_spi.c **** 
 552:../src/gmt024_spi.c ****   TFT_SEND_CMD(0x2b);     //Row address set
 965              		.loc 1 552 0
 966 004e 1305B002 		li	a0,43
 967 0052 97000000 		call	TFT_SEND_CMD
 967      E7800000 
 968              	.LVL158:
 553:../src/gmt024_spi.c ****   TFT_SEND_DATA(0x00);    //start row
 969              		.loc 1 553 0
 970 005a 0145     		li	a0,0
 971 005c 97000000 		call	TFT_SEND_DATA
 971      E7800000 
 972              	.LVL159:
 554:../src/gmt024_spi.c ****   TFT_SEND_DATA(0x00);
 973              		.loc 1 554 0
 974 0064 0145     		li	a0,0
 975 0066 97000000 		call	TFT_SEND_DATA
 975      E7800000 
 976              	.LVL160:
 555:../src/gmt024_spi.c ****   TFT_SEND_DATA(0x01);    //end row
 977              		.loc 1 555 0
 978 006e 0545     		li	a0,1
 979 0070 97000000 		call	TFT_SEND_DATA
 979      E7800000 
 980              	.LVL161:
 556:../src/gmt024_spi.c ****   TFT_SEND_DATA(0x40);
 981              		.loc 1 556 0
 982 0078 13050004 		li	a0,64
 983 007c 97000000 		call	TFT_SEND_DATA
 983      E7800000 
 984              	.LVL162:
 557:../src/gmt024_spi.c ****   TFT_SEND_CMD(0x2C);     //Memory write
 558:../src/gmt024_spi.c ****     for(ROW=0; ROW<TFT_LINE_NUMBER; ROW++)             //ROW loop
 559:../src/gmt024_spi.c ****       {
 560:../src/gmt024_spi.c ****     	temp_data = OSP_READ();
 561:../src/gmt024_spi.c ****           for(column=0;column<TFT_COLUMN_NUMBER;column++)  //column loop
 562:../src/gmt024_spi.c ****             {
 563:../src/gmt024_spi.c ****               if(column == temp_data)
 564:../src/gmt024_spi.c ****               {
 565:../src/gmt024_spi.c ****       			TFT_SEND_DATA(color>>8);
 566:../src/gmt024_spi.c ****       			TFT_SEND_DATA(color);
 567:../src/gmt024_spi.c ****               }else
 568:../src/gmt024_spi.c ****               {
 569:../src/gmt024_spi.c ****         	    TFT_SEND_DATA(colorn>>8);
 985              		.loc 1 569 0
 986 0084 13598A00 		srli	s2,s4,8
 565:../src/gmt024_spi.c ****       			TFT_SEND_DATA(color);
 987              		.loc 1 565 0
 988 0088 13DB8A00 		srli	s6,s5,8
 557:../src/gmt024_spi.c ****   TFT_SEND_CMD(0x2C);     //Memory write
 989              		.loc 1 557 0
 990 008c 1305C002 		li	a0,44
 991 0090 97000000 		call	TFT_SEND_CMD
 991      E7800000 
 992              	.LVL163:
 993              		.loc 1 569 0
 994 0098 1379F90F 		andi	s2,s2,0xff
 565:../src/gmt024_spi.c ****       			TFT_SEND_DATA(color);
 995              		.loc 1 565 0
 996 009c 137BFB0F 		andi	s6,s6,0xff
 997 00a0 930B0014 		li	s7,320
 570:../src/gmt024_spi.c ****         	    TFT_SEND_DATA(colorn);
 998              		.loc 1 570 0
 999 00a4 137AFA0F 		andi	s4,s4,0xff
 1000              	.LVL164:
 566:../src/gmt024_spi.c ****               }else
 1001              		.loc 1 566 0
 1002 00a8 93FAFA0F 		andi	s5,s5,0xff
 1003              	.LVL165:
 561:../src/gmt024_spi.c ****             {
 1004              		.loc 1 561 0
 1005 00ac 9309000F 		li	s3,240
 1006              	.LVL166:
 1007              	.L44:
 560:../src/gmt024_spi.c ****           for(column=0;column<TFT_COLUMN_NUMBER;column++)  //column loop
 1008              		.loc 1 560 0
 1009 00b0 97000000 		call	OSP_READ
 1009      E7800000 
 1010              	.LVL167:
 1011 00b8 AA84     		mv	s1,a0
 1012              	.LVL168:
 561:../src/gmt024_spi.c ****             {
 1013              		.loc 1 561 0
 1014 00ba 0144     		li	s0,0
 1015 00bc 29A8     		j	.L43
 1016              	.LVL169:
 1017              	.L41:
 569:../src/gmt024_spi.c ****         	    TFT_SEND_DATA(colorn);
 1018              		.loc 1 569 0
 1019 00be 97000000 		call	TFT_SEND_DATA
 1019      E7800000 
 1020              	.LVL170:
 1021              		.loc 1 570 0
 1022 00c6 5285     		mv	a0,s4
 561:../src/gmt024_spi.c ****             {
 1023              		.loc 1 561 0
 1024 00c8 0504     		addi	s0,s0,1
 1025              	.LVL171:
 1026              		.loc 1 570 0
 1027 00ca 97000000 		call	TFT_SEND_DATA
 1027      E7800000 
 1028              	.LVL172:
 561:../src/gmt024_spi.c ****             {
 1029              		.loc 1 561 0
 1030 00d2 63023403 		beq	s0,s3,.L48
 1031              	.LVL173:
 1032              	.L43:
 569:../src/gmt024_spi.c ****         	    TFT_SEND_DATA(colorn);
 1033              		.loc 1 569 0
 1034 00d6 4A85     		mv	a0,s2
 563:../src/gmt024_spi.c ****               {
 1035              		.loc 1 563 0
 1036 00d8 E39384FE 		bne	s1,s0,.L41
 565:../src/gmt024_spi.c ****       			TFT_SEND_DATA(color);
 1037              		.loc 1 565 0
 1038 00dc 5A85     		mv	a0,s6
 1039 00de 97000000 		call	TFT_SEND_DATA
 1039      E7800000 
 1040              	.LVL174:
 566:../src/gmt024_spi.c ****               }else
 1041              		.loc 1 566 0
 1042 00e6 5685     		mv	a0,s5
 561:../src/gmt024_spi.c ****             {
 1043              		.loc 1 561 0
 1044 00e8 0504     		addi	s0,s0,1
 1045              	.LVL175:
 566:../src/gmt024_spi.c ****               }else
 1046              		.loc 1 566 0
 1047 00ea 97000000 		call	TFT_SEND_DATA
 1047      E7800000 
 1048              	.LVL176:
 561:../src/gmt024_spi.c ****             {
 1049              		.loc 1 561 0
 1050 00f2 E31234FF 		bne	s0,s3,.L43
 1051              	.L48:
 1052              	.LVL177:
 1053 00f6 FD1B     		addi	s7,s7,-1
 1054              	.LVL178:
 558:../src/gmt024_spi.c ****       {
 1055              		.loc 1 558 0 discriminator 2
 1056 00f8 E39C0BFA 		bnez	s7,.L44
 571:../src/gmt024_spi.c ****               }
 572:../src/gmt024_spi.c ****             }
 573:../src/gmt024_spi.c ****       }
 574:../src/gmt024_spi.c ****   }
 1057              		.loc 1 574 0
 1058 00fc B250     		lw	ra,44(sp)
 1059              		.cfi_restore 1
 1060 00fe 2254     		lw	s0,40(sp)
 1061              		.cfi_restore 8
 1062              	.LVL179:
 1063 0100 9254     		lw	s1,36(sp)
 1064              		.cfi_restore 9
 1065              	.LVL180:
 1066 0102 0259     		lw	s2,32(sp)
 1067              		.cfi_restore 18
 1068 0104 F249     		lw	s3,28(sp)
 1069              		.cfi_restore 19
 1070 0106 624A     		lw	s4,24(sp)
 1071              		.cfi_restore 20
 1072 0108 D24A     		lw	s5,20(sp)
 1073              		.cfi_restore 21
 1074 010a 424B     		lw	s6,16(sp)
 1075              		.cfi_restore 22
 1076 010c B24B     		lw	s7,12(sp)
 1077              		.cfi_restore 23
 1078              	.LVL181:
 1079 010e 4561     		addi	sp,sp,48
 1080              		.cfi_def_cfa_offset 0
 1081 0110 8280     		jr	ra
 1082              		.cfi_endproc
 1083              	.LFE11:
 1085              		.globl	chines_word
 1086              		.section	.rodata.chines_word,"a",@progbits
 1087              		.align	2
 1090              	chines_word:
 1091 0000 00       		.byte	0
 1092 0001 00       		.byte	0
 1093 0002 02       		.byte	2
 1094 0003 80       		.byte	-128
 1095 0004 FA       		.byte	-6
 1096 0005 83       		.byte	-125
 1097 0006 4A       		.byte	74
 1098 0007 82       		.byte	-126
 1099 0008 4A       		.byte	74
 1100 0009 42       		.byte	66
 1101 000a 4A       		.byte	74
 1102 000b 42       		.byte	66
 1103 000c FE       		.byte	-2
 1104 000d 2F       		.byte	47
 1105 000e 4A       		.byte	74
 1106 000f 12       		.byte	18
 1107 0010 4A       		.byte	74
 1108 0011 2A       		.byte	42
 1109 0012 4A       		.byte	74
 1110 0013 46       		.byte	70
 1111 0014 FA       		.byte	-6
 1112 0015 83       		.byte	-125
 1113 0016 00       		.byte	0
 1114 0017 80       		.byte	-128
 1115 0018 07       		.byte	7
 1116 0019 00       		.byte	0
 1117 001a F8       		.byte	-8
 1118 001b FF       		.byte	-1
 1119 001c 60       		.byte	96
 1120 001d 00       		.byte	0
 1121 001e 80       		.byte	-128
 1122 001f 00       		.byte	0
 1123 0020 00       		.byte	0
 1124 0021 00       		.byte	0
 1125 0022 04       		.byte	4
 1126 0023 71       		.byte	113
 1127 0024 54       		.byte	84
 1128 0025 95       		.byte	-107
 1129 0026 54       		.byte	84
 1130 0027 5D       		.byte	93
 1131 0028 56       		.byte	86
 1132 0029 15       		.byte	21
 1133 002a FD       		.byte	-3
 1134 002b 05       		.byte	5
 1135 002c 54       		.byte	84
 1136 002d 05       		.byte	5
 1137 002e 57       		.byte	87
 1138 002f 1D       		.byte	29
 1139 0030 FC       		.byte	-4
 1140 0031 27       		.byte	39
 1141 0032 08       		.byte	8
 1142 0033 44       		.byte	68
 1143 0034 90       		.byte	-112
 1144 0035 80       		.byte	-128
 1145 0036 10       		.byte	16
 1146 0037 01       		.byte	1
 1147 0038 FF       		.byte	-1
 1148 0039 7F       		.byte	127
 1149 003a 10       		.byte	16
 1150 003b 82       		.byte	-126
 1151 003c 10       		.byte	16
 1152 003d 44       		.byte	68
 1153 003e 10       		.byte	16
 1154 003f 04       		.byte	4
 1155 0040 00       		.byte	0
 1156 0041 00       		.byte	0
 1157 0042 10       		.byte	16
 1158 0043 F8       		.byte	-8
 1159 0044 16       		.byte	22
 1160 0045 40       		.byte	64
 1161 0046 11       		.byte	17
 1162 0047 20       		.byte	32
 1163 0048 10       		.byte	16
 1164 0049 10       		.byte	16
 1165 004a 10       		.byte	16
 1166 004b 0C       		.byte	12
 1167 004c FF       		.byte	-1
 1168 004d 03       		.byte	3
 1169 004e 10       		.byte	16
 1170 004f 00       		.byte	0
 1171 0050 10       		.byte	16
 1172 0051 10       		.byte	16
 1173 0052 90       		.byte	-112
 1174 0053 10       		.byte	16
 1175 0054 90       		.byte	-112
 1176 0055 10       		.byte	16
 1177 0056 90       		.byte	-112
 1178 0057 3F       		.byte	63
 1179 0058 90       		.byte	-112
 1180 0059 20       		.byte	32
 1181 005a 90       		.byte	-112
 1182 005b 60       		.byte	96
 1183 005c 10       		.byte	16
 1184 005d 20       		.byte	32
 1185 005e 10       		.byte	16
 1186 005f 00       		.byte	0
 1187 0060 00       		.byte	0
 1188 0061 00       		.byte	0
 1189 0062 00       		.byte	0
 1190 0063 00       		.byte	0
 1191 0064 00       		.byte	0
 1192 0065 00       		.byte	0
 1193 0066 00       		.byte	0
 1194 0067 03       		.byte	3
 1195 0068 04       		.byte	4
 1196 0069 05       		.byte	5
 1197 006a 0C       		.byte	12
 1198 006b 09       		.byte	9
 1199 006c 54       		.byte	84
 1200 006d 11       		.byte	17
 1201 006e A4       		.byte	-92
 1202 006f 21       		.byte	33
 1203 0070 44       		.byte	68
 1204 0071 31       		.byte	49
 1205 0072 47       		.byte	71
 1206 0073 4A       		.byte	74
 1207 0074 A4       		.byte	-92
 1208 0075 44       		.byte	68
 1209 0076 98       		.byte	-104
 1210 0077 44       		.byte	68
 1211 0078 10       		.byte	16
 1212 0079 89       		.byte	-119
 1213 007a 10       		.byte	16
 1214 007b 89       		.byte	-119
 1215 007c 00       		.byte	0
 1216 007d 81       		.byte	-127
 1217 007e 00       		.byte	0
 1218 007f 00       		.byte	0
 1219 0080 00       		.byte	0
 1220 0081 00       		.byte	0
 1221 0082 00       		.byte	0
 1222 0083 00       		.byte	0
 1223 0084 F0       		.byte	-16
 1224 0085 3F       		.byte	63
 1225 0086 10       		.byte	16
 1226 0087 40       		.byte	64
 1227 0088 10       		.byte	16
 1228 0089 80       		.byte	-128
 1229 008a 10       		.byte	16
 1230 008b 40       		.byte	64
 1231 008c FF       		.byte	-1
 1232 008d 01       		.byte	1
 1233 008e 10       		.byte	16
 1234 008f 0E       		.byte	14
 1235 0090 10       		.byte	16
 1236 0091 30       		.byte	48
 1237 0092 08       		.byte	8
 1238 0093 48       		.byte	72
 1239 0094 08       		.byte	8
 1240 0095 88       		.byte	-120
 1241 0096 08       		.byte	8
 1242 0097 08       		.byte	8
 1243 0098 F8       		.byte	-8
 1244 0099 1F       		.byte	31
 1245 009a 08       		.byte	8
 1246 009b 10       		.byte	16
 1247 009c 08       		.byte	8
 1248 009d 30       		.byte	48
 1249 009e 08       		.byte	8
 1250 009f 10       		.byte	16
 1251 00a0 00       		.byte	0
 1252 00a1 00       		.byte	0
 1253 00a2 E0       		.byte	-32
 1254 00a3 E0       		.byte	-32
 1255 00a4 82       		.byte	-126
 1256 00a5 82       		.byte	-126
 1257 00a6 84       		.byte	-124
 1258 00a7 84       		.byte	-124
 1259 00a8 88       		.byte	-120
 1260 00a9 88       		.byte	-120
 1261 00aa 88       		.byte	-120
 1262 00ab 88       		.byte	-120
 1263 00ac 7F       		.byte	127
 1264 00ad 7E       		.byte	126
 1265 00ae 00       		.byte	0
 1266 00af 00       		.byte	0
 1267 00b0 18       		.byte	24
 1268 00b1 00       		.byte	0
 1269 00b2 CC       		.byte	-52
 1270 00b3 7F       		.byte	127
 1271 00b4 4A       		.byte	74
 1272 00b5 92       		.byte	-110
 1273 00b6 48       		.byte	72
 1274 00b7 52       		.byte	82
 1275 00b8 49       		.byte	73
 1276 00b9 12       		.byte	18
 1277 00ba 4A       		.byte	74
 1278 00bb 12       		.byte	18
 1279 00bc CC       		.byte	-52
 1280 00bd FF       		.byte	-1
 1281 00be 08       		.byte	8
 1282 00bf 00       		.byte	0
 1283 00c0 00       		.byte	0
 1284 00c1 00       		.byte	0
 1285 00c2 00       		.byte	0
 1286 00c3 80       		.byte	-128
 1287 00c4 00       		.byte	0
 1288 00c5 80       		.byte	-128
 1289 00c6 1E       		.byte	30
 1290 00c7 40       		.byte	64
 1291 00c8 E0       		.byte	-32
 1292 00c9 20       		.byte	32
 1293 00ca 00       		.byte	0
 1294 00cb 13       		.byte	19
 1295 00cc 06       		.byte	6
 1296 00cd 0C       		.byte	12
 1297 00ce 01       		.byte	1
 1298 00cf 13       		.byte	19
 1299 00d0 E0       		.byte	-32
 1300 00d1 20       		.byte	32
 1301 00d2 1C       		.byte	28
 1302 00d3 40       		.byte	64
 1303 00d4 00       		.byte	0
 1304 00d5 80       		.byte	-128
 1305 00d6 07       		.byte	7
 1306 00d7 00       		.byte	0
 1307 00d8 F8       		.byte	-8
 1308 00d9 FF       		.byte	-1
 1309 00da 60       		.byte	96
 1310 00db 00       		.byte	0
 1311 00dc 80       		.byte	-128
 1312 00dd 00       		.byte	0
 1313 00de 00       		.byte	0
 1314 00df 01       		.byte	1
 1315 00e0 00       		.byte	0
 1316 00e1 00       		.byte	0
 1317 00e2 80       		.byte	-128
 1318 00e3 08       		.byte	8
 1319 00e4 9E       		.byte	-98
 1320 00e5 F8       		.byte	-8
 1321 00e6 92       		.byte	-110
 1322 00e7 94       		.byte	-108
 1323 00e8 D2       		.byte	-46
 1324 00e9 94       		.byte	-108
 1325 00ea B2       		.byte	-78
 1326 00eb 92       		.byte	-110
 1327 00ec 9E       		.byte	-98
 1328 00ed F2       		.byte	-14
 1329 00ee 80       		.byte	-128
 1330 00ef 01       		.byte	1
 1331 00f0 E0       		.byte	-32
 1332 00f1 00       		.byte	0
 1333 00f2 9E       		.byte	-98
 1334 00f3 F1       		.byte	-15
 1335 00f4 92       		.byte	-110
 1336 00f5 92       		.byte	-110
 1337 00f6 92       		.byte	-110
 1338 00f7 92       		.byte	-110
 1339 00f8 92       		.byte	-110
 1340 00f9 94       		.byte	-108
 1341 00fa 9E       		.byte	-98
 1342 00fb F4       		.byte	-12
 1343 00fc 80       		.byte	-128
 1344 00fd 08       		.byte	8
 1345 00fe 80       		.byte	-128
 1346 00ff 08       		.byte	8
 1347 0100 00       		.byte	0
 1348 0101 00       		.byte	0
 1349 0102 40       		.byte	64
 1350 0103 30       		.byte	48
 1351 0104 40       		.byte	64
 1352 0105 08       		.byte	8
 1353 0106 42       		.byte	66
 1354 0107 04       		.byte	4
 1355 0108 42       		.byte	66
 1356 0109 02       		.byte	2
 1357 010a 42       		.byte	66
 1358 010b 00       		.byte	0
 1359 010c 42       		.byte	66
 1360 010d 00       		.byte	0
 1361 010e 42       		.byte	66
 1362 010f 00       		.byte	0
 1363 0110 C2       		.byte	-62
 1364 0111 7F       		.byte	127
 1365 0112 42       		.byte	66
 1366 0113 80       		.byte	-128
 1367 0114 42       		.byte	66
 1368 0115 40       		.byte	64
 1369 0116 42       		.byte	66
 1370 0117 00       		.byte	0
 1371 0118 42       		.byte	66
 1372 0119 06       		.byte	6
 1373 011a 42       		.byte	66
 1374 011b 08       		.byte	8
 1375 011c 40       		.byte	64
 1376 011d 10       		.byte	16
 1377 011e 40       		.byte	64
 1378 011f 20       		.byte	32
 1379 0120 00       		.byte	0
 1380 0121 00       		.byte	0
 1381 0122 18       		.byte	24
 1382 0123 80       		.byte	-128
 1383 0124 A8       		.byte	-88
 1384 0125 81       		.byte	-127
 1385 0126 88       		.byte	-120
 1386 0127 46       		.byte	70
 1387 0128 88       		.byte	-120
 1388 0129 28       		.byte	40
 1389 012a FF       		.byte	-1
 1390 012b 10       		.byte	16
 1391 012c 88       		.byte	-120
 1392 012d 2C       		.byte	44
 1393 012e 88       		.byte	-120
 1394 012f 43       		.byte	67
 1395 0130 88       		.byte	-120
 1396 0131 80       		.byte	-128
 1397 0132 F8       		.byte	-8
 1398 0133 1F       		.byte	31
 1399 0134 00       		.byte	0
 1400 0135 60       		.byte	96
 1401 0136 C0       		.byte	-64
 1402 0137 80       		.byte	-128
 1403 0138 0C       		.byte	12
 1404 0139 03       		.byte	3
 1405 013a 02       		.byte	2
 1406 013b 7C       		.byte	124
 1407 013c 60       		.byte	96
 1408 013d 04       		.byte	4
 1409 013e 10       		.byte	16
 1410 013f 04       		.byte	4
 1411 0140 00       		.byte	0
 1412 0141 00       		.byte	0
 1413 0142 80       		.byte	-128
 1414 0143 08       		.byte	8
 1415 0144 9E       		.byte	-98
 1416 0145 F8       		.byte	-8
 1417 0146 92       		.byte	-110
 1418 0147 94       		.byte	-108
 1419 0148 D2       		.byte	-46
 1420 0149 94       		.byte	-108
 1421 014a B2       		.byte	-78
 1422 014b 92       		.byte	-110
 1423 014c 9E       		.byte	-98
 1424 014d F2       		.byte	-14
 1425 014e 80       		.byte	-128
 1426 014f 01       		.byte	1
 1427 0150 E0       		.byte	-32
 1428 0151 00       		.byte	0
 1429 0152 9E       		.byte	-98
 1430 0153 F1       		.byte	-15
 1431 0154 92       		.byte	-110
 1432 0155 92       		.byte	-110
 1433 0156 92       		.byte	-110
 1434 0157 92       		.byte	-110
 1435 0158 92       		.byte	-110
 1436 0159 94       		.byte	-108
 1437 015a 9E       		.byte	-98
 1438 015b F4       		.byte	-12
 1439 015c 80       		.byte	-128
 1440 015d 08       		.byte	8
 1441 015e 80       		.byte	-128
 1442 015f 08       		.byte	8
 1443 0160 00       		.byte	0
 1444 0161 00       		.byte	0
 1445 0162 00       		.byte	0
 1446 0163 40       		.byte	64
 1447 0164 1E       		.byte	30
 1448 0165 40       		.byte	64
 1449 0166 D2       		.byte	-46
 1450 0167 40       		.byte	64
 1451 0168 52       		.byte	82
 1452 0169 41       		.byte	65
 1453 016a 5E       		.byte	94
 1454 016b 42       		.byte	66
 1455 016c 52       		.byte	82
 1456 016d 44       		.byte	68
 1457 016e 7E       		.byte	126
 1458 016f 4A       		.byte	74
 1459 0170 52       		.byte	82
 1460 0171 49       		.byte	73
 1461 0172 92       		.byte	-110
 1462 0173 50       		.byte	80
 1463 0174 1E       		.byte	30
 1464 0175 51       		.byte	81
 1465 0176 00       		.byte	0
 1466 0177 50       		.byte	80
 1467 0178 00       		.byte	0
 1468 0179 20       		.byte	32
 1469 017a CC       		.byte	-52
 1470 017b 1F       		.byte	31
 1471 017c 42       		.byte	66
 1472 017d 20       		.byte	32
 1473 017e 40       		.byte	64
 1474 017f 40       		.byte	64
 1475 0180 00       		.byte	0
 1476 0181 00       		.byte	0
 1477 0182 40       		.byte	64
 1478 0183 10       		.byte	16
 1479 0184 40       		.byte	64
 1480 0185 10       		.byte	16
 1481 0186 DE       		.byte	-34
 1482 0187 FF       		.byte	-1
 1483 0188 52       		.byte	82
 1484 0189 15       		.byte	21
 1485 018a 52       		.byte	82
 1486 018b 15       		.byte	21
 1487 018c 52       		.byte	82
 1488 018d 25       		.byte	37
 1489 018e 52       		.byte	82
 1490 018f 25       		.byte	37
 1491 0190 DE       		.byte	-34
 1492 0191 3F       		.byte	63
 1493 0192 40       		.byte	64
 1494 0193 20       		.byte	32
 1495 0194 C8       		.byte	-56
 1496 0195 24       		.byte	36
 1497 0196 88       		.byte	-120
 1498 0197 04       		.byte	4
 1499 0198 E8       		.byte	-24
 1500 0199 FF       		.byte	-1
 1501 019a 8F       		.byte	-113
 1502 019b 08       		.byte	8
 1503 019c B8       		.byte	-72
 1504 019d 18       		.byte	24
 1505 019e C8       		.byte	-56
 1506 019f 08       		.byte	8
 1507 01a0 00       		.byte	0
 1508 01a1 00       		.byte	0
 1509 01a2 80       		.byte	-128
 1510 01a3 00       		.byte	0
 1511 01a4 40       		.byte	64
 1512 01a5 00       		.byte	0
 1513 01a6 20       		.byte	32
 1514 01a7 00       		.byte	0
 1515 01a8 10       		.byte	16
 1516 01a9 00       		.byte	0
 1517 01aa 8C       		.byte	-116
 1518 01ab 3F       		.byte	63
 1519 01ac 83       		.byte	-125
 1520 01ad 40       		.byte	64
 1521 01ae 80       		.byte	-128
 1522 01af 80       		.byte	-128
 1523 01b0 80       		.byte	-128
 1524 01b1 40       		.byte	64
 1525 01b2 80       		.byte	-128
 1526 01b3 00       		.byte	0
 1527 01b4 86       		.byte	-122
 1528 01b5 07       		.byte	7
 1529 01b6 88       		.byte	-120
 1530 01b7 18       		.byte	24
 1531 01b8 90       		.byte	-112
 1532 01b9 20       		.byte	32
 1533 01ba 20       		.byte	32
 1534 01bb 40       		.byte	64
 1535 01bc 40       		.byte	64
 1536 01bd 80       		.byte	-128
 1537 01be 80       		.byte	-128
 1538 01bf 00       		.byte	0
 1539 01c0 00       		.byte	0
 1540 01c1 00       		.byte	0
 1541 01c2 40       		.byte	64
 1542 01c3 00       		.byte	0
 1543 01c4 42       		.byte	66
 1544 01c5 00       		.byte	0
 1545 01c6 43       		.byte	67
 1546 01c7 00       		.byte	0
 1547 01c8 C2       		.byte	-62
 1548 01c9 FF       		.byte	-1
 1549 01ca 44       		.byte	68
 1550 01cb 00       		.byte	0
 1551 01cc 44       		.byte	68
 1552 01cd 00       		.byte	0
 1553 01ce 44       		.byte	68
 1554 01cf 00       		.byte	0
 1555 01d0 FC       		.byte	-4
 1556 01d1 1F       		.byte	31
 1557 01d2 00       		.byte	0
 1558 01d3 60       		.byte	96
 1559 01d4 10       		.byte	16
 1560 01d5 81       		.byte	-127
 1561 01d6 90       		.byte	-112
 1562 01d7 00       		.byte	0
 1563 01d8 FF       		.byte	-1
 1564 01d9 FF       		.byte	-1
 1565 01da D0       		.byte	-48
 1566 01db 00       		.byte	0
 1567 01dc 10       		.byte	16
 1568 01dd 03       		.byte	3
 1569 01de 10       		.byte	16
 1570 01df 04       		.byte	4
 1571 01e0 00       		.byte	0
 1572 01e1 00       		.byte	0
 1573 01e2 00       		.byte	0
 1574 01e3 80       		.byte	-128
 1575 01e4 00       		.byte	0
 1576 01e5 80       		.byte	-128
 1577 01e6 1E       		.byte	30
 1578 01e7 40       		.byte	64
 1579 01e8 E0       		.byte	-32
 1580 01e9 20       		.byte	32
 1581 01ea 00       		.byte	0
 1582 01eb 13       		.byte	19
 1583 01ec 06       		.byte	6
 1584 01ed 0C       		.byte	12
 1585 01ee 01       		.byte	1
 1586 01ef 13       		.byte	19
 1587 01f0 E0       		.byte	-32
 1588 01f1 20       		.byte	32
 1589 01f2 1C       		.byte	28
 1590 01f3 40       		.byte	64
 1591 01f4 00       		.byte	0
 1592 01f5 80       		.byte	-128
 1593 01f6 07       		.byte	7
 1594 01f7 00       		.byte	0
 1595 01f8 F8       		.byte	-8
 1596 01f9 FF       		.byte	-1
 1597 01fa 60       		.byte	96
 1598 01fb 00       		.byte	0
 1599 01fc 80       		.byte	-128
 1600 01fd 00       		.byte	0
 1601 01fe 00       		.byte	0
 1602 01ff 01       		.byte	1
 1603 0200 00       		.byte	0
 1604 0201 00       		.byte	0
 1605 0202 04       		.byte	4
 1606 0203 00       		.byte	0
 1607 0204 24       		.byte	36
 1608 0205 F9       		.byte	-7
 1609 0206 24       		.byte	36
 1610 0207 49       		.byte	73
 1611 0208 24       		.byte	36
 1612 0209 49       		.byte	73
 1613 020a 26       		.byte	38
 1614 020b 49       		.byte	73
 1615 020c 25       		.byte	37
 1616 020d 49       		.byte	73
 1617 020e 24       		.byte	36
 1618 020f 49       		.byte	73
 1619 0210 24       		.byte	36
 1620 0211 F9       		.byte	-7
 1621 0212 04       		.byte	4
 1622 0213 00       		.byte	0
 1623 0214 00       		.byte	0
 1624 0215 00       		.byte	0
 1625 0216 07       		.byte	7
 1626 0217 00       		.byte	0
 1627 0218 F8       		.byte	-8
 1628 0219 FF       		.byte	-1
 1629 021a 60       		.byte	96
 1630 021b 00       		.byte	0
 1631 021c 80       		.byte	-128
 1632 021d 00       		.byte	0
 1633 021e 00       		.byte	0
 1634 021f 01       		.byte	1
 1635 0220 00       		.byte	0
 1636 0221 00       		.byte	0
 1637 0222 80       		.byte	-128
 1638 0223 00       		.byte	0
 1639 0224 80       		.byte	-128
 1640 0225 00       		.byte	0
 1641 0226 80       		.byte	-128
 1642 0227 00       		.byte	0
 1643 0228 BE       		.byte	-66
 1644 0229 3C       		.byte	60
 1645 022a A2       		.byte	-94
 1646 022b 44       		.byte	68
 1647 022c A2       		.byte	-94
 1648 022d 84       		.byte	-124
 1649 022e A2       		.byte	-94
 1650 022f 44       		.byte	68
 1651 0230 A2       		.byte	-94
 1652 0231 04       		.byte	4
 1653 0232 A2       		.byte	-94
 1654 0233 04       		.byte	4
 1655 0234 A2       		.byte	-94
 1656 0235 04       		.byte	4
 1657 0236 A2       		.byte	-94
 1658 0237 05       		.byte	5
 1659 0238 BE       		.byte	-66
 1660 0239 06       		.byte	6
 1661 023a 80       		.byte	-128
 1662 023b 00       		.byte	0
 1663 023c 80       		.byte	-128
 1664 023d 00       		.byte	0
 1665 023e 80       		.byte	-128
 1666 023f 00       		.byte	0
 1667 0240 00       		.byte	0
 1668 0241 00       		.byte	0
 1669 0242 00       		.byte	0
 1670 0243 80       		.byte	-128
 1671 0244 10       		.byte	16
 1672 0245 80       		.byte	-128
 1673 0246 94       		.byte	-108
 1674 0247 43       		.byte	67
 1675 0248 92       		.byte	-110
 1676 0249 44       		.byte	68
 1677 024a 90       		.byte	-112
 1678 024b 28       		.byte	40
 1679 024c 90       		.byte	-112
 1680 024d 10       		.byte	16
 1681 024e 90       		.byte	-112
 1682 024f 28       		.byte	40
 1683 0250 97       		.byte	-105
 1684 0251 46       		.byte	70
 1685 0252 B8       		.byte	-72
 1686 0253 41       		.byte	65
 1687 0254 D0       		.byte	-48
 1688 0255 80       		.byte	-128
 1689 0256 10       		.byte	16
 1690 0257 83       		.byte	-125
 1691 0258 16       		.byte	22
 1692 0259 8C       		.byte	-116
 1693 025a 18       		.byte	24
 1694 025b 10       		.byte	16
 1695 025c 00       		.byte	0
 1696 025d 20       		.byte	32
 1697 025e 00       		.byte	0
 1698 025f 00       		.byte	0
 1699 0260 00       		.byte	0
 1700 0261 00       		.byte	0
 1701 0262 00       		.byte	0
 1702 0263 40       		.byte	64
 1703 0264 10       		.byte	16
 1704 0265 40       		.byte	64
 1705 0266 10       		.byte	16
 1706 0267 42       		.byte	66
 1707 0268 10       		.byte	16
 1708 0269 42       		.byte	66
 1709 026a 10       		.byte	16
 1710 026b 42       		.byte	66
 1711 026c 10       		.byte	16
 1712 026d 42       		.byte	66
 1713 026e 10       		.byte	16
 1714 026f 42       		.byte	66
 1715 0270 FF       		.byte	-1
 1716 0271 7F       		.byte	127
 1717 0272 10       		.byte	16
 1718 0273 42       		.byte	66
 1719 0274 10       		.byte	16
 1720 0275 42       		.byte	66
 1721 0276 10       		.byte	16
 1722 0277 42       		.byte	66
 1723 0278 1E       		.byte	30
 1724 0279 42       		.byte	66
 1725 027a 30       		.byte	48
 1726 027b 42       		.byte	66
 1727 027c 40       		.byte	64
 1728 027d 40       		.byte	64
 1729 027e 80       		.byte	-128
 1730 027f 40       		.byte	64
 1731 0280 00       		.byte	0
 1732 0281 00       		.byte	0
 1733 0282 80       		.byte	-128
 1734 0283 08       		.byte	8
 1735 0284 9E       		.byte	-98
 1736 0285 F8       		.byte	-8
 1737 0286 92       		.byte	-110
 1738 0287 94       		.byte	-108
 1739 0288 D2       		.byte	-46
 1740 0289 94       		.byte	-108
 1741 028a B2       		.byte	-78
 1742 028b 92       		.byte	-110
 1743 028c 9E       		.byte	-98
 1744 028d F2       		.byte	-14
 1745 028e 80       		.byte	-128
 1746 028f 01       		.byte	1
 1747 0290 E0       		.byte	-32
 1748 0291 00       		.byte	0
 1749 0292 9E       		.byte	-98
 1750 0293 F1       		.byte	-15
 1751 0294 92       		.byte	-110
 1752 0295 92       		.byte	-110
 1753 0296 92       		.byte	-110
 1754 0297 92       		.byte	-110
 1755 0298 92       		.byte	-110
 1756 0299 94       		.byte	-108
 1757 029a 9E       		.byte	-98
 1758 029b F4       		.byte	-12
 1759 029c 80       		.byte	-128
 1760 029d 08       		.byte	8
 1761 029e 80       		.byte	-128
 1762 029f 08       		.byte	8
 1763 02a0 00       		.byte	0
 1764 02a1 00       		.byte	0
 1765 02a2 98       		.byte	-104
 1766 02a3 00       		.byte	0
 1767 02a4 A8       		.byte	-88
 1768 02a5 80       		.byte	-128
 1769 02a6 88       		.byte	-120
 1770 02a7 47       		.byte	71
 1771 02a8 88       		.byte	-120
 1772 02a9 28       		.byte	40
 1773 02aa 8E       		.byte	-114
 1774 02ab 10       		.byte	16
 1775 02ac E9       		.byte	-23
 1776 02ad 28       		.byte	40
 1777 02ae 88       		.byte	-120
 1778 02af 4B       		.byte	75
 1779 02b0 88       		.byte	-120
 1780 02b1 84       		.byte	-124
 1781 02b2 98       		.byte	-104
 1782 02b3 80       		.byte	-128
 1783 02b4 20       		.byte	32
 1784 02b5 00       		.byte	0
 1785 02b6 90       		.byte	-112
 1786 02b7 00       		.byte	0
 1787 02b8 FF       		.byte	-1
 1788 02b9 7F       		.byte	127
 1789 02ba 10       		.byte	16
 1790 02bb 81       		.byte	-127
 1791 02bc 10       		.byte	16
 1792 02bd 42       		.byte	66
 1793 02be 10       		.byte	16
 1794 02bf 02       		.byte	2
 1795 02c0 00       		.byte	0
 1796 02c1 00       		.byte	0
 1797 02c2 10       		.byte	16
 1798 02c3 44       		.byte	68
 1799 02c4 7C       		.byte	124
 1800 02c5 45       		.byte	69
 1801 02c6 54       		.byte	84
 1802 02c7 45       		.byte	69
 1803 02c8 FF       		.byte	-1
 1804 02c9 5F       		.byte	95
 1805 02ca 54       		.byte	84
 1806 02cb 45       		.byte	69
 1807 02cc 54       		.byte	84
 1808 02cd 45       		.byte	69
 1809 02ce 10       		.byte	16
 1810 02cf 44       		.byte	68
 1811 02d0 9C       		.byte	-100
 1812 02d1 27       		.byte	39
 1813 02d2 E4       		.byte	-28
 1814 02d3 18       		.byte	24
 1815 02d4 80       		.byte	-128
 1816 02d5 26       		.byte	38
 1817 02d6 24       		.byte	36
 1818 02d7 51       		.byte	81
 1819 02d8 24       		.byte	36
 1820 02d9 21       		.byte	33
 1821 02da EF       		.byte	-17
 1822 02db 7F       		.byte	127
 1823 02dc 30       		.byte	48
 1824 02dd 01       		.byte	1
 1825 02de 40       		.byte	64
 1826 02df 01       		.byte	1
 1827 02e0 00       		.byte	0
 1828 02e1 00       		.byte	0
 1829 02e2 00       		.byte	0
 1830 02e3 00       		.byte	0
 1831 02e4 00       		.byte	0
 1832 02e5 00       		.byte	0
 1833 02e6 00       		.byte	0
 1834 02e7 00       		.byte	0
 1835 02e8 00       		.byte	0
 1836 02e9 00       		.byte	0
 1837 02ea 00       		.byte	0
 1838 02eb 00       		.byte	0
 1839 02ec 00       		.byte	0
 1840 02ed 00       		.byte	0
 1841 02ee 00       		.byte	0
 1842 02ef 00       		.byte	0
 1843 02f0 00       		.byte	0
 1844 02f1 00       		.byte	0
 1845 02f2 00       		.byte	0
 1846 02f3 00       		.byte	0
 1847 02f4 00       		.byte	0
 1848 02f5 00       		.byte	0
 1849 02f6 00       		.byte	0
 1850 02f7 00       		.byte	0
 1851 02f8 00       		.byte	0
 1852 02f9 36       		.byte	54
 1853 02fa 00       		.byte	0
 1854 02fb 36       		.byte	54
 1855 02fc 00       		.byte	0
 1856 02fd 00       		.byte	0
 1857 02fe 00       		.byte	0
 1858 02ff 00       		.byte	0
 1859 0300 00       		.byte	0
 1860 0301 00       		.byte	0
 1861 0302 0C       		.byte	12
 1862 0303 04       		.byte	4
 1863 0304 14       		.byte	20
 1864 0305 04       		.byte	4
 1865 0306 05       		.byte	5
 1866 0307 02       		.byte	2
 1867 0308 55       		.byte	85
 1868 0309 02       		.byte	2
 1869 030a 55       		.byte	85
 1870 030b 19       		.byte	25
 1871 030c 55       		.byte	85
 1872 030d A9       		.byte	-87
 1873 030e 85       		.byte	-123
 1874 030f 48       		.byte	72
 1875 0310 7F       		.byte	127
 1876 0311 4C       		.byte	76
 1877 0312 85       		.byte	-123
 1878 0313 2A       		.byte	42
 1879 0314 55       		.byte	85
 1880 0315 29       		.byte	41
 1881 0316 55       		.byte	85
 1882 0317 09       		.byte	9
 1883 0318 55       		.byte	85
 1884 0319 0A       		.byte	10
 1885 031a 05       		.byte	5
 1886 031b 02       		.byte	2
 1887 031c 0C       		.byte	12
 1888 031d 04       		.byte	4
 1889 031e 10       		.byte	16
 1890 031f 04       		.byte	4
 1891 0320 00       		.byte	0
 1892 0321 00       		.byte	0
 1893 0322 80       		.byte	-128
 1894 0323 00       		.byte	0
 1895 0324 80       		.byte	-128
 1896 0325 00       		.byte	0
 1897 0326 80       		.byte	-128
 1898 0327 00       		.byte	0
 1899 0328 80       		.byte	-128
 1900 0329 00       		.byte	0
 1901 032a 80       		.byte	-128
 1902 032b 00       		.byte	0
 1903 032c 80       		.byte	-128
 1904 032d 00       		.byte	0
 1905 032e 80       		.byte	-128
 1906 032f 00       		.byte	0
 1907 0330 80       		.byte	-128
 1908 0331 00       		.byte	0
 1909 0332 80       		.byte	-128
 1910 0333 00       		.byte	0
 1911 0334 80       		.byte	-128
 1912 0335 00       		.byte	0
 1913 0336 80       		.byte	-128
 1914 0337 00       		.byte	0
 1915 0338 80       		.byte	-128
 1916 0339 00       		.byte	0
 1917 033a 80       		.byte	-128
 1918 033b 00       		.byte	0
 1919 033c 80       		.byte	-128
 1920 033d 00       		.byte	0
 1921 033e 80       		.byte	-128
 1922 033f 00       		.byte	0
 1923 0340 00       		.byte	0
 1924 0341 00       		.byte	0
 1925 0342 00       		.byte	0
 1926 0343 10       		.byte	16
 1927 0344 00       		.byte	0
 1928 0345 10       		.byte	16
 1929 0346 08       		.byte	8
 1930 0347 10       		.byte	16
 1931 0348 08       		.byte	8
 1932 0349 10       		.byte	16
 1933 034a 08       		.byte	8
 1934 034b 10       		.byte	16
 1935 034c 08       		.byte	8
 1936 034d 10       		.byte	16
 1937 034e 08       		.byte	8
 1938 034f 10       		.byte	16
 1939 0350 08       		.byte	8
 1940 0351 10       		.byte	16
 1941 0352 08       		.byte	8
 1942 0353 10       		.byte	16
 1943 0354 08       		.byte	8
 1944 0355 10       		.byte	16
 1945 0356 08       		.byte	8
 1946 0357 10       		.byte	16
 1947 0358 08       		.byte	8
 1948 0359 10       		.byte	16
 1949 035a 08       		.byte	8
 1950 035b 10       		.byte	16
 1951 035c 00       		.byte	0
 1952 035d 10       		.byte	16
 1953 035e 00       		.byte	0
 1954 035f 10       		.byte	16
 1955 0360 00       		.byte	0
 1956 0361 00       		.byte	0
 1957 0362 00       		.byte	0
 1958 0363 20       		.byte	32
 1959 0364 04       		.byte	4
 1960 0365 20       		.byte	32
 1961 0366 84       		.byte	-124
 1962 0367 20       		.byte	32
 1963 0368 84       		.byte	-124
 1964 0369 20       		.byte	32
 1965 036a 84       		.byte	-124
 1966 036b 20       		.byte	32
 1967 036c 84       		.byte	-124
 1968 036d 20       		.byte	32
 1969 036e 84       		.byte	-124
 1970 036f 20       		.byte	32
 1971 0370 84       		.byte	-124
 1972 0371 20       		.byte	32
 1973 0372 84       		.byte	-124
 1974 0373 20       		.byte	32
 1975 0374 84       		.byte	-124
 1976 0375 20       		.byte	32
 1977 0376 84       		.byte	-124
 1978 0377 20       		.byte	32
 1979 0378 84       		.byte	-124
 1980 0379 20       		.byte	32
 1981 037a 84       		.byte	-124
 1982 037b 20       		.byte	32
 1983 037c 04       		.byte	4
 1984 037d 20       		.byte	32
 1985 037e 00       		.byte	0
 1986 037f 20       		.byte	32
 1987 0380 00       		.byte	0
 1988 0381 00       		.byte	0
 1989 0382 00       		.byte	0
 1990 0383 00       		.byte	0
 1991 0384 FC       		.byte	-4
 1992 0385 7F       		.byte	127
 1993 0386 04       		.byte	4
 1994 0387 22       		.byte	34
 1995 0388 04       		.byte	4
 1996 0389 22       		.byte	34
 1997 038a 04       		.byte	4
 1998 038b 22       		.byte	34
 1999 038c FC       		.byte	-4
 2000 038d 21       		.byte	33
 2001 038e 04       		.byte	4
 2002 038f 20       		.byte	32
 2003 0390 04       		.byte	4
 2004 0391 20       		.byte	32
 2005 0392 04       		.byte	4
 2006 0393 20       		.byte	32
 2007 0394 FC       		.byte	-4
 2008 0395 20       		.byte	32
 2009 0396 04       		.byte	4
 2010 0397 23       		.byte	35
 2011 0398 04       		.byte	4
 2012 0399 24       		.byte	36
 2013 039a 04       		.byte	4
 2014 039b 28       		.byte	40
 2015 039c FC       		.byte	-4
 2016 039d 7F       		.byte	127
 2017 039e 00       		.byte	0
 2018 039f 00       		.byte	0
 2019 03a0 00       		.byte	0
 2020 03a1 00       		.byte	0
 2021 03a2 00       		.byte	0
 2022 03a3 40       		.byte	64
 2023 03a4 02       		.byte	2
 2024 03a5 40       		.byte	64
 2025 03a6 02       		.byte	2
 2026 03a7 40       		.byte	64
 2027 03a8 C2       		.byte	-62
 2028 03a9 7F       		.byte	127
 2029 03aa 42       		.byte	66
 2030 03ab 40       		.byte	64
 2031 03ac 42       		.byte	66
 2032 03ad 40       		.byte	64
 2033 03ae 42       		.byte	66
 2034 03af 40       		.byte	64
 2035 03b0 42       		.byte	66
 2036 03b1 40       		.byte	64
 2037 03b2 7E       		.byte	126
 2038 03b3 40       		.byte	64
 2039 03b4 C2       		.byte	-62
 2040 03b5 47       		.byte	71
 2041 03b6 42       		.byte	66
 2042 03b7 78       		.byte	120
 2043 03b8 42       		.byte	66
 2044 03b9 40       		.byte	64
 2045 03ba 42       		.byte	66
 2046 03bb 40       		.byte	64
 2047 03bc 02       		.byte	2
 2048 03bd 40       		.byte	64
 2049 03be 00       		.byte	0
 2050 03bf 40       		.byte	64
 2051 03c0 00       		.byte	0
 2052 03c1 00       		.byte	0
 2053 03c2 20       		.byte	32
 2054 03c3 00       		.byte	0
 2055 03c4 20       		.byte	32
 2056 03c5 60       		.byte	96
 2057 03c6 20       		.byte	32
 2058 03c7 18       		.byte	24
 2059 03c8 20       		.byte	32
 2060 03c9 04       		.byte	4
 2061 03ca 20       		.byte	32
 2062 03cb 02       		.byte	2
 2063 03cc 20       		.byte	32
 2064 03cd 01       		.byte	1
 2065 03ce 2C       		.byte	44
 2066 03cf 00       		.byte	0
 2067 03d0 22       		.byte	34
 2068 03d1 00       		.byte	0
 2069 03d2 21       		.byte	33
 2070 03d3 00       		.byte	0
 2071 03d4 20       		.byte	32
 2072 03d5 03       		.byte	3
 2073 03d6 20       		.byte	32
 2074 03d7 0C       		.byte	12
 2075 03d8 20       		.byte	32
 2076 03d9 10       		.byte	16
 2077 03da 20       		.byte	32
 2078 03db 20       		.byte	32
 2079 03dc 20       		.byte	32
 2080 03dd 40       		.byte	64
 2081 03de 20       		.byte	32
 2082 03df 00       		.byte	0
 2083 03e0 00       		.byte	0
 2084 03e1 00       		.byte	0
 2085 03e2 00       		.byte	0
 2086 03e3 00       		.byte	0
 2087 03e4 20       		.byte	32
 2088 03e5 78       		.byte	120
 2089 03e6 20       		.byte	32
 2090 03e7 40       		.byte	64
 2091 03e8 20       		.byte	32
 2092 03e9 40       		.byte	64
 2093 03ea 20       		.byte	32
 2094 03eb 40       		.byte	64
 2095 03ec 40       		.byte	64
 2096 03ed 40       		.byte	64
 2097 03ee 40       		.byte	64
 2098 03ef 40       		.byte	64
 2099 03f0 40       		.byte	64
 2100 03f1 40       		.byte	64
 2101 03f2 FF       		.byte	-1
 2102 03f3 3F       		.byte	63
 2103 03f4 40       		.byte	64
 2104 03f5 00       		.byte	0
 2105 03f6 80       		.byte	-128
 2106 03f7 00       		.byte	0
 2107 03f8 80       		.byte	-128
 2108 03f9 00       		.byte	0
 2109 03fa 80       		.byte	-128
 2110 03fb 00       		.byte	0
 2111 03fc 80       		.byte	-128
 2112 03fd 00       		.byte	0
 2113 03fe 80       		.byte	-128
 2114 03ff 00       		.byte	0
 2115 0400 00       		.byte	0
 2116 0401 00       		.byte	0
 2117 0402 00       		.byte	0
 2118 0403 80       		.byte	-128
 2119 0404 00       		.byte	0
 2120 0405 40       		.byte	64
 2121 0406 00       		.byte	0
 2122 0407 30       		.byte	48
 2123 0408 00       		.byte	0
 2124 0409 0C       		.byte	12
 2125 040a 80       		.byte	-128
 2126 040b 03       		.byte	3
 2127 040c 7E       		.byte	126
 2128 040d 00       		.byte	0
 2129 040e 00       		.byte	0
 2130 040f 00       		.byte	0
 2131 0410 00       		.byte	0
 2132 0411 00       		.byte	0
 2133 0412 00       		.byte	0
 2134 0413 00       		.byte	0
 2135 0414 FC       		.byte	-4
 2136 0415 00       		.byte	0
 2137 0416 00       		.byte	0
 2138 0417 07       		.byte	7
 2139 0418 00       		.byte	0
 2140 0419 18       		.byte	24
 2141 041a 00       		.byte	0
 2142 041b 60       		.byte	96
 2143 041c 00       		.byte	0
 2144 041d 80       		.byte	-128
 2145 041e 00       		.byte	0
 2146 041f 00       		.byte	0
 2147 0420 00       		.byte	0
 2148 0421 00       		.byte	0
 2149 0422 00       		.byte	0
 2150 0423 78       		.byte	120
 2151 0424 00       		.byte	0
 2152 0425 40       		.byte	64
 2153 0426 00       		.byte	0
 2154 0427 40       		.byte	64
 2155 0428 00       		.byte	0
 2156 0429 40       		.byte	64
 2157 042a F0       		.byte	-16
 2158 042b 3F       		.byte	63
 2159 042c 10       		.byte	16
 2160 042d 00       		.byte	0
 2161 042e 10       		.byte	16
 2162 042f 00       		.byte	0
 2163 0430 10       		.byte	16
 2164 0431 00       		.byte	0
 2165 0432 10       		.byte	16
 2166 0433 00       		.byte	0
 2167 0434 FF       		.byte	-1
 2168 0435 00       		.byte	0
 2169 0436 10       		.byte	16
 2170 0437 07       		.byte	7
 2171 0438 10       		.byte	16
 2172 0439 18       		.byte	24
 2173 043a 10       		.byte	16
 2174 043b 20       		.byte	32
 2175 043c 10       		.byte	16
 2176 043d 40       		.byte	64
 2177 043e 00       		.byte	0
 2178 043f 80       		.byte	-128
 2179 0440 00       		.byte	0
 2180 0441 00       		.byte	0
 2181 0442 40       		.byte	64
 2182 0443 00       		.byte	0
 2183 0444 40       		.byte	64
 2184 0445 00       		.byte	0
 2185 0446 40       		.byte	64
 2186 0447 00       		.byte	0
 2187 0448 40       		.byte	64
 2188 0449 00       		.byte	0
 2189 044a 40       		.byte	64
 2190 044b 00       		.byte	0
 2191 044c 40       		.byte	64
 2192 044d 00       		.byte	0
 2193 044e 40       		.byte	64
 2194 044f 00       		.byte	0
 2195 0450 FF       		.byte	-1
 2196 0451 FF       		.byte	-1
 2197 0452 40       		.byte	64
 2198 0453 00       		.byte	0
 2199 0454 40       		.byte	64
 2200 0455 00       		.byte	0
 2201 0456 40       		.byte	64
 2202 0457 00       		.byte	0
 2203 0458 40       		.byte	64
 2204 0459 00       		.byte	0
 2205 045a 40       		.byte	64
 2206 045b 00       		.byte	0
 2207 045c 40       		.byte	64
 2208 045d 00       		.byte	0
 2209 045e 40       		.byte	64
 2210 045f 00       		.byte	0
 2211 0460 00       		.byte	0
 2212 0461 00       		.byte	0
 2213 0462 00       		.byte	0
 2214 0463 00       		.byte	0
 2215 0464 00       		.byte	0
 2216 0465 04       		.byte	4
 2217 0466 9E       		.byte	-98
 2218 0467 04       		.byte	4
 2219 0468 B2       		.byte	-78
 2220 0469 04       		.byte	4
 2221 046a D2       		.byte	-46
 2222 046b FF       		.byte	-1
 2223 046c 92       		.byte	-110
 2224 046d 04       		.byte	4
 2225 046e 92       		.byte	-110
 2226 046f 04       		.byte	4
 2227 0470 92       		.byte	-110
 2228 0471 04       		.byte	4
 2229 0472 D2       		.byte	-46
 2230 0473 1F       		.byte	31
 2231 0474 B2       		.byte	-78
 2232 0475 64       		.byte	100
 2233 0476 92       		.byte	-110
 2234 0477 84       		.byte	-124
 2235 0478 12       		.byte	18
 2236 0479 04       		.byte	4
 2237 047a FE       		.byte	-2
 2238 047b 0F       		.byte	15
 2239 047c 00       		.byte	0
 2240 047d 30       		.byte	48
 2241 047e 00       		.byte	0
 2242 047f 40       		.byte	64
 2243 0480 00       		.byte	0
 2244 0481 00       		.byte	0
 2245 0482 00       		.byte	0
 2246 0483 12       		.byte	18
 2247 0484 02       		.byte	2
 2248 0485 12       		.byte	18
 2249 0486 02       		.byte	2
 2250 0487 0A       		.byte	10
 2251 0488 FA       		.byte	-6
 2252 0489 3E       		.byte	62
 2253 048a AA       		.byte	-86
 2254 048b 4A       		.byte	74
 2255 048c AF       		.byte	-81
 2256 048d 2A       		.byte	42
 2257 048e AA       		.byte	-86
 2258 048f 0A       		.byte	10
 2259 0490 AA       		.byte	-86
 2260 0491 FE       		.byte	-2
 2261 0492 AA       		.byte	-86
 2262 0493 0A       		.byte	10
 2263 0494 AF       		.byte	-81
 2264 0495 0B       		.byte	11
 2265 0496 AA       		.byte	-86
 2266 0497 0A       		.byte	10
 2267 0498 FA       		.byte	-6
 2268 0499 7E       		.byte	126
 2269 049a 02       		.byte	2
 2270 049b 0A       		.byte	10
 2271 049c 02       		.byte	2
 2272 049d 12       		.byte	18
 2273 049e 00       		.byte	0
 2274 049f 12       		.byte	18
 2275 04a0 00       		.byte	0
 2276 04a1 00       		.byte	0
 2277 04a2 00       		.byte	0
 2278 04a3 40       		.byte	64
 2279 04a4 00       		.byte	0
 2280 04a5 40       		.byte	64
 2281 04a6 40       		.byte	64
 2282 04a7 40       		.byte	64
 2283 04a8 40       		.byte	64
 2284 04a9 40       		.byte	64
 2285 04aa 40       		.byte	64
 2286 04ab 40       		.byte	64
 2287 04ac 40       		.byte	64
 2288 04ad 40       		.byte	64
 2289 04ae 40       		.byte	64
 2290 04af 40       		.byte	64
 2291 04b0 40       		.byte	64
 2292 04b1 40       		.byte	64
 2293 04b2 FF       		.byte	-1
 2294 04b3 7F       		.byte	127
 2295 04b4 00       		.byte	0
 2296 04b5 40       		.byte	64
 2297 04b6 00       		.byte	0
 2298 04b7 40       		.byte	64
 2299 04b8 00       		.byte	0
 2300 04b9 40       		.byte	64
 2301 04ba 00       		.byte	0
 2302 04bb 40       		.byte	64
 2303 04bc 00       		.byte	0
 2304 04bd 40       		.byte	64
 2305 04be 00       		.byte	0
 2306 04bf 40       		.byte	64
 2307 04c0 00       		.byte	0
 2308 04c1 00       		.byte	0
 2309 04c2 00       		.byte	0
 2310 04c3 40       		.byte	64
 2311 04c4 10       		.byte	16
 2312 04c5 40       		.byte	64
 2313 04c6 D0       		.byte	-48
 2314 04c7 41       		.byte	65
 2315 04c8 10       		.byte	16
 2316 04c9 4E       		.byte	78
 2317 04ca 10       		.byte	16
 2318 04cb 70       		.byte	112
 2319 04cc 16       		.byte	22
 2320 04cd 40       		.byte	64
 2321 04ce 11       		.byte	17
 2322 04cf 40       		.byte	64
 2323 04d0 10       		.byte	16
 2324 04d1 5E       		.byte	94
 2325 04d2 90       		.byte	-112
 2326 04d3 41       		.byte	65
 2327 04d4 10       		.byte	16
 2328 04d5 40       		.byte	64
 2329 04d6 07       		.byte	7
 2330 04d7 40       		.byte	64
 2331 04d8 F8       		.byte	-8
 2332 04d9 FF       		.byte	-1
 2333 04da 60       		.byte	96
 2334 04db 00       		.byte	0
 2335 04dc 80       		.byte	-128
 2336 04dd 00       		.byte	0
 2337 04de 00       		.byte	0
 2338 04df 01       		.byte	1
 2339 04e0 00       		.byte	0
 2340 04e1 00       		.byte	0
 2341 04e2 00       		.byte	0
 2342 04e3 78       		.byte	120
 2343 04e4 00       		.byte	0
 2344 04e5 40       		.byte	64
 2345 04e6 00       		.byte	0
 2346 04e7 40       		.byte	64
 2347 04e8 FE       		.byte	-2
 2348 04e9 3F       		.byte	63
 2349 04ea 02       		.byte	2
 2350 04eb 00       		.byte	0
 2351 04ec 02       		.byte	2
 2352 04ed 00       		.byte	0
 2353 04ee 02       		.byte	2
 2354 04ef 00       		.byte	0
 2355 04f0 FE       		.byte	-2
 2356 04f1 1F       		.byte	31
 2357 04f2 00       		.byte	0
 2358 04f3 60       		.byte	96
 2359 04f4 10       		.byte	16
 2360 04f5 83       		.byte	-125
 2361 04f6 90       		.byte	-112
 2362 04f7 00       		.byte	0
 2363 04f8 FF       		.byte	-1
 2364 04f9 FF       		.byte	-1
 2365 04fa D0       		.byte	-48
 2366 04fb 00       		.byte	0
 2367 04fc 10       		.byte	16
 2368 04fd 03       		.byte	3
 2369 04fe 10       		.byte	16
 2370 04ff 04       		.byte	4
 2371 0500 00       		.byte	0
 2372 0501 00       		.byte	0
 2373 0502 00       		.byte	0
 2374 0503 80       		.byte	-128
 2375 0504 82       		.byte	-126
 2376 0505 42       		.byte	66
 2377 0506 92       		.byte	-110
 2378 0507 24       		.byte	36
 2379 0508 92       		.byte	-110
 2380 0509 18       		.byte	24
 2381 050a 92       		.byte	-110
 2382 050b 47       		.byte	71
 2383 050c 92       		.byte	-110
 2384 050d 80       		.byte	-128
 2385 050e 92       		.byte	-110
 2386 050f FF       		.byte	-1
 2387 0510 82       		.byte	-126
 2388 0511 00       		.byte	0
 2389 0512 FE       		.byte	-2
 2390 0513 1F       		.byte	31
 2391 0514 90       		.byte	-112
 2392 0515 60       		.byte	96
 2393 0516 10       		.byte	16
 2394 0517 81       		.byte	-127
 2395 0518 FF       		.byte	-1
 2396 0519 7F       		.byte	127
 2397 051a 10       		.byte	16
 2398 051b 82       		.byte	-126
 2399 051c 10       		.byte	16
 2400 051d 44       		.byte	68
 2401 051e 10       		.byte	16
 2402 051f 04       		.byte	4
 2403 0520 00       		.byte	0
 2404 0521 00       		.byte	0
 2405 0522 02       		.byte	2
 2406 0523 00       		.byte	0
 2407 0524 02       		.byte	2
 2408 0525 FF       		.byte	-1
 2409 0526 7A       		.byte	122
 2410 0527 49       		.byte	73
 2411 0528 4A       		.byte	74
 2412 0529 49       		.byte	73
 2413 052a 4A       		.byte	74
 2414 052b 7F       		.byte	127
 2415 052c 4A       		.byte	74
 2416 052d 49       		.byte	73
 2417 052e 7A       		.byte	122
 2418 052f 49       		.byte	73
 2419 0530 02       		.byte	2
 2420 0531 FF       		.byte	-1
 2421 0532 00       		.byte	0
 2422 0533 00       		.byte	0
 2423 0534 F8       		.byte	-8
 2424 0535 0F       		.byte	15
 2425 0536 08       		.byte	8
 2426 0537 08       		.byte	8
 2427 0538 FF       		.byte	-1
 2428 0539 FF       		.byte	-1
 2429 053a 08       		.byte	8
 2430 053b 00       		.byte	0
 2431 053c F8       		.byte	-8
 2432 053d 0F       		.byte	15
 2433 053e 00       		.byte	0
 2434 053f 00       		.byte	0
 2435 0540 00       		.byte	0
 2436 0541 00       		.byte	0
 2437 0542 02       		.byte	2
 2438 0543 80       		.byte	-128
 2439 0544 F2       		.byte	-14
 2440 0545 4F       		.byte	79
 2441 0546 12       		.byte	18
 2442 0547 20       		.byte	32
 2443 0548 12       		.byte	18
 2444 0549 10       		.byte	16
 2445 054a D6       		.byte	-42
 2446 054b 07       		.byte	7
 2447 054c 1A       		.byte	26
 2448 054d 18       		.byte	24
 2449 054e 12       		.byte	18
 2450 054f 20       		.byte	32
 2451 0550 F2       		.byte	-14
 2452 0551 4F       		.byte	79
 2453 0552 40       		.byte	64
 2454 0553 80       		.byte	-128
 2455 0554 48       		.byte	72
 2456 0555 1E       		.byte	30
 2457 0556 48       		.byte	72
 2458 0557 20       		.byte	32
 2459 0558 7F       		.byte	127
 2460 0559 4F       		.byte	79
 2461 055a 40       		.byte	64
 2462 055b 40       		.byte	64
 2463 055c 7C       		.byte	124
 2464 055d 8E       		.byte	-114
 2465 055e 40       		.byte	64
 2466 055f 90       		.byte	-112
 2467 0560 00       		.byte	0
 2468 0561 00       		.byte	0
 2469 0562 00       		.byte	0
 2470 0563 08       		.byte	8
 2471 0564 14       		.byte	20
 2472 0565 09       		.byte	9
 2473 0566 A4       		.byte	-92
 2474 0567 08       		.byte	8
 2475 0568 44       		.byte	68
 2476 0569 08       		.byte	8
 2477 056a 04       		.byte	4
 2478 056b 0B       		.byte	11
 2479 056c 94       		.byte	-108
 2480 056d 09       		.byte	9
 2481 056e 24       		.byte	36
 2482 056f 09       		.byte	9
 2483 0570 66       		.byte	102
 2484 0571 FD       		.byte	-3
 2485 0572 AD       		.byte	-83
 2486 0573 09       		.byte	9
 2487 0574 34       		.byte	52
 2488 0575 09       		.byte	9
 2489 0576 24       		.byte	36
 2490 0577 09       		.byte	9
 2491 0578 44       		.byte	68
 2492 0579 08       		.byte	8
 2493 057a A4       		.byte	-92
 2494 057b 08       		.byte	8
 2495 057c 14       		.byte	20
 2496 057d 09       		.byte	9
 2497 057e 00       		.byte	0
 2498 057f 08       		.byte	8
 2499 0580 00       		.byte	0
 2500 0581 00       		.byte	0
 2501 0582 00       		.byte	0
 2502 0583 60       		.byte	96
 2503 0584 F8       		.byte	-8
 2504 0585 33       		.byte	51
 2505 0586 08       		.byte	8
 2506 0587 29       		.byte	41
 2507 0588 08       		.byte	8
 2508 0589 21       		.byte	33
 2509 058a FF       		.byte	-1
 2510 058b 3F       		.byte	63
 2511 058c 08       		.byte	8
 2512 058d 21       		.byte	33
 2513 058e 08       		.byte	8
 2514 058f 21       		.byte	33
 2515 0590 F8       		.byte	-8
 2516 0591 63       		.byte	99
 2517 0592 00       		.byte	0
 2518 0593 20       		.byte	32
 2519 0594 E0       		.byte	-32
 2520 0595 FF       		.byte	-1
 2521 0596 2C       		.byte	44
 2522 0597 89       		.byte	-119
 2523 0598 F4       		.byte	-12
 2524 0599 3F       		.byte	63
 2525 059a 27       		.byte	39
 2526 059b 09       		.byte	9
 2527 059c EC       		.byte	-20
 2528 059d 7F       		.byte	127
 2529 059e 10       		.byte	16
 2530 059f 80       		.byte	-128
 2531 05a0 00       		.byte	0
 2532 05a1 00       		.byte	0
 2533 05a2 00       		.byte	0
 2534 05a3 80       		.byte	-128
 2535 05a4 10       		.byte	16
 2536 05a5 80       		.byte	-128
 2537 05a6 94       		.byte	-108
 2538 05a7 43       		.byte	67
 2539 05a8 92       		.byte	-110
 2540 05a9 44       		.byte	68
 2541 05aa 90       		.byte	-112
 2542 05ab 28       		.byte	40
 2543 05ac 90       		.byte	-112
 2544 05ad 10       		.byte	16
 2545 05ae 90       		.byte	-112
 2546 05af 28       		.byte	40
 2547 05b0 97       		.byte	-105
 2548 05b1 46       		.byte	70
 2549 05b2 B8       		.byte	-72
 2550 05b3 41       		.byte	65
 2551 05b4 D0       		.byte	-48
 2552 05b5 80       		.byte	-128
 2553 05b6 10       		.byte	16
 2554 05b7 83       		.byte	-125
 2555 05b8 16       		.byte	22
 2556 05b9 8C       		.byte	-116
 2557 05ba 18       		.byte	24
 2558 05bb 10       		.byte	16
 2559 05bc 00       		.byte	0
 2560 05bd 20       		.byte	32
 2561 05be 00       		.byte	0
 2562 05bf 00       		.byte	0
 2563 05c0 00       		.byte	0
 2564 05c1 00       		.byte	0
 2565 05c2 04       		.byte	4
 2566 05c3 00       		.byte	0
 2567 05c4 04       		.byte	4
 2568 05c5 FE       		.byte	-2
 2569 05c6 04       		.byte	4
 2570 05c7 82       		.byte	-126
 2571 05c8 04       		.byte	4
 2572 05c9 02       		.byte	2
 2573 05ca F4       		.byte	-12
 2574 05cb 7A       		.byte	122
 2575 05cc 94       		.byte	-108
 2576 05cd 4A       		.byte	74
 2577 05ce 94       		.byte	-108
 2578 05cf 4A       		.byte	74
 2579 05d0 96       		.byte	-106
 2580 05d1 4A       		.byte	74
 2581 05d2 95       		.byte	-107
 2582 05d3 4A       		.byte	74
 2583 05d4 94       		.byte	-108
 2584 05d5 4A       		.byte	74
 2585 05d6 F4       		.byte	-12
 2586 05d7 7A       		.byte	122
 2587 05d8 04       		.byte	4
 2588 05d9 02       		.byte	2
 2589 05da 04       		.byte	4
 2590 05db 02       		.byte	2
 2591 05dc 04       		.byte	4
 2592 05dd FE       		.byte	-2
 2593 05de 04       		.byte	4
 2594 05df 00       		.byte	0
 2595 05e0 00       		.byte	0
 2596 05e1 00       		.byte	0
 2597 05e2 80       		.byte	-128
 2598 05e3 F8       		.byte	-8
 2599 05e4 82       		.byte	-126
 2600 05e5 40       		.byte	64
 2601 05e6 83       		.byte	-125
 2602 05e7 30       		.byte	48
 2603 05e8 82       		.byte	-126
 2604 05e9 8E       		.byte	-114
 2605 05ea FE       		.byte	-2
 2606 05eb 41       		.byte	65
 2607 05ec 84       		.byte	-124
 2608 05ed 00       		.byte	0
 2609 05ee 84       		.byte	-124
 2610 05ef 20       		.byte	32
 2611 05f0 84       		.byte	-124
 2612 05f1 40       		.byte	64
 2613 05f2 FC       		.byte	-4
 2614 05f3 FF       		.byte	-1
 2615 05f4 00       		.byte	0
 2616 05f5 00       		.byte	0
 2617 05f6 07       		.byte	7
 2618 05f7 00       		.byte	0
 2619 05f8 F8       		.byte	-8
 2620 05f9 FF       		.byte	-1
 2621 05fa 60       		.byte	96
 2622 05fb 00       		.byte	0
 2623 05fc 80       		.byte	-128
 2624 05fd 00       		.byte	0
 2625 05fe 00       		.byte	0
 2626 05ff 01       		.byte	1
 2627 0600 00       		.byte	0
 2628 0601 00       		.byte	0
 2629 0602 00       		.byte	0
 2630 0603 F0       		.byte	-16
 2631 0604 00       		.byte	0
 2632 0605 80       		.byte	-128
 2633 0606 F8       		.byte	-8
 2634 0607 9F       		.byte	-97
 2635 0608 88       		.byte	-120
 2636 0609 88       		.byte	-120
 2637 060a 88       		.byte	-120
 2638 060b 88       		.byte	-120
 2639 060c 88       		.byte	-120
 2640 060d 88       		.byte	-120
 2641 060e 88       		.byte	-120
 2642 060f 88       		.byte	-120
 2643 0610 FF       		.byte	-1
 2644 0611 7F       		.byte	127
 2645 0612 88       		.byte	-120
 2646 0613 08       		.byte	8
 2647 0614 88       		.byte	-120
 2648 0615 08       		.byte	8
 2649 0616 88       		.byte	-120
 2650 0617 08       		.byte	8
 2651 0618 88       		.byte	-120
 2652 0619 08       		.byte	8
 2653 061a F8       		.byte	-8
 2654 061b 1F       		.byte	31
 2655 061c 00       		.byte	0
 2656 061d 00       		.byte	0
 2657 061e 00       		.byte	0
 2658 061f 00       		.byte	0
 2659 0620 00       		.byte	0
 2660 0621 00       		.byte	0
 2661 0622 00       		.byte	0
 2662 0623 01       		.byte	1
 2663 0624 02       		.byte	2
 2664 0625 01       		.byte	1
 2665 0626 02       		.byte	2
 2666 0627 01       		.byte	1
 2667 0628 32       		.byte	50
 2668 0629 01       		.byte	1
 2669 062a 42       		.byte	66
 2670 062b 01       		.byte	1
 2671 062c 02       		.byte	2
 2672 062d 01       		.byte	1
 2673 062e 02       		.byte	2
 2674 062f 01       		.byte	1
 2675 0630 FE       		.byte	-2
 2676 0631 FF       		.byte	-1
 2677 0632 02       		.byte	2
 2678 0633 01       		.byte	1
 2679 0634 02       		.byte	2
 2680 0635 01       		.byte	1
 2681 0636 62       		.byte	98
 2682 0637 01       		.byte	1
 2683 0638 12       		.byte	18
 2684 0639 01       		.byte	1
 2685 063a 02       		.byte	2
 2686 063b 01       		.byte	1
 2687 063c 02       		.byte	2
 2688 063d 01       		.byte	1
 2689 063e 00       		.byte	0
 2690 063f 01       		.byte	1
 2691 0640 00       		.byte	0
 2692 0641 00       		.byte	0
 2693 0642 00       		.byte	0
 2694 0643 40       		.byte	64
 2695 0644 00       		.byte	0
 2696 0645 40       		.byte	64
 2697 0646 40       		.byte	64
 2698 0647 40       		.byte	64
 2699 0648 40       		.byte	64
 2700 0649 40       		.byte	64
 2701 064a 40       		.byte	64
 2702 064b 40       		.byte	64
 2703 064c 40       		.byte	64
 2704 064d 40       		.byte	64
 2705 064e 40       		.byte	64
 2706 064f 40       		.byte	64
 2707 0650 40       		.byte	64
 2708 0651 40       		.byte	64
 2709 0652 FF       		.byte	-1
 2710 0653 7F       		.byte	127
 2711 0654 00       		.byte	0
 2712 0655 40       		.byte	64
 2713 0656 00       		.byte	0
 2714 0657 40       		.byte	64
 2715 0658 00       		.byte	0
 2716 0659 40       		.byte	64
 2717 065a 00       		.byte	0
 2718 065b 40       		.byte	64
 2719 065c 00       		.byte	0
 2720 065d 40       		.byte	64
 2721 065e 00       		.byte	0
 2722 065f 40       		.byte	64
 2723 0660 00       		.byte	0
 2724 0661 00       		.byte	0
 2725 0662 80       		.byte	-128
 2726 0663 00       		.byte	0
 2727 0664 80       		.byte	-128
 2728 0665 00       		.byte	0
 2729 0666 80       		.byte	-128
 2730 0667 00       		.byte	0
 2731 0668 80       		.byte	-128
 2732 0669 00       		.byte	0
 2733 066a FF       		.byte	-1
 2734 066b FF       		.byte	-1
 2735 066c 80       		.byte	-128
 2736 066d 00       		.byte	0
 2737 066e 82       		.byte	-126
 2738 066f 00       		.byte	0
 2739 0670 83       		.byte	-125
 2740 0671 00       		.byte	0
 2741 0672 82       		.byte	-126
 2742 0673 00       		.byte	0
 2743 0674 FE       		.byte	-2
 2744 0675 07       		.byte	7
 2745 0676 84       		.byte	-124
 2746 0677 18       		.byte	24
 2747 0678 84       		.byte	-124
 2748 0679 20       		.byte	32
 2749 067a 84       		.byte	-124
 2750 067b 40       		.byte	64
 2751 067c 80       		.byte	-128
 2752 067d 80       		.byte	-128
 2753 067e 80       		.byte	-128
 2754 067f 00       		.byte	0
 2755 0680 00       		.byte	0
 2756 0681 00       		.byte	0
 2757 0682 02       		.byte	2
 2758 0683 00       		.byte	0
 2759 0684 02       		.byte	2
 2760 0685 00       		.byte	0
 2761 0686 02       		.byte	2
 2762 0687 06       		.byte	6
 2763 0688 02       		.byte	2
 2764 0689 01       		.byte	1
 2765 068a 82       		.byte	-126
 2766 068b 00       		.byte	0
 2767 068c 42       		.byte	66
 2768 068d 00       		.byte	0
 2769 068e 02       		.byte	2
 2770 068f 00       		.byte	0
 2771 0690 02       		.byte	2
 2772 0691 00       		.byte	0
 2773 0692 FE       		.byte	-2
 2774 0693 FF       		.byte	-1
 2775 0694 02       		.byte	2
 2776 0695 00       		.byte	0
 2777 0696 02       		.byte	2
 2778 0697 00       		.byte	0
 2779 0698 02       		.byte	2
 2780 0699 00       		.byte	0
 2781 069a 02       		.byte	2
 2782 069b 00       		.byte	0
 2783 069c 02       		.byte	2
 2784 069d 00       		.byte	0
 2785 069e 02       		.byte	2
 2786 069f 00       		.byte	0
 2787 06a0 00       		.byte	0
 2788 06a1 00       		.byte	0
 2789 06a2 80       		.byte	-128
 2790 06a3 10       		.byte	16
 2791 06a4 84       		.byte	-124
 2792 06a5 12       		.byte	18
 2793 06a6 4C       		.byte	76
 2794 06a7 12       		.byte	18
 2795 06a8 54       		.byte	84
 2796 06a9 12       		.byte	18
 2797 06aa A4       		.byte	-92
 2798 06ab FF       		.byte	-1
 2799 06ac 24       		.byte	36
 2800 06ad 12       		.byte	18
 2801 06ae 57       		.byte	87
 2802 06af 12       		.byte	18
 2803 06b0 48       		.byte	72
 2804 06b1 12       		.byte	18
 2805 06b2 90       		.byte	-112
 2806 06b3 18       		.byte	24
 2807 06b4 86       		.byte	-122
 2808 06b5 07       		.byte	7
 2809 06b6 DA       		.byte	-38
 2810 06b7 08       		.byte	8
 2811 06b8 22       		.byte	34
 2812 06b9 10       		.byte	16
 2813 06ba 02       		.byte	2
 2814 06bb 08       		.byte	8
 2815 06bc FE       		.byte	-2
 2816 06bd FF       		.byte	-1
 2817 06be 00       		.byte	0
 2818 06bf 00       		.byte	0
 2819 06c0 00       		.byte	0
 2820 06c1 00       		.byte	0
 2821 06c2 40       		.byte	64
 2822 06c3 00       		.byte	0
 2823 06c4 40       		.byte	64
 2824 06c5 00       		.byte	0
 2825 06c6 40       		.byte	64
 2826 06c7 FE       		.byte	-2
 2827 06c8 3E       		.byte	62
 2828 06c9 42       		.byte	66
 2829 06ca 02       		.byte	2
 2830 06cb 42       		.byte	66
 2831 06cc 02       		.byte	2
 2832 06cd 42       		.byte	66
 2833 06ce 02       		.byte	2
 2834 06cf 42       		.byte	66
 2835 06d0 3E       		.byte	62
 2836 06d1 42       		.byte	66
 2837 06d2 40       		.byte	64
 2838 06d3 FE       		.byte	-2
 2839 06d4 80       		.byte	-128
 2840 06d5 00       		.byte	0
 2841 06d6 00       		.byte	0
 2842 06d7 00       		.byte	0
 2843 06d8 8C       		.byte	-116
 2844 06d9 01       		.byte	1
 2845 06da 02       		.byte	2
 2846 06db 7E       		.byte	126
 2847 06dc 60       		.byte	96
 2848 06dd 04       		.byte	4
 2849 06de 10       		.byte	16
 2850 06df 04       		.byte	4
 2851 06e0 00       		.byte	0
 2852 06e1 00       		.byte	0
 2853 06e2 00       		.byte	0
 2854 06e3 80       		.byte	-128
 2855 06e4 E0       		.byte	-32
 2856 06e5 BF       		.byte	-65
 2857 06e6 22       		.byte	34
 2858 06e7 C9       		.byte	-55
 2859 06e8 26       		.byte	38
 2860 06e9 A9       		.byte	-87
 2861 06ea 2A       		.byte	42
 2862 06eb 89       		.byte	-119
 2863 06ec F2       		.byte	-14
 2864 06ed BF       		.byte	-65
 2865 06ee 2A       		.byte	42
 2866 06ef 89       		.byte	-119
 2867 06f0 2A       		.byte	42
 2868 06f1 89       		.byte	-119
 2869 06f2 22       		.byte	34
 2870 06f3 89       		.byte	-119
 2871 06f4 E2       		.byte	-30
 2872 06f5 FF       		.byte	-1
 2873 06f6 00       		.byte	0
 2874 06f7 80       		.byte	-128
 2875 06f8 00       		.byte	0
 2876 06f9 40       		.byte	64
 2877 06fa CC       		.byte	-52
 2878 06fb 3F       		.byte	63
 2879 06fc 42       		.byte	66
 2880 06fd 40       		.byte	64
 2881 06fe 40       		.byte	64
 2882 06ff 80       		.byte	-128
 2883 0700 00       		.byte	0
 2884 0701 00       		.byte	0
 2885 0702 00       		.byte	0
 2886 0703 40       		.byte	64
 2887 0704 08       		.byte	8
 2888 0705 40       		.byte	64
 2889 0706 E9       		.byte	-23
 2890 0707 5F       		.byte	95
 2891 0708 AA       		.byte	-86
 2892 0709 4A       		.byte	74
 2893 070a A8       		.byte	-88
 2894 070b 4A       		.byte	74
 2895 070c A8       		.byte	-88
 2896 070d 4A       		.byte	74
 2897 070e B8       		.byte	-72
 2898 070f 4A       		.byte	74
 2899 0710 AA       		.byte	-86
 2900 0711 4A       		.byte	74
 2901 0712 E9       		.byte	-23
 2902 0713 5F       		.byte	95
 2903 0714 08       		.byte	8
 2904 0715 40       		.byte	64
 2905 0716 00       		.byte	0
 2906 0717 20       		.byte	32
 2907 0718 CC       		.byte	-52
 2908 0719 1F       		.byte	31
 2909 071a 42       		.byte	66
 2910 071b 20       		.byte	32
 2911 071c 40       		.byte	64
 2912 071d 40       		.byte	64
 2913 071e 40       		.byte	64
 2914 071f 00       		.byte	0
 2915 0720 00       		.byte	0
 2916 0721 00       		.byte	0
 2917 0722 98       		.byte	-104
 2918 0723 00       		.byte	0
 2919 0724 A8       		.byte	-88
 2920 0725 80       		.byte	-128
 2921 0726 88       		.byte	-120
 2922 0727 47       		.byte	71
 2923 0728 88       		.byte	-120
 2924 0729 28       		.byte	40
 2925 072a 8E       		.byte	-114
 2926 072b 10       		.byte	16
 2927 072c E9       		.byte	-23
 2928 072d 28       		.byte	40
 2929 072e 88       		.byte	-120
 2930 072f 4B       		.byte	75
 2931 0730 88       		.byte	-120
 2932 0731 84       		.byte	-124
 2933 0732 98       		.byte	-104
 2934 0733 80       		.byte	-128
 2935 0734 20       		.byte	32
 2936 0735 00       		.byte	0
 2937 0736 90       		.byte	-112
 2938 0737 00       		.byte	0
 2939 0738 FF       		.byte	-1
 2940 0739 7F       		.byte	127
 2941 073a 10       		.byte	16
 2942 073b 81       		.byte	-127
 2943 073c 10       		.byte	16
 2944 073d 42       		.byte	66
 2945 073e 10       		.byte	16
 2946 073f 02       		.byte	2
 2947 0740 00       		.byte	0
 2948 0741 00       		.byte	0
 2949 0742 02       		.byte	2
 2950 0743 00       		.byte	0
 2951 0744 02       		.byte	2
 2952 0745 00       		.byte	0
 2953 0746 02       		.byte	2
 2954 0747 06       		.byte	6
 2955 0748 02       		.byte	2
 2956 0749 01       		.byte	1
 2957 074a 82       		.byte	-126
 2958 074b 00       		.byte	0
 2959 074c 42       		.byte	66
 2960 074d 00       		.byte	0
 2961 074e 02       		.byte	2
 2962 074f 00       		.byte	0
 2963 0750 02       		.byte	2
 2964 0751 00       		.byte	0
 2965 0752 FE       		.byte	-2
 2966 0753 FF       		.byte	-1
 2967 0754 02       		.byte	2
 2968 0755 00       		.byte	0
 2969 0756 02       		.byte	2
 2970 0757 00       		.byte	0
 2971 0758 02       		.byte	2
 2972 0759 00       		.byte	0
 2973 075a 02       		.byte	2
 2974 075b 00       		.byte	0
 2975 075c 02       		.byte	2
 2976 075d 00       		.byte	0
 2977 075e 02       		.byte	2
 2978 075f 00       		.byte	0
 2979 0760 00       		.byte	0
 2980 0761 00       		.byte	0
 2981 0762 02       		.byte	2
 2982 0763 01       		.byte	1
 2983 0764 02       		.byte	2
 2984 0765 09       		.byte	9
 2985 0766 2A       		.byte	42
 2986 0767 09       		.byte	9
 2987 0768 26       		.byte	38
 2988 0769 09       		.byte	9
 2989 076a 22       		.byte	34
 2990 076b 7D       		.byte	125
 2991 076c 23       		.byte	35
 2992 076d 89       		.byte	-119
 2993 076e 24       		.byte	36
 2994 076f 49       		.byte	73
 2995 0770 FA       		.byte	-6
 2996 0771 09       		.byte	9
 2997 0772 22       		.byte	34
 2998 0773 09       		.byte	9
 2999 0774 2A       		.byte	42
 3000 0775 69       		.byte	105
 3001 0776 26       		.byte	38
 3002 0777 19       		.byte	25
 3003 0778 22       		.byte	34
 3004 0779 09       		.byte	9
 3005 077a 23       		.byte	35
 3006 077b 09       		.byte	9
 3007 077c 04       		.byte	4
 3008 077d 09       		.byte	9
 3009 077e 08       		.byte	8
 3010 077f 01       		.byte	1
 3011 0780 00       		.byte	0
 3012 0781 00       		.byte	0
 3013 0782 40       		.byte	64
 3014 0783 02       		.byte	2
 3015 0784 48       		.byte	72
 3016 0785 02       		.byte	2
 3017 0786 48       		.byte	72
 3018 0787 02       		.byte	2
 3019 0788 C8       		.byte	-56
 3020 0789 7F       		.byte	127
 3021 078a 48       		.byte	72
 3022 078b 82       		.byte	-126
 3023 078c 7F       		.byte	127
 3024 078d 42       		.byte	66
 3025 078e 48       		.byte	72
 3026 078f 02       		.byte	2
 3027 0790 48       		.byte	72
 3028 0791 32       		.byte	50
 3029 0792 48       		.byte	72
 3030 0793 0A       		.byte	10
 3031 0794 40       		.byte	64
 3032 0795 02       		.byte	2
 3033 0796 33       		.byte	51
 3034 0797 00       		.byte	0
 3035 0798 C4       		.byte	-60
 3036 0799 FF       		.byte	-1
 3037 079a 88       		.byte	-120
 3038 079b 00       		.byte	0
 3039 079c 10       		.byte	16
 3040 079d 01       		.byte	1
 3041 079e 00       		.byte	0
 3042 079f 02       		.byte	2
 3043 07a0 00       		.byte	0
 3044 07a1 00       		.byte	0
 3045 07a2 00       		.byte	0
 3046 07a3 40       		.byte	64
 3047 07a4 02       		.byte	2
 3048 07a5 40       		.byte	64
 3049 07a6 82       		.byte	-126
 3050 07a7 40       		.byte	64
 3051 07a8 82       		.byte	-126
 3052 07a9 40       		.byte	64
 3053 07aa 82       		.byte	-126
 3054 07ab 40       		.byte	64
 3055 07ac 82       		.byte	-126
 3056 07ad 40       		.byte	64
 3057 07ae 82       		.byte	-126
 3058 07af 40       		.byte	64
 3059 07b0 FE       		.byte	-2
 3060 07b1 7F       		.byte	127
 3061 07b2 02       		.byte	2
 3062 07b3 40       		.byte	64
 3063 07b4 02       		.byte	2
 3064 07b5 40       		.byte	64
 3065 07b6 02       		.byte	2
 3066 07b7 40       		.byte	64
 3067 07b8 C2       		.byte	-62
 3068 07b9 7F       		.byte	127
 3069 07ba 02       		.byte	2
 3070 07bb 40       		.byte	64
 3071 07bc 02       		.byte	2
 3072 07bd 40       		.byte	64
 3073 07be 00       		.byte	0
 3074 07bf 40       		.byte	64
 3075 07c0 00       		.byte	0
 3076 07c1 00       		.byte	0
 3077 07c2 08       		.byte	8
 3078 07c3 00       		.byte	0
 3079 07c4 08       		.byte	8
 3080 07c5 70       		.byte	112
 3081 07c6 C8       		.byte	-56
 3082 07c7 28       		.byte	40
 3083 07c8 08       		.byte	8
 3084 07c9 21       		.byte	33
 3085 07ca 0E       		.byte	14
 3086 07cb 23       		.byte	35
 3087 07cc 39       		.byte	57
 3088 07cd 25       		.byte	37
 3089 07ce 48       		.byte	72
 3090 07cf 29       		.byte	41
 3091 07d0 88       		.byte	-120
 3092 07d1 71       		.byte	113
 3093 07d2 08       		.byte	8
 3094 07d3 21       		.byte	33
 3095 07d4 00       		.byte	0
 3096 07d5 00       		.byte	0
 3097 07d6 3E       		.byte	62
 3098 07d7 3E       		.byte	62
 3099 07d8 22       		.byte	34
 3100 07d9 42       		.byte	66
 3101 07da 22       		.byte	34
 3102 07db 82       		.byte	-126
 3103 07dc E2       		.byte	-30
 3104 07dd 43       		.byte	67
 3105 07de 02       		.byte	2
 3106 07df 00       		.byte	0
 3107 07e0 00       		.byte	0
 3108 07e1 00       		.byte	0
 3109 07e2 00       		.byte	0
 3110 07e3 20       		.byte	32
 3111 07e4 04       		.byte	4
 3112 07e5 20       		.byte	32
 3113 07e6 84       		.byte	-124
 3114 07e7 20       		.byte	32
 3115 07e8 84       		.byte	-124
 3116 07e9 20       		.byte	32
 3117 07ea 84       		.byte	-124
 3118 07eb 20       		.byte	32
 3119 07ec 84       		.byte	-124
 3120 07ed 20       		.byte	32
 3121 07ee 84       		.byte	-124
 3122 07ef 20       		.byte	32
 3123 07f0 84       		.byte	-124
 3124 07f1 20       		.byte	32
 3125 07f2 84       		.byte	-124
 3126 07f3 20       		.byte	32
 3127 07f4 84       		.byte	-124
 3128 07f5 20       		.byte	32
 3129 07f6 84       		.byte	-124
 3130 07f7 20       		.byte	32
 3131 07f8 84       		.byte	-124
 3132 07f9 20       		.byte	32
 3133 07fa 84       		.byte	-124
 3134 07fb 20       		.byte	32
 3135 07fc 04       		.byte	4
 3136 07fd 20       		.byte	32
 3137 07fe 00       		.byte	0
 3138 07ff 20       		.byte	32
 3139 0800 00       		.byte	0
 3140 0801 00       		.byte	0
 3141 0802 00       		.byte	0
 3142 0803 00       		.byte	0
 3143 0804 00       		.byte	0
 3144 0805 00       		.byte	0
 3145 0806 E0       		.byte	-32
 3146 0807 7F       		.byte	127
 3147 0808 20       		.byte	32
 3148 0809 89       		.byte	-119
 3149 080a 2C       		.byte	44
 3150 080b 49       		.byte	73
 3151 080c 34       		.byte	52
 3152 080d 09       		.byte	9
 3153 080e 24       		.byte	36
 3154 080f 09       		.byte	9
 3155 0810 E4       		.byte	-28
 3156 0811 7F       		.byte	127
 3157 0812 24       		.byte	36
 3158 0813 09       		.byte	9
 3159 0814 24       		.byte	36
 3160 0815 09       		.byte	9
 3161 0816 27       		.byte	39
 3162 0817 09       		.byte	9
 3163 0818 24       		.byte	36
 3164 0819 09       		.byte	9
 3165 081a E8       		.byte	-24
 3166 081b 1F       		.byte	31
 3167 081c 10       		.byte	16
 3168 081d 60       		.byte	96
 3169 081e 20       		.byte	32
 3170 081f 80       		.byte	-128
 3171 0820 00       		.byte	0
 3172 0821 00       		.byte	0
 3173 0822 08       		.byte	8
 3174 0823 00       		.byte	0
 3175 0824 08       		.byte	8
 3176 0825 00       		.byte	0
 3177 0826 08       		.byte	8
 3178 0827 00       		.byte	0
 3179 0828 88       		.byte	-120
 3180 0829 3F       		.byte	63
 3181 082a 88       		.byte	-120
 3182 082b 40       		.byte	64
 3183 082c 88       		.byte	-120
 3184 082d 80       		.byte	-128
 3185 082e 88       		.byte	-120
 3186 082f 40       		.byte	64
 3187 0830 8E       		.byte	-114
 3188 0831 00       		.byte	0
 3189 0832 89       		.byte	-119
 3190 0833 00       		.byte	0
 3191 0834 F8       		.byte	-8
 3192 0835 07       		.byte	7
 3193 0836 08       		.byte	8
 3194 0837 18       		.byte	24
 3195 0838 08       		.byte	8
 3196 0839 20       		.byte	32
 3197 083a 08       		.byte	8
 3198 083b 40       		.byte	64
 3199 083c 08       		.byte	8
 3200 083d 80       		.byte	-128
 3201 083e 08       		.byte	8
 3202 083f 00       		.byte	0
 3203 0840 00       		.byte	0
 3204 0841 00       		.byte	0
 3205 0842 80       		.byte	-128
 3206 0843 00       		.byte	0
 3207 0844 9E       		.byte	-98
 3208 0845 FC       		.byte	-4
 3209 0846 92       		.byte	-110
 3210 0847 44       		.byte	68
 3211 0848 92       		.byte	-110
 3212 0849 44       		.byte	68
 3213 084a F2       		.byte	-14
 3214 084b 47       		.byte	71
 3215 084c 92       		.byte	-110
 3216 084d 44       		.byte	68
 3217 084e 92       		.byte	-110
 3218 084f FC       		.byte	-4
 3219 0850 92       		.byte	-110
 3220 0851 00       		.byte	0
 3221 0852 FE       		.byte	-2
 3222 0853 1F       		.byte	31
 3223 0854 00       		.byte	0
 3224 0855 60       		.byte	96
 3225 0856 24       		.byte	36
 3226 0857 91       		.byte	-111
 3227 0858 24       		.byte	36
 3228 0859 21       		.byte	33
 3229 085a EF       		.byte	-17
 3230 085b 7F       		.byte	127
 3231 085c 30       		.byte	48
 3232 085d 01       		.byte	1
 3233 085e 40       		.byte	64
 3234 085f 01       		.byte	1
 3235 0860 00       		.byte	0
 3236 0861 00       		.byte	0
 3237 0862 40       		.byte	64
 3238 0863 00       		.byte	0
 3239 0864 40       		.byte	64
 3240 0865 00       		.byte	0
 3241 0866 44       		.byte	68
 3242 0867 FF       		.byte	-1
 3243 0868 44       		.byte	68
 3244 0869 40       		.byte	64
 3245 086a 44       		.byte	68
 3246 086b 50       		.byte	80
 3247 086c 44       		.byte	68
 3248 086d 48       		.byte	72
 3249 086e 44       		.byte	68
 3250 086f 44       		.byte	68
 3251 0870 7F       		.byte	127
 3252 0871 43       		.byte	67
 3253 0872 40       		.byte	64
 3254 0873 44       		.byte	68
 3255 0874 40       		.byte	64
 3256 0875 48       		.byte	72
 3257 0876 40       		.byte	64
 3258 0877 50       		.byte	80
 3259 0878 7C       		.byte	124
 3260 0879 40       		.byte	64
 3261 087a 40       		.byte	64
 3262 087b 7F       		.byte	127
 3263 087c 40       		.byte	64
 3264 087d 00       		.byte	0
 3265 087e 40       		.byte	64
 3266 087f 00       		.byte	0
 3267 0880 00       		.byte	0
 3268 0881 00       		.byte	0
 3269 0882 18       		.byte	24
 3270 0883 80       		.byte	-128
 3271 0884 A8       		.byte	-88
 3272 0885 81       		.byte	-127
 3273 0886 88       		.byte	-120
 3274 0887 46       		.byte	70
 3275 0888 88       		.byte	-120
 3276 0889 28       		.byte	40
 3277 088a FF       		.byte	-1
 3278 088b 10       		.byte	16
 3279 088c 88       		.byte	-120
 3280 088d 2C       		.byte	44
 3281 088e 88       		.byte	-120
 3282 088f 43       		.byte	67
 3283 0890 88       		.byte	-120
 3284 0891 80       		.byte	-128
 3285 0892 F8       		.byte	-8
 3286 0893 1F       		.byte	31
 3287 0894 00       		.byte	0
 3288 0895 60       		.byte	96
 3289 0896 C0       		.byte	-64
 3290 0897 80       		.byte	-128
 3291 0898 0C       		.byte	12
 3292 0899 03       		.byte	3
 3293 089a 02       		.byte	2
 3294 089b 7C       		.byte	124
 3295 089c 60       		.byte	96
 3296 089d 04       		.byte	4
 3297 089e 10       		.byte	16
 3298 089f 04       		.byte	4
 3299 08a0 00       		.byte	0
 3300 08a1 00       		.byte	0
 3301 08a2 40       		.byte	64
 3302 08a3 00       		.byte	0
 3303 08a4 40       		.byte	64
 3304 08a5 00       		.byte	0
 3305 08a6 44       		.byte	68
 3306 08a7 02       		.byte	2
 3307 08a8 44       		.byte	68
 3308 08a9 04       		.byte	4
 3309 08aa 44       		.byte	68
 3310 08ab 08       		.byte	8
 3311 08ac 44       		.byte	68
 3312 08ad 10       		.byte	16
 3313 08ae 44       		.byte	68
 3314 08af 10       		.byte	16
 3315 08b0 FF       		.byte	-1
 3316 08b1 2F       		.byte	47
 3317 08b2 40       		.byte	64
 3318 08b3 20       		.byte	32
 3319 08b4 40       		.byte	64
 3320 08b5 40       		.byte	64
 3321 08b6 40       		.byte	64
 3322 08b7 40       		.byte	64
 3323 08b8 7C       		.byte	124
 3324 08b9 46       		.byte	70
 3325 08ba 40       		.byte	64
 3326 08bb 88       		.byte	-120
 3327 08bc 40       		.byte	64
 3328 08bd 90       		.byte	-112
 3329 08be 40       		.byte	64
 3330 08bf 80       		.byte	-128
 3331 08c0 00       		.byte	0
 3332 08c1 00       		.byte	0
 3333 08c2 80       		.byte	-128
 3334 08c3 40       		.byte	64
 3335 08c4 88       		.byte	-120
 3336 08c5 40       		.byte	64
 3337 08c6 88       		.byte	-120
 3338 08c7 40       		.byte	64
 3339 08c8 FF       		.byte	-1
 3340 08c9 5F       		.byte	95
 3341 08ca 88       		.byte	-120
 3342 08cb 40       		.byte	64
 3343 08cc 88       		.byte	-120
 3344 08cd 40       		.byte	64
 3345 08ce FF       		.byte	-1
 3346 08cf 43       		.byte	67
 3347 08d0 88       		.byte	-120
 3348 08d1 4C       		.byte	76
 3349 08d2 88       		.byte	-120
 3350 08d3 50       		.byte	80
 3351 08d4 80       		.byte	-128
 3352 08d5 40       		.byte	64
 3353 08d6 00       		.byte	0
 3354 08d7 20       		.byte	32
 3355 08d8 CC       		.byte	-52
 3356 08d9 1F       		.byte	31
 3357 08da 42       		.byte	66
 3358 08db 20       		.byte	32
 3359 08dc 40       		.byte	64
 3360 08dd 40       		.byte	64
 3361 08de 40       		.byte	64
 3362 08df 00       		.byte	0
 3363 08e0 00       		.byte	0
 3364 08e1 00       		.byte	0
 3365 08e2 00       		.byte	0
 3366 08e3 00       		.byte	0
 3367 08e4 08       		.byte	8
 3368 08e5 E0       		.byte	-32
 3369 08e6 08       		.byte	8
 3370 08e7 10       		.byte	16
 3371 08e8 C8       		.byte	-56
 3372 08e9 07       		.byte	7
 3373 08ea 48       		.byte	72
 3374 08eb 04       		.byte	4
 3375 08ec 48       		.byte	72
 3376 08ed 64       		.byte	100
 3377 08ee 48       		.byte	72
 3378 08ef 14       		.byte	20
 3379 08f0 48       		.byte	72
 3380 08f1 04       		.byte	4
 3381 08f2 7F       		.byte	127
 3382 08f3 64       		.byte	100
 3383 08f4 40       		.byte	64
 3384 08f5 14       		.byte	20
 3385 08f6 40       		.byte	64
 3386 08f7 04       		.byte	4
 3387 08f8 40       		.byte	64
 3388 08f9 04       		.byte	4
 3389 08fa C0       		.byte	-64
 3390 08fb 37       		.byte	55
 3391 08fc 00       		.byte	0
 3392 08fd 40       		.byte	64
 3393 08fe 00       		.byte	0
 3394 08ff 80       		.byte	-128
 3395 0900 00       		.byte	0
 3396 0901 00       		.byte	0
 3397 0902 02       		.byte	2
 3398 0903 00       		.byte	0
 3399 0904 02       		.byte	2
 3400 0905 00       		.byte	0
 3401 0906 E2       		.byte	-30
 3402 0907 FF       		.byte	-1
 3403 0908 22       		.byte	34
 3404 0909 42       		.byte	66
 3405 090a 22       		.byte	34
 3406 090b 42       		.byte	66
 3407 090c 22       		.byte	34
 3408 090d 42       		.byte	66
 3409 090e 22       		.byte	34
 3410 090f 42       		.byte	66
 3411 0910 26       		.byte	38
 3412 0911 42       		.byte	66
 3413 0912 2A       		.byte	42
 3414 0913 42       		.byte	66
 3415 0914 32       		.byte	50
 3416 0915 42       		.byte	66
 3417 0916 22       		.byte	34
 3418 0917 42       		.byte	66
 3419 0918 22       		.byte	34
 3420 0919 42       		.byte	66
 3421 091a E2       		.byte	-30
 3422 091b FF       		.byte	-1
 3423 091c 02       		.byte	2
 3424 091d 00       		.byte	0
 3425 091e 02       		.byte	2
 3426 091f 00       		.byte	0
 3427 0920 00       		.byte	0
 3428 0921 00       		.byte	0
 3429 0922 80       		.byte	-128
 3430 0923 00       		.byte	0
 3431 0924 40       		.byte	64
 3432 0925 00       		.byte	0
 3433 0926 20       		.byte	32
 3434 0927 00       		.byte	0
 3435 0928 10       		.byte	16
 3436 0929 00       		.byte	0
 3437 092a 8C       		.byte	-116
 3438 092b 3F       		.byte	63
 3439 092c 83       		.byte	-125
 3440 092d 40       		.byte	64
 3441 092e 80       		.byte	-128
 3442 092f 80       		.byte	-128
 3443 0930 80       		.byte	-128
 3444 0931 40       		.byte	64
 3445 0932 80       		.byte	-128
 3446 0933 00       		.byte	0
 3447 0934 86       		.byte	-122
 3448 0935 07       		.byte	7
 3449 0936 88       		.byte	-120
 3450 0937 18       		.byte	24
 3451 0938 90       		.byte	-112
 3452 0939 20       		.byte	32
 3453 093a 20       		.byte	32
 3454 093b 40       		.byte	64
 3455 093c 40       		.byte	64
 3456 093d 80       		.byte	-128
 3457 093e 80       		.byte	-128
 3458 093f 00       		.byte	0
 3459 0940 00       		.byte	0
 3460 0941 00       		.byte	0
 3461 0942 00       		.byte	0
 3462 0943 40       		.byte	64
 3463 0944 00       		.byte	0
 3464 0945 40       		.byte	64
 3465 0946 10       		.byte	16
 3466 0947 40       		.byte	64
 3467 0948 30       		.byte	48
 3468 0949 40       		.byte	64
 3469 094a 50       		.byte	80
 3470 094b 40       		.byte	64
 3471 094c 90       		.byte	-112
 3472 094d 40       		.byte	64
 3473 094e 10       		.byte	16
 3474 094f 41       		.byte	65
 3475 0950 16       		.byte	22
 3476 0951 42       		.byte	66
 3477 0952 11       		.byte	17
 3478 0953 44       		.byte	68
 3479 0954 10       		.byte	16
 3480 0955 28       		.byte	40
 3481 0956 10       		.byte	16
 3482 0957 10       		.byte	16
 3483 0958 10       		.byte	16
 3484 0959 10       		.byte	16
 3485 095a 10       		.byte	16
 3486 095b 20       		.byte	32
 3487 095c 10       		.byte	16
 3488 095d 40       		.byte	64
 3489 095e 00       		.byte	0
 3490 095f 00       		.byte	0
 3491 0960 00       		.byte	0
 3492 0961 00       		.byte	0
 3493 0962 00       		.byte	0
 3494 0963 80       		.byte	-128
 3495 0964 04       		.byte	4
 3496 0965 88       		.byte	-120
 3497 0966 E4       		.byte	-28
 3498 0967 4B       		.byte	75
 3499 0968 AF       		.byte	-81
 3500 0969 2A       		.byte	42
 3501 096a A4       		.byte	-92
 3502 096b 1A       		.byte	26
 3503 096c A4       		.byte	-92
 3504 096d 0E       		.byte	14
 3505 096e A4       		.byte	-92
 3506 096f 1A       		.byte	26
 3507 0970 AF       		.byte	-81
 3508 0971 2A       		.byte	42
 3509 0972 E4       		.byte	-28
 3510 0973 4B       		.byte	75
 3511 0974 14       		.byte	20
 3512 0975 89       		.byte	-119
 3513 0976 90       		.byte	-112
 3514 0977 00       		.byte	0
 3515 0978 FF       		.byte	-1
 3516 0979 FF       		.byte	-1
 3517 097a D0       		.byte	-48
 3518 097b 00       		.byte	0
 3519 097c 10       		.byte	16
 3520 097d 03       		.byte	3
 3521 097e 10       		.byte	16
 3522 097f 04       		.byte	4
 3523 0980 00       		.byte	0
 3524 0981 00       		.byte	0
 3525 0982 10       		.byte	16
 3526 0983 F8       		.byte	-8
 3527 0984 16       		.byte	22
 3528 0985 40       		.byte	64
 3529 0986 11       		.byte	17
 3530 0987 20       		.byte	32
 3531 0988 10       		.byte	16
 3532 0989 10       		.byte	16
 3533 098a 10       		.byte	16
 3534 098b 0C       		.byte	12
 3535 098c FF       		.byte	-1
 3536 098d 03       		.byte	3
 3537 098e 10       		.byte	16
 3538 098f 00       		.byte	0
 3539 0990 10       		.byte	16
 3540 0991 10       		.byte	16
 3541 0992 90       		.byte	-112
 3542 0993 10       		.byte	16
 3543 0994 90       		.byte	-112
 3544 0995 10       		.byte	16
 3545 0996 90       		.byte	-112
 3546 0997 3F       		.byte	63
 3547 0998 90       		.byte	-112
 3548 0999 20       		.byte	32
 3549 099a 90       		.byte	-112
 3550 099b 60       		.byte	96
 3551 099c 10       		.byte	16
 3552 099d 20       		.byte	32
 3553 099e 10       		.byte	16
 3554 099f 00       		.byte	0
 3555 09a0 00       		.byte	0
 3556 09a1 00       		.byte	0
 3557 09a2 00       		.byte	0
 3558 09a3 00       		.byte	0
 3559 09a4 FC       		.byte	-4
 3560 09a5 3F       		.byte	63
 3561 09a6 04       		.byte	4
 3562 09a7 40       		.byte	64
 3563 09a8 04       		.byte	4
 3564 09a9 80       		.byte	-128
 3565 09aa 04       		.byte	4
 3566 09ab 40       		.byte	64
 3567 09ac FC       		.byte	-4
 3568 09ad 07       		.byte	7
 3569 09ae 04       		.byte	4
 3570 09af 18       		.byte	24
 3571 09b0 04       		.byte	4
 3572 09b1 20       		.byte	32
 3573 09b2 20       		.byte	32
 3574 09b3 42       		.byte	66
 3575 09b4 20       		.byte	32
 3576 09b5 84       		.byte	-124
 3577 09b6 20       		.byte	32
 3578 09b7 08       		.byte	8
 3579 09b8 FF       		.byte	-1
 3580 09b9 1F       		.byte	31
 3581 09ba 40       		.byte	64
 3582 09bb 00       		.byte	0
 3583 09bc 40       		.byte	64
 3584 09bd 00       		.byte	0
 3585 09be 40       		.byte	64
 3586 09bf 00       		.byte	0
 3587 09c0 00       		.byte	0
 3588 09c1 00       		.byte	0
 3589 09c2 00       		.byte	0
 3590 09c3 84       		.byte	-124
 3591 09c4 E0       		.byte	-32
 3592 09c5 47       		.byte	71
 3593 09c6 2C       		.byte	44
 3594 09c7 24       		.byte	36
 3595 09c8 34       		.byte	52
 3596 09c9 1C       		.byte	28
 3597 09ca E4       		.byte	-28
 3598 09cb 07       		.byte	7
 3599 09cc 24       		.byte	36
 3600 09cd 1C       		.byte	28
 3601 09ce 27       		.byte	39
 3602 09cf 24       		.byte	36
 3603 09d0 E8       		.byte	-24
 3604 09d1 47       		.byte	71
 3605 09d2 10       		.byte	16
 3606 09d3 84       		.byte	-124
 3607 09d4 20       		.byte	32
 3608 09d5 84       		.byte	-124
 3609 09d6 90       		.byte	-112
 3610 09d7 00       		.byte	0
 3611 09d8 FF       		.byte	-1
 3612 09d9 7F       		.byte	127
 3613 09da 10       		.byte	16
 3614 09db 81       		.byte	-127
 3615 09dc 10       		.byte	16
 3616 09dd 42       		.byte	66
 3617 09de 10       		.byte	16
 3618 09df 02       		.byte	2
 3619 09e0 00       		.byte	0
 3620 09e1 00       		.byte	0
 3621 09e2 60       		.byte	96
 3622 09e3 0C       		.byte	12
 3623 09e4 86       		.byte	-122
 3624 09e5 10       		.byte	16
 3625 09e6 08       		.byte	8
 3626 09e7 21       		.byte	33
 3627 09e8 10       		.byte	16
 3628 09e9 42       		.byte	66
 3629 09ea 20       		.byte	32
 3630 09eb 84       		.byte	-124
 3631 09ec 80       		.byte	-128
 3632 09ed 80       		.byte	-128
 3633 09ee 82       		.byte	-126
 3634 09ef 00       		.byte	0
 3635 09f0 82       		.byte	-126
 3636 09f1 00       		.byte	0
 3637 09f2 FE       		.byte	-2
 3638 09f3 FF       		.byte	-1
 3639 09f4 82       		.byte	-126
 3640 09f5 00       		.byte	0
 3641 09f6 82       		.byte	-126
 3642 09f7 00       		.byte	0
 3643 09f8 FE       		.byte	-2
 3644 09f9 0F       		.byte	15
 3645 09fa 82       		.byte	-126
 3646 09fb 30       		.byte	48
 3647 09fc 82       		.byte	-126
 3648 09fd 40       		.byte	64
 3649 09fe 80       		.byte	-128
 3650 09ff 80       		.byte	-128
 3651 0a00 00       		.byte	0
 3652 0a01 00       		.byte	0
 3653 0a02 00       		.byte	0
 3654 0a03 40       		.byte	64
 3655 0a04 04       		.byte	4
 3656 0a05 40       		.byte	64
 3657 0a06 04       		.byte	4
 3658 0a07 40       		.byte	64
 3659 0a08 F4       		.byte	-12
 3660 0a09 7F       		.byte	127
 3661 0a0a 94       		.byte	-108
 3662 0a0b 4A       		.byte	74
 3663 0a0c 94       		.byte	-108
 3664 0a0d 4A       		.byte	74
 3665 0a0e 94       		.byte	-108
 3666 0a0f 4A       		.byte	74
 3667 0a10 9F       		.byte	-97
 3668 0a11 4A       		.byte	74
 3669 0a12 94       		.byte	-108
 3670 0a13 4A       		.byte	74
 3671 0a14 94       		.byte	-108
 3672 0a15 4A       		.byte	74
 3673 0a16 94       		.byte	-108
 3674 0a17 4A       		.byte	74
 3675 0a18 F4       		.byte	-12
 3676 0a19 7F       		.byte	127
 3677 0a1a 04       		.byte	4
 3678 0a1b 40       		.byte	64
 3679 0a1c 04       		.byte	4
 3680 0a1d 40       		.byte	64
 3681 0a1e 00       		.byte	0
 3682 0a1f 40       		.byte	64
 3683 0a20 00       		.byte	0
 3684 0a21 00       		.byte	0
 3685 0a22 40       		.byte	64
 3686 0a23 02       		.byte	2
 3687 0a24 44       		.byte	68
 3688 0a25 82       		.byte	-126
 3689 0a26 54       		.byte	84
 3690 0a27 4E       		.byte	78
 3691 0a28 64       		.byte	100
 3692 0a29 52       		.byte	82
 3693 0a2a 44       		.byte	68
 3694 0a2b 22       		.byte	34
 3695 0a2c C6       		.byte	-58
 3696 0a2d 23       		.byte	35
 3697 0a2e 65       		.byte	101
 3698 0a2f 56       		.byte	86
 3699 0a30 54       		.byte	84
 3700 0a31 4A       		.byte	74
 3701 0a32 44       		.byte	68
 3702 0a33 82       		.byte	-126
 3703 0a34 50       		.byte	80
 3704 0a35 82       		.byte	-126
 3705 0a36 10       		.byte	16
 3706 0a37 01       		.byte	1
 3707 0a38 FF       		.byte	-1
 3708 0a39 7F       		.byte	127
 3709 0a3a 10       		.byte	16
 3710 0a3b 82       		.byte	-126
 3711 0a3c 10       		.byte	16
 3712 0a3d 44       		.byte	68
 3713 0a3e 10       		.byte	16
 3714 0a3f 04       		.byte	4
 3715 0a40 00       		.byte	0
 3716 0a41 00       		.byte	0
 3717 0a42 00       		.byte	0
 3718 0a43 00       		.byte	0
 3719 0a44 00       		.byte	0
 3720 0a45 00       		.byte	0
 3721 0a46 C6       		.byte	-58
 3722 0a47 FF       		.byte	-1
 3723 0a48 48       		.byte	72
 3724 0a49 44       		.byte	68
 3725 0a4a 50       		.byte	80
 3726 0a4b 44       		.byte	68
 3727 0a4c 40       		.byte	64
 3728 0a4d 44       		.byte	68
 3729 0a4e 40       		.byte	64
 3730 0a4f 44       		.byte	68
 3731 0a50 7F       		.byte	127
 3732 0a51 44       		.byte	68
 3733 0a52 40       		.byte	64
 3734 0a53 44       		.byte	68
 3735 0a54 40       		.byte	64
 3736 0a55 44       		.byte	68
 3737 0a56 58       		.byte	88
 3738 0a57 44       		.byte	68
 3739 0a58 44       		.byte	68
 3740 0a59 44       		.byte	68
 3741 0a5a 42       		.byte	66
 3742 0a5b 44       		.byte	68
 3743 0a5c 40       		.byte	64
 3744 0a5d 40       		.byte	64
 3745 0a5e 00       		.byte	0
 3746 0a5f 00       		.byte	0
 3747 0a60 00       		.byte	0
 3748 0a61 00       		.byte	0
 3749 0a62 08       		.byte	8
 3750 0a63 00       		.byte	0
 3751 0a64 08       		.byte	8
 3752 0a65 00       		.byte	0
 3753 0a66 E8       		.byte	-24
 3754 0a67 7F       		.byte	127
 3755 0a68 0B       		.byte	11
 3756 0a69 80       		.byte	-128
 3757 0a6a 0C       		.byte	12
 3758 0a6b 40       		.byte	64
 3759 0a6c C8       		.byte	-56
 3760 0a6d 0F       		.byte	15
 3761 0a6e 08       		.byte	8
 3762 0a6f 00       		.byte	0
 3763 0a70 08       		.byte	8
 3764 0a71 00       		.byte	0
 3765 0a72 E8       		.byte	-24
 3766 0a73 7F       		.byte	127
 3767 0a74 28       		.byte	40
 3768 0a75 89       		.byte	-119
 3769 0a76 2E       		.byte	46
 3770 0a77 49       		.byte	73
 3771 0a78 29       		.byte	41
 3772 0a79 09       		.byte	9
 3773 0a7a E8       		.byte	-24
 3774 0a7b FF       		.byte	-1
 3775 0a7c 08       		.byte	8
 3776 0a7d 00       		.byte	0
 3777 0a7e 08       		.byte	8
 3778 0a7f 00       		.byte	0
 3779              		.text
 3780              	.Letext0:
 3781              		.file 2 "c:\\users\\admin\\onedrive - stu.cdu.edu.cn\\2024fpga\\hummingbird\\hbird-eclipse_2018_09
 3782              		.file 3 "c:\\users\\admin\\onedrive - stu.cdu.edu.cn\\2024fpga\\hummingbird\\hbird-eclipse_2018_09
 3783              		.file 4 "c:\\users\\admin\\onedrive - stu.cdu.edu.cn\\2024fpga\\hummingbird\\hbird-eclipse_2018_09
 3784              		.file 5 "c:\\users\\admin\\onedrive - stu.cdu.edu.cn\\2024fpga\\hummingbird\\hbird-eclipse_2018_09
 3785              		.file 6 "c:\\users\\admin\\onedrive - stu.cdu.edu.cn\\2024fpga\\hummingbird\\hbird-eclipse_2018_09
 3786              		.file 7 "c:\\users\\admin\\onedrive - stu.cdu.edu.cn\\2024fpga\\hummingbird\\hbird-eclipse_2018_09
 3787              		.file 8 "../src/osp.h"
DEFINED SYMBOLS
                            *ABS*:0000000000000000 gmt024_spi.c
C:\Users\admin\AppData\Local\Temp\ccvSpBEW.s:10     .text.delay_us:0000000000000000 delay_us
C:\Users\admin\AppData\Local\Temp\ccvSpBEW.s:14     .text.delay_us:0000000000000000 .L0 
C:\Users\admin\AppData\Local\Temp\ccvSpBEW.s:16     .text.delay_us:0000000000000000 .L0 
C:\Users\admin\AppData\Local\Temp\ccvSpBEW.s:17     .text.delay_us:0000000000000000 .L0 
C:\Users\admin\AppData\Local\Temp\ccvSpBEW.s:18     .text.delay_us:0000000000000002 .L0 
C:\Users\admin\AppData\Local\Temp\ccvSpBEW.s:25     .text.Delay_ms:0000000000000000 Delay_ms
C:\Users\admin\AppData\Local\Temp\ccvSpBEW.s:27     .text.Delay_ms:0000000000000000 .L0 
C:\Users\admin\AppData\Local\Temp\ccvSpBEW.s:29     .text.Delay_ms:0000000000000002 .L0 
C:\Users\admin\AppData\Local\Temp\ccvSpBEW.s:36     .text.SPI_SendByte:0000000000000000 SPI_SendByte
C:\Users\admin\AppData\Local\Temp\ccvSpBEW.s:39     .text.SPI_SendByte:0000000000000000 .L0 
C:\Users\admin\AppData\Local\Temp\ccvSpBEW.s:41     .text.SPI_SendByte:0000000000000000 .L0 
C:\Users\admin\AppData\Local\Temp\ccvSpBEW.s:42     .text.SPI_SendByte:0000000000000000 .L0 
C:\Users\admin\AppData\Local\Temp\ccvSpBEW.s:44     .text.SPI_SendByte:0000000000000002 .L0 
C:\Users\admin\AppData\Local\Temp\ccvSpBEW.s:49     .text.SPI_SendByte:0000000000000006 .L0 
C:\Users\admin\AppData\Local\Temp\ccvSpBEW.s:54     .text.SPI_SendByte:000000000000000e .L0 
C:\Users\admin\AppData\Local\Temp\ccvSpBEW.s:58     .text.SPI_SendByte:0000000000000012 .L0 
C:\Users\admin\AppData\Local\Temp\ccvSpBEW.s:61     .text.SPI_SendByte:0000000000000014 .L0 
C:\Users\admin\AppData\Local\Temp\ccvSpBEW.s:65     .text.SPI_SendByte:000000000000001e .L0 
C:\Users\admin\AppData\Local\Temp\ccvSpBEW.s:68     .text.SPI_SendByte:0000000000000022 .L0 
C:\Users\admin\AppData\Local\Temp\ccvSpBEW.s:70     .text.SPI_SendByte:0000000000000026 .L0 
C:\Users\admin\AppData\Local\Temp\ccvSpBEW.s:74     .text.SPI_SendByte:0000000000000028 .L0 
C:\Users\admin\AppData\Local\Temp\ccvSpBEW.s:76     .text.SPI_SendByte:000000000000002a .L0 
C:\Users\admin\AppData\Local\Temp\ccvSpBEW.s:79     .text.SPI_SendByte:0000000000000030 .L0 
C:\Users\admin\AppData\Local\Temp\ccvSpBEW.s:82     .text.SPI_SendByte:0000000000000036 .L0 
C:\Users\admin\AppData\Local\Temp\ccvSpBEW.s:84     .text.SPI_SendByte:000000000000003a .L0 
C:\Users\admin\AppData\Local\Temp\ccvSpBEW.s:91     .text.SPI_SendByte:0000000000000044 .L0 
C:\Users\admin\AppData\Local\Temp\ccvSpBEW.s:95     .text.SPI_SendByte:000000000000004c .L0 
C:\Users\admin\AppData\Local\Temp\ccvSpBEW.s:96     .text.SPI_SendByte:000000000000004e .L0 
C:\Users\admin\AppData\Local\Temp\ccvSpBEW.s:103    .text.TFT_SEND_CMD:0000000000000000 TFT_SEND_CMD
C:\Users\admin\AppData\Local\Temp\ccvSpBEW.s:106    .text.TFT_SEND_CMD:0000000000000000 .L0 
C:\Users\admin\AppData\Local\Temp\ccvSpBEW.s:108    .text.TFT_SEND_CMD:0000000000000000 .L0 
C:\Users\admin\AppData\Local\Temp\ccvSpBEW.s:109    .text.TFT_SEND_CMD:0000000000000002 .L0 
C:\Users\admin\AppData\Local\Temp\ccvSpBEW.s:111    .text.TFT_SEND_CMD:0000000000000004 .L0 
C:\Users\admin\AppData\Local\Temp\ccvSpBEW.s:113    .text.TFT_SEND_CMD:0000000000000004 .L0 
C:\Users\admin\AppData\Local\Temp\ccvSpBEW.s:116    .text.TFT_SEND_CMD:0000000000000008 .L0 
C:\Users\admin\AppData\Local\Temp\ccvSpBEW.s:117    .text.TFT_SEND_CMD:000000000000000a .L0 
C:\Users\admin\AppData\Local\Temp\ccvSpBEW.s:119    .text.TFT_SEND_CMD:000000000000000a .L0 
C:\Users\admin\AppData\Local\Temp\ccvSpBEW.s:122    .text.TFT_SEND_CMD:0000000000000010 .L0 
C:\Users\admin\AppData\Local\Temp\ccvSpBEW.s:126    .text.TFT_SEND_CMD:0000000000000018 .L0 
C:\Users\admin\AppData\Local\Temp\ccvSpBEW.s:129    .text.TFT_SEND_CMD:0000000000000020 .L0 
C:\Users\admin\AppData\Local\Temp\ccvSpBEW.s:131    .text.TFT_SEND_CMD:0000000000000022 .L0 
C:\Users\admin\AppData\Local\Temp\ccvSpBEW.s:132    .text.TFT_SEND_CMD:0000000000000024 .L0 
C:\Users\admin\AppData\Local\Temp\ccvSpBEW.s:134    .text.TFT_SEND_CMD:0000000000000024 .L0 
C:\Users\admin\AppData\Local\Temp\ccvSpBEW.s:137    .text.TFT_SEND_CMD:000000000000002a .L0 
C:\Users\admin\AppData\Local\Temp\ccvSpBEW.s:138    .text.TFT_SEND_CMD:000000000000002c .L0 
C:\Users\admin\AppData\Local\Temp\ccvSpBEW.s:140    .text.TFT_SEND_CMD:000000000000002e .L0 
C:\Users\admin\AppData\Local\Temp\ccvSpBEW.s:142    .text.TFT_SEND_CMD:0000000000000030 .L0 
C:\Users\admin\AppData\Local\Temp\ccvSpBEW.s:149    .text.TFT_SEND_DATA:0000000000000000 TFT_SEND_DATA
C:\Users\admin\AppData\Local\Temp\ccvSpBEW.s:152    .text.TFT_SEND_DATA:0000000000000000 .L0 
C:\Users\admin\AppData\Local\Temp\ccvSpBEW.s:154    .text.TFT_SEND_DATA:0000000000000000 .L0 
C:\Users\admin\AppData\Local\Temp\ccvSpBEW.s:155    .text.TFT_SEND_DATA:0000000000000002 .L0 
C:\Users\admin\AppData\Local\Temp\ccvSpBEW.s:157    .text.TFT_SEND_DATA:0000000000000004 .L0 
C:\Users\admin\AppData\Local\Temp\ccvSpBEW.s:159    .text.TFT_SEND_DATA:0000000000000004 .L0 
C:\Users\admin\AppData\Local\Temp\ccvSpBEW.s:162    .text.TFT_SEND_DATA:0000000000000008 .L0 
C:\Users\admin\AppData\Local\Temp\ccvSpBEW.s:163    .text.TFT_SEND_DATA:000000000000000a .L0 
C:\Users\admin\AppData\Local\Temp\ccvSpBEW.s:165    .text.TFT_SEND_DATA:000000000000000a .L0 
C:\Users\admin\AppData\Local\Temp\ccvSpBEW.s:168    .text.TFT_SEND_DATA:0000000000000010 .L0 
C:\Users\admin\AppData\Local\Temp\ccvSpBEW.s:172    .text.TFT_SEND_DATA:0000000000000018 .L0 
C:\Users\admin\AppData\Local\Temp\ccvSpBEW.s:175    .text.TFT_SEND_DATA:0000000000000020 .L0 
C:\Users\admin\AppData\Local\Temp\ccvSpBEW.s:177    .text.TFT_SEND_DATA:0000000000000022 .L0 
C:\Users\admin\AppData\Local\Temp\ccvSpBEW.s:178    .text.TFT_SEND_DATA:0000000000000024 .L0 
C:\Users\admin\AppData\Local\Temp\ccvSpBEW.s:180    .text.TFT_SEND_DATA:0000000000000024 .L0 
C:\Users\admin\AppData\Local\Temp\ccvSpBEW.s:183    .text.TFT_SEND_DATA:000000000000002a .L0 
C:\Users\admin\AppData\Local\Temp\ccvSpBEW.s:184    .text.TFT_SEND_DATA:000000000000002c .L0 
C:\Users\admin\AppData\Local\Temp\ccvSpBEW.s:186    .text.TFT_SEND_DATA:000000000000002e .L0 
C:\Users\admin\AppData\Local\Temp\ccvSpBEW.s:188    .text.TFT_SEND_DATA:0000000000000030 .L0 
C:\Users\admin\AppData\Local\Temp\ccvSpBEW.s:195    .text.TFT_clear:0000000000000000 TFT_clear
C:\Users\admin\AppData\Local\Temp\ccvSpBEW.s:198    .text.TFT_clear:0000000000000000 .L0 
C:\Users\admin\AppData\Local\Temp\ccvSpBEW.s:199    .text.TFT_clear:0000000000000000 .L0 
C:\Users\admin\AppData\Local\Temp\ccvSpBEW.s:200    .text.TFT_clear:0000000000000002 .L0 
C:\Users\admin\AppData\Local\Temp\ccvSpBEW.s:202    .text.TFT_clear:0000000000000002 .L0 
C:\Users\admin\AppData\Local\Temp\ccvSpBEW.s:204    .text.TFT_clear:0000000000000006 .L0 
C:\Users\admin\AppData\Local\Temp\ccvSpBEW.s:207    .text.TFT_clear:000000000000000c .L0 
C:\Users\admin\AppData\Local\Temp\ccvSpBEW.s:208    .text.TFT_clear:000000000000000c .L0 
C:\Users\admin\AppData\Local\Temp\ccvSpBEW.s:209    .text.TFT_clear:000000000000000c .L0 
C:\Users\admin\AppData\Local\Temp\ccvSpBEW.s:211    .text.TFT_clear:000000000000000c .L0 
C:\Users\admin\AppData\Local\Temp\ccvSpBEW.s:214    .text.TFT_clear:0000000000000014 .L0 
C:\Users\admin\AppData\Local\Temp\ccvSpBEW.s:218    .text.TFT_clear:000000000000001e .L0 
C:\Users\admin\AppData\Local\Temp\ccvSpBEW.s:222    .text.TFT_clear:0000000000000028 .L0 
C:\Users\admin\AppData\Local\Temp\ccvSpBEW.s:226    .text.TFT_clear:0000000000000032 .L0 
C:\Users\admin\AppData\Local\Temp\ccvSpBEW.s:230    .text.TFT_clear:000000000000003e .L0 
C:\Users\admin\AppData\Local\Temp\ccvSpBEW.s:234    .text.TFT_clear:000000000000004a .L0 
C:\Users\admin\AppData\Local\Temp\ccvSpBEW.s:238    .text.TFT_clear:0000000000000054 .L0 
C:\Users\admin\AppData\Local\Temp\ccvSpBEW.s:242    .text.TFT_clear:000000000000005e .L0 
C:\Users\admin\AppData\Local\Temp\ccvSpBEW.s:246    .text.TFT_clear:0000000000000068 .L0 
C:\Users\admin\AppData\Local\Temp\ccvSpBEW.s:250    .text.TFT_clear:0000000000000074 .L0 
C:\Users\admin\AppData\Local\Temp\ccvSpBEW.s:257    .text.TFT_clear:0000000000000084 .L0 
C:\Users\admin\AppData\Local\Temp\ccvSpBEW.s:261    .text.TFT_clear:0000000000000088 .L0 
C:\Users\admin\AppData\Local\Temp\ccvSpBEW.s:267    .text.TFT_clear:0000000000000096 .L0 
C:\Users\admin\AppData\Local\Temp\ccvSpBEW.s:271    .text.TFT_clear:00000000000000a2 .L0 
C:\Users\admin\AppData\Local\Temp\ccvSpBEW.s:276    .text.TFT_clear:00000000000000a6 .L0 
C:\Users\admin\AppData\Local\Temp\ccvSpBEW.s:278    .text.TFT_clear:00000000000000a8 .L0 
C:\Users\admin\AppData\Local\Temp\ccvSpBEW.s:279    .text.TFT_clear:00000000000000aa .L0 
C:\Users\admin\AppData\Local\Temp\ccvSpBEW.s:281    .text.TFT_clear:00000000000000ac .L0 
C:\Users\admin\AppData\Local\Temp\ccvSpBEW.s:283    .text.TFT_clear:00000000000000ae .L0 
C:\Users\admin\AppData\Local\Temp\ccvSpBEW.s:286    .text.TFT_clear:00000000000000b0 .L0 
C:\Users\admin\AppData\Local\Temp\ccvSpBEW.s:288    .text.TFT_clear:00000000000000b2 .L0 
C:\Users\admin\AppData\Local\Temp\ccvSpBEW.s:295    .text.TFT_full:0000000000000000 TFT_full
C:\Users\admin\AppData\Local\Temp\ccvSpBEW.s:298    .text.TFT_full:0000000000000000 .L0 
C:\Users\admin\AppData\Local\Temp\ccvSpBEW.s:300    .text.TFT_full:0000000000000000 .L0 
C:\Users\admin\AppData\Local\Temp\ccvSpBEW.s:301    .text.TFT_full:0000000000000002 .L0 
C:\Users\admin\AppData\Local\Temp\ccvSpBEW.s:303    .text.TFT_full:0000000000000004 .L0 
C:\Users\admin\AppData\Local\Temp\ccvSpBEW.s:306    .text.TFT_full:0000000000000006 .L0 
C:\Users\admin\AppData\Local\Temp\ccvSpBEW.s:309    .text.TFT_full:000000000000000a .L0 
C:\Users\admin\AppData\Local\Temp\ccvSpBEW.s:313    .text.TFT_full:0000000000000012 .L0 
C:\Users\admin\AppData\Local\Temp\ccvSpBEW.s:314    .text.TFT_full:0000000000000012 .L0 
C:\Users\admin\AppData\Local\Temp\ccvSpBEW.s:315    .text.TFT_full:0000000000000012 .L0 
C:\Users\admin\AppData\Local\Temp\ccvSpBEW.s:316    .text.TFT_full:0000000000000012 .L0 
C:\Users\admin\AppData\Local\Temp\ccvSpBEW.s:318    .text.TFT_full:0000000000000012 .L0 
C:\Users\admin\AppData\Local\Temp\ccvSpBEW.s:321    .text.TFT_full:000000000000001a .L0 
C:\Users\admin\AppData\Local\Temp\ccvSpBEW.s:325    .text.TFT_full:0000000000000024 .L0 
C:\Users\admin\AppData\Local\Temp\ccvSpBEW.s:329    .text.TFT_full:000000000000002e .L0 
C:\Users\admin\AppData\Local\Temp\ccvSpBEW.s:333    .text.TFT_full:0000000000000038 .L0 
C:\Users\admin\AppData\Local\Temp\ccvSpBEW.s:337    .text.TFT_full:0000000000000044 .L0 
C:\Users\admin\AppData\Local\Temp\ccvSpBEW.s:341    .text.TFT_full:0000000000000050 .L0 
C:\Users\admin\AppData\Local\Temp\ccvSpBEW.s:345    .text.TFT_full:000000000000005a .L0 
C:\Users\admin\AppData\Local\Temp\ccvSpBEW.s:349    .text.TFT_full:0000000000000064 .L0 
C:\Users\admin\AppData\Local\Temp\ccvSpBEW.s:353    .text.TFT_full:000000000000006e .L0 
C:\Users\admin\AppData\Local\Temp\ccvSpBEW.s:357    .text.TFT_full:000000000000007a .L0 
C:\Users\admin\AppData\Local\Temp\ccvSpBEW.s:359    .text.TFT_full:000000000000007e .L0 
C:\Users\admin\AppData\Local\Temp\ccvSpBEW.s:363    .text.TFT_full:000000000000008a .L0 
C:\Users\admin\AppData\Local\Temp\ccvSpBEW.s:370    .text.TFT_full:0000000000000096 .L0 
C:\Users\admin\AppData\Local\Temp\ccvSpBEW.s:374    .text.TFT_full:000000000000009a .L0 
C:\Users\admin\AppData\Local\Temp\ccvSpBEW.s:380    .text.TFT_full:00000000000000a6 .L0 
C:\Users\admin\AppData\Local\Temp\ccvSpBEW.s:384    .text.TFT_full:00000000000000b0 .L0 
C:\Users\admin\AppData\Local\Temp\ccvSpBEW.s:389    .text.TFT_full:00000000000000b4 .L0 
C:\Users\admin\AppData\Local\Temp\ccvSpBEW.s:391    .text.TFT_full:00000000000000b8 .L0 
C:\Users\admin\AppData\Local\Temp\ccvSpBEW.s:392    .text.TFT_full:00000000000000ba .L0 
C:\Users\admin\AppData\Local\Temp\ccvSpBEW.s:394    .text.TFT_full:00000000000000bc .L0 
C:\Users\admin\AppData\Local\Temp\ccvSpBEW.s:396    .text.TFT_full:00000000000000be .L0 
C:\Users\admin\AppData\Local\Temp\ccvSpBEW.s:398    .text.TFT_full:00000000000000c0 .L0 
C:\Users\admin\AppData\Local\Temp\ccvSpBEW.s:400    .text.TFT_full:00000000000000c2 .L0 
C:\Users\admin\AppData\Local\Temp\ccvSpBEW.s:403    .text.TFT_full:00000000000000c4 .L0 
C:\Users\admin\AppData\Local\Temp\ccvSpBEW.s:405    .text.TFT_full:00000000000000c6 .L0 
C:\Users\admin\AppData\Local\Temp\ccvSpBEW.s:412    .text.TFT_init:0000000000000000 TFT_init
C:\Users\admin\AppData\Local\Temp\ccvSpBEW.s:415    .text.TFT_init:0000000000000000 .L0 
C:\Users\admin\AppData\Local\Temp\ccvSpBEW.s:416    .text.TFT_init:0000000000000000 .L0 
C:\Users\admin\AppData\Local\Temp\ccvSpBEW.s:417    .text.TFT_init:0000000000000000 .L0 
C:\Users\admin\AppData\Local\Temp\ccvSpBEW.s:420    .text.TFT_init:0000000000000004 .L0 
C:\Users\admin\AppData\Local\Temp\ccvSpBEW.s:421    .text.TFT_init:0000000000000006 .L0 
C:\Users\admin\AppData\Local\Temp\ccvSpBEW.s:423    .text.TFT_init:0000000000000008 .L0 
C:\Users\admin\AppData\Local\Temp\ccvSpBEW.s:425    .text.TFT_init:0000000000000008 .L0 
C:\Users\admin\AppData\Local\Temp\ccvSpBEW.s:428    .text.TFT_init:000000000000000e .L0 
C:\Users\admin\AppData\Local\Temp\ccvSpBEW.s:430    .text.TFT_init:0000000000000010 .L0 
C:\Users\admin\AppData\Local\Temp\ccvSpBEW.s:432    .text.TFT_init:0000000000000012 .L0 
C:\Users\admin\AppData\Local\Temp\ccvSpBEW.s:436    .text.TFT_init:0000000000000018 .L0 
C:\Users\admin\AppData\Local\Temp\ccvSpBEW.s:441    .text.TFT_init:0000000000000020 .L0 
C:\Users\admin\AppData\Local\Temp\ccvSpBEW.s:444    .text.TFT_init:0000000000000028 .L0 
C:\Users\admin\AppData\Local\Temp\ccvSpBEW.s:448    .text.TFT_init:0000000000000034 .L0 
C:\Users\admin\AppData\Local\Temp\ccvSpBEW.s:452    .text.TFT_init:000000000000003e .L0 
C:\Users\admin\AppData\Local\Temp\ccvSpBEW.s:456    .text.TFT_init:000000000000004a .L0 
C:\Users\admin\AppData\Local\Temp\ccvSpBEW.s:460    .text.TFT_init:0000000000000054 .L0 
C:\Users\admin\AppData\Local\Temp\ccvSpBEW.s:464    .text.TFT_init:0000000000000060 .L0 
C:\Users\admin\AppData\Local\Temp\ccvSpBEW.s:468    .text.TFT_init:000000000000006a .L0 
C:\Users\admin\AppData\Local\Temp\ccvSpBEW.s:472    .text.TFT_init:0000000000000076 .L0 
C:\Users\admin\AppData\Local\Temp\ccvSpBEW.s:476    .text.TFT_init:0000000000000080 .L0 
C:\Users\admin\AppData\Local\Temp\ccvSpBEW.s:480    .text.TFT_init:000000000000008a .L0 
C:\Users\admin\AppData\Local\Temp\ccvSpBEW.s:484    .text.TFT_init:0000000000000094 .L0 
C:\Users\admin\AppData\Local\Temp\ccvSpBEW.s:488    .text.TFT_init:00000000000000a0 .L0 
C:\Users\admin\AppData\Local\Temp\ccvSpBEW.s:492    .text.TFT_init:00000000000000ac .L0 
C:\Users\admin\AppData\Local\Temp\ccvSpBEW.s:496    .text.TFT_init:00000000000000b8 .L0 
C:\Users\admin\AppData\Local\Temp\ccvSpBEW.s:500    .text.TFT_init:00000000000000c2 .L0 
C:\Users\admin\AppData\Local\Temp\ccvSpBEW.s:504    .text.TFT_init:00000000000000ce .L0 
C:\Users\admin\AppData\Local\Temp\ccvSpBEW.s:508    .text.TFT_init:00000000000000da .L0 
C:\Users\admin\AppData\Local\Temp\ccvSpBEW.s:512    .text.TFT_init:00000000000000e6 .L0 
C:\Users\admin\AppData\Local\Temp\ccvSpBEW.s:516    .text.TFT_init:00000000000000f2 .L0 
C:\Users\admin\AppData\Local\Temp\ccvSpBEW.s:520    .text.TFT_init:00000000000000fe .L0 
C:\Users\admin\AppData\Local\Temp\ccvSpBEW.s:524    .text.TFT_init:0000000000000108 .L0 
C:\Users\admin\AppData\Local\Temp\ccvSpBEW.s:528    .text.TFT_init:0000000000000114 .L0 
C:\Users\admin\AppData\Local\Temp\ccvSpBEW.s:532    .text.TFT_init:000000000000011e .L0 
C:\Users\admin\AppData\Local\Temp\ccvSpBEW.s:536    .text.TFT_init:000000000000012a .L0 
C:\Users\admin\AppData\Local\Temp\ccvSpBEW.s:540    .text.TFT_init:0000000000000136 .L0 
C:\Users\admin\AppData\Local\Temp\ccvSpBEW.s:544    .text.TFT_init:0000000000000142 .L0 
C:\Users\admin\AppData\Local\Temp\ccvSpBEW.s:548    .text.TFT_init:000000000000014c .L0 
C:\Users\admin\AppData\Local\Temp\ccvSpBEW.s:552    .text.TFT_init:0000000000000158 .L0 
C:\Users\admin\AppData\Local\Temp\ccvSpBEW.s:556    .text.TFT_init:0000000000000164 .L0 
C:\Users\admin\AppData\Local\Temp\ccvSpBEW.s:560    .text.TFT_init:0000000000000170 .L0 
C:\Users\admin\AppData\Local\Temp\ccvSpBEW.s:564    .text.TFT_init:000000000000017c .L0 
C:\Users\admin\AppData\Local\Temp\ccvSpBEW.s:568    .text.TFT_init:0000000000000186 .L0 
C:\Users\admin\AppData\Local\Temp\ccvSpBEW.s:572    .text.TFT_init:0000000000000192 .L0 
C:\Users\admin\AppData\Local\Temp\ccvSpBEW.s:576    .text.TFT_init:000000000000019c .L0 
C:\Users\admin\AppData\Local\Temp\ccvSpBEW.s:580    .text.TFT_init:00000000000001a6 .L0 
C:\Users\admin\AppData\Local\Temp\ccvSpBEW.s:584    .text.TFT_init:00000000000001b0 .L0 
C:\Users\admin\AppData\Local\Temp\ccvSpBEW.s:588    .text.TFT_init:00000000000001bc .L0 
C:\Users\admin\AppData\Local\Temp\ccvSpBEW.s:592    .text.TFT_init:00000000000001c8 .L0 
C:\Users\admin\AppData\Local\Temp\ccvSpBEW.s:596    .text.TFT_init:00000000000001d2 .L0 
C:\Users\admin\AppData\Local\Temp\ccvSpBEW.s:600    .text.TFT_init:00000000000001dc .L0 
C:\Users\admin\AppData\Local\Temp\ccvSpBEW.s:604    .text.TFT_init:00000000000001e6 .L0 
C:\Users\admin\AppData\Local\Temp\ccvSpBEW.s:608    .text.TFT_init:00000000000001f0 .L0 
C:\Users\admin\AppData\Local\Temp\ccvSpBEW.s:612    .text.TFT_init:00000000000001fa .L0 
C:\Users\admin\AppData\Local\Temp\ccvSpBEW.s:616    .text.TFT_init:0000000000000206 .L0 
C:\Users\admin\AppData\Local\Temp\ccvSpBEW.s:620    .text.TFT_init:0000000000000212 .L0 
C:\Users\admin\AppData\Local\Temp\ccvSpBEW.s:624    .text.TFT_init:000000000000021e .L0 
C:\Users\admin\AppData\Local\Temp\ccvSpBEW.s:628    .text.TFT_init:0000000000000228 .L0 
C:\Users\admin\AppData\Local\Temp\ccvSpBEW.s:632    .text.TFT_init:0000000000000232 .L0 
C:\Users\admin\AppData\Local\Temp\ccvSpBEW.s:636    .text.TFT_init:000000000000023c .L0 
C:\Users\admin\AppData\Local\Temp\ccvSpBEW.s:640    .text.TFT_init:0000000000000248 .L0 
C:\Users\admin\AppData\Local\Temp\ccvSpBEW.s:644    .text.TFT_init:0000000000000254 .L0 
C:\Users\admin\AppData\Local\Temp\ccvSpBEW.s:648    .text.TFT_init:0000000000000260 .L0 
C:\Users\admin\AppData\Local\Temp\ccvSpBEW.s:652    .text.TFT_init:000000000000026c .L0 
C:\Users\admin\AppData\Local\Temp\ccvSpBEW.s:656    .text.TFT_init:0000000000000276 .L0 
C:\Users\admin\AppData\Local\Temp\ccvSpBEW.s:660    .text.TFT_init:0000000000000280 .L0 
C:\Users\admin\AppData\Local\Temp\ccvSpBEW.s:664    .text.TFT_init:000000000000028a .L0 
C:\Users\admin\AppData\Local\Temp\ccvSpBEW.s:668    .text.TFT_init:0000000000000294 .L0 
C:\Users\admin\AppData\Local\Temp\ccvSpBEW.s:672    .text.TFT_init:000000000000029e .L0 
C:\Users\admin\AppData\Local\Temp\ccvSpBEW.s:676    .text.TFT_init:00000000000002aa .L0 
C:\Users\admin\AppData\Local\Temp\ccvSpBEW.s:680    .text.TFT_init:00000000000002b6 .L0 
C:\Users\admin\AppData\Local\Temp\ccvSpBEW.s:684    .text.TFT_init:00000000000002c2 .L0 
C:\Users\admin\AppData\Local\Temp\ccvSpBEW.s:688    .text.TFT_init:00000000000002ce .L0 
C:\Users\admin\AppData\Local\Temp\ccvSpBEW.s:692    .text.TFT_init:00000000000002d8 .L0 
C:\Users\admin\AppData\Local\Temp\ccvSpBEW.s:696    .text.TFT_init:00000000000002e2 .L0 
C:\Users\admin\AppData\Local\Temp\ccvSpBEW.s:700    .text.TFT_init:00000000000002ee .L0 
C:\Users\admin\AppData\Local\Temp\ccvSpBEW.s:704    .text.TFT_init:00000000000002fa .L0 
C:\Users\admin\AppData\Local\Temp\ccvSpBEW.s:708    .text.TFT_init:0000000000000306 .L0 
C:\Users\admin\AppData\Local\Temp\ccvSpBEW.s:709    .text.TFT_init:0000000000000308 .L0 
C:\Users\admin\AppData\Local\Temp\ccvSpBEW.s:711    .text.TFT_init:0000000000000308 .L0 
C:\Users\admin\AppData\Local\Temp\ccvSpBEW.s:713    .text.TFT_init:000000000000030c .L0 
C:\Users\admin\AppData\Local\Temp\ccvSpBEW.s:714    .text.TFT_init:000000000000030e .L0 
C:\Users\admin\AppData\Local\Temp\ccvSpBEW.s:716    .text.TFT_init:000000000000030e .L0 
C:\Users\admin\AppData\Local\Temp\ccvSpBEW.s:718    .text.TFT_init:0000000000000316 .L0 
C:\Users\admin\AppData\Local\Temp\ccvSpBEW.s:725    .text.display_char16_16:0000000000000000 display_char16_16
C:\Users\admin\AppData\Local\Temp\ccvSpBEW.s:728    .text.display_char16_16:0000000000000000 .L0 
C:\Users\admin\AppData\Local\Temp\ccvSpBEW.s:730    .text.display_char16_16:0000000000000000 .L0 
C:\Users\admin\AppData\Local\Temp\ccvSpBEW.s:731    .text.display_char16_16:0000000000000002 .L0 
C:\Users\admin\AppData\Local\Temp\ccvSpBEW.s:733    .text.display_char16_16:0000000000000004 .L0 
C:\Users\admin\AppData\Local\Temp\ccvSpBEW.s:736    .text.display_char16_16:0000000000000006 .L0 
C:\Users\admin\AppData\Local\Temp\ccvSpBEW.s:739    .text.display_char16_16:000000000000000a .L0 
C:\Users\admin\AppData\Local\Temp\ccvSpBEW.s:742    .text.display_char16_16:0000000000000010 .L0 
C:\Users\admin\AppData\Local\Temp\ccvSpBEW.s:743    .text.display_char16_16:0000000000000010 .L0 
C:\Users\admin\AppData\Local\Temp\ccvSpBEW.s:744    .text.display_char16_16:0000000000000010 .L0 
C:\Users\admin\AppData\Local\Temp\ccvSpBEW.s:748    .text.display_char16_16:0000000000000016 .L0 
C:\Users\admin\AppData\Local\Temp\ccvSpBEW.s:749    .text.display_char16_16:0000000000000016 .L0 
C:\Users\admin\AppData\Local\Temp\ccvSpBEW.s:752    .text.display_char16_16:000000000000001a .L0 
C:\Users\admin\AppData\Local\Temp\ccvSpBEW.s:754    .text.display_char16_16:000000000000001a .L0 
C:\Users\admin\AppData\Local\Temp\ccvSpBEW.s:756    .text.display_char16_16:000000000000001c .L0 
C:\Users\admin\AppData\Local\Temp\ccvSpBEW.s:759    .text.display_char16_16:0000000000000024 .L0 
C:\Users\admin\AppData\Local\Temp\ccvSpBEW.s:764    .text.display_char16_16:0000000000000034 .L0 
C:\Users\admin\AppData\Local\Temp\ccvSpBEW.s:768    .text.display_char16_16:0000000000000040 .L0 
C:\Users\admin\AppData\Local\Temp\ccvSpBEW.s:771    .text.display_char16_16:0000000000000042 .L0 
C:\Users\admin\AppData\Local\Temp\ccvSpBEW.s:776    .text.display_char16_16:0000000000000052 .L0 
C:\Users\admin\AppData\Local\Temp\ccvSpBEW.s:780    .text.display_char16_16:000000000000005e .L0 
C:\Users\admin\AppData\Local\Temp\ccvSpBEW.s:784    .text.display_char16_16:000000000000006a .L0 
C:\Users\admin\AppData\Local\Temp\ccvSpBEW.s:789    .text.display_char16_16:000000000000007a .L0 
C:\Users\admin\AppData\Local\Temp\ccvSpBEW.s:793    .text.display_char16_16:0000000000000086 .L0 
C:\Users\admin\AppData\Local\Temp\ccvSpBEW.s:796    .text.display_char16_16:0000000000000088 .L0 
C:\Users\admin\AppData\Local\Temp\ccvSpBEW.s:801    .text.display_char16_16:0000000000000098 .L0 
C:\Users\admin\AppData\Local\Temp\ccvSpBEW.s:805    .text.display_char16_16:00000000000000a4 .L0 
C:\Users\admin\AppData\Local\Temp\ccvSpBEW.s:1090   .rodata.chines_word:0000000000000000 chines_word
C:\Users\admin\AppData\Local\Temp\ccvSpBEW.s:812    .text.display_char16_16:00000000000000bc .L0 
C:\Users\admin\AppData\Local\Temp\ccvSpBEW.s:818    .text.display_char16_16:00000000000000cc .L0 
C:\Users\admin\AppData\Local\Temp\ccvSpBEW.s:822    .text.display_char16_16:00000000000000d0 .L0 
C:\Users\admin\AppData\Local\Temp\ccvSpBEW.s:829    .text.display_char16_16:00000000000000d8 .L0 
C:\Users\admin\AppData\Local\Temp\ccvSpBEW.s:835    .text.display_char16_16:00000000000000e4 .L0 
C:\Users\admin\AppData\Local\Temp\ccvSpBEW.s:840    .text.display_char16_16:00000000000000f2 .L0 
C:\Users\admin\AppData\Local\Temp\ccvSpBEW.s:843    .text.display_char16_16:00000000000000f4 .L0 
C:\Users\admin\AppData\Local\Temp\ccvSpBEW.s:847    .text.display_char16_16:00000000000000f6 .L0 
C:\Users\admin\AppData\Local\Temp\ccvSpBEW.s:849    .text.display_char16_16:00000000000000fa .L0 
C:\Users\admin\AppData\Local\Temp\ccvSpBEW.s:851    .text.display_char16_16:00000000000000fe .L0 
C:\Users\admin\AppData\Local\Temp\ccvSpBEW.s:853    .text.display_char16_16:0000000000000100 .L0 
C:\Users\admin\AppData\Local\Temp\ccvSpBEW.s:858    .text.display_char16_16:000000000000010a .L0 
C:\Users\admin\AppData\Local\Temp\ccvSpBEW.s:863    .text.display_char16_16:000000000000011a .L0 
C:\Users\admin\AppData\Local\Temp\ccvSpBEW.s:866    .text.display_char16_16:000000000000011c .L0 
C:\Users\admin\AppData\Local\Temp\ccvSpBEW.s:870    .text.display_char16_16:0000000000000120 .L0 
C:\Users\admin\AppData\Local\Temp\ccvSpBEW.s:872    .text.display_char16_16:0000000000000124 .L0 
C:\Users\admin\AppData\Local\Temp\ccvSpBEW.s:873    .text.display_char16_16:0000000000000126 .L0 
C:\Users\admin\AppData\Local\Temp\ccvSpBEW.s:875    .text.display_char16_16:0000000000000128 .L0 
C:\Users\admin\AppData\Local\Temp\ccvSpBEW.s:877    .text.display_char16_16:000000000000012a .L0 
C:\Users\admin\AppData\Local\Temp\ccvSpBEW.s:880    .text.display_char16_16:000000000000012c .L0 
C:\Users\admin\AppData\Local\Temp\ccvSpBEW.s:882    .text.display_char16_16:000000000000012e .L0 
C:\Users\admin\AppData\Local\Temp\ccvSpBEW.s:884    .text.display_char16_16:0000000000000130 .L0 
C:\Users\admin\AppData\Local\Temp\ccvSpBEW.s:886    .text.display_char16_16:0000000000000132 .L0 
C:\Users\admin\AppData\Local\Temp\ccvSpBEW.s:888    .text.display_char16_16:0000000000000134 .L0 
C:\Users\admin\AppData\Local\Temp\ccvSpBEW.s:890    .text.display_char16_16:0000000000000136 .L0 
C:\Users\admin\AppData\Local\Temp\ccvSpBEW.s:897    .text.IO_init:0000000000000000 IO_init
C:\Users\admin\AppData\Local\Temp\ccvSpBEW.s:900    .text.IO_init:0000000000000000 .L0 
C:\Users\admin\AppData\Local\Temp\ccvSpBEW.s:901    .text.IO_init:0000000000000000 .L0 
C:\Users\admin\AppData\Local\Temp\ccvSpBEW.s:902    .text.IO_init:0000000000000000 .L0 
C:\Users\admin\AppData\Local\Temp\ccvSpBEW.s:907    .text.IO_init:000000000000000a .L0 
C:\Users\admin\AppData\Local\Temp\ccvSpBEW.s:908    .text.IO_init:000000000000000c .L0 
C:\Users\admin\AppData\Local\Temp\ccvSpBEW.s:915    .text.TFT_show:0000000000000000 TFT_show
C:\Users\admin\AppData\Local\Temp\ccvSpBEW.s:918    .text.TFT_show:0000000000000000 .L0 
C:\Users\admin\AppData\Local\Temp\ccvSpBEW.s:920    .text.TFT_show:0000000000000000 .L0 
C:\Users\admin\AppData\Local\Temp\ccvSpBEW.s:921    .text.TFT_show:0000000000000002 .L0 
C:\Users\admin\AppData\Local\Temp\ccvSpBEW.s:923    .text.TFT_show:0000000000000004 .L0 
C:\Users\admin\AppData\Local\Temp\ccvSpBEW.s:926    .text.TFT_show:0000000000000006 .L0 
C:\Users\admin\AppData\Local\Temp\ccvSpBEW.s:929    .text.TFT_show:000000000000000a .L0 
C:\Users\admin\AppData\Local\Temp\ccvSpBEW.s:934    .text.TFT_show:0000000000000014 .L0 
C:\Users\admin\AppData\Local\Temp\ccvSpBEW.s:935    .text.TFT_show:0000000000000014 .L0 
C:\Users\admin\AppData\Local\Temp\ccvSpBEW.s:936    .text.TFT_show:0000000000000014 .L0 
C:\Users\admin\AppData\Local\Temp\ccvSpBEW.s:937    .text.TFT_show:0000000000000014 .L0 
C:\Users\admin\AppData\Local\Temp\ccvSpBEW.s:938    .text.TFT_show:0000000000000014 .L0 
C:\Users\admin\AppData\Local\Temp\ccvSpBEW.s:943    .text.TFT_show:000000000000001c .L0 
C:\Users\admin\AppData\Local\Temp\ccvSpBEW.s:944    .text.TFT_show:000000000000001c .L0 
C:\Users\admin\AppData\Local\Temp\ccvSpBEW.s:945    .text.TFT_show:000000000000001c .L0 
C:\Users\admin\AppData\Local\Temp\ccvSpBEW.s:947    .text.TFT_show:000000000000001c .L0 
C:\Users\admin\AppData\Local\Temp\ccvSpBEW.s:950    .text.TFT_show:0000000000000024 .L0 
C:\Users\admin\AppData\Local\Temp\ccvSpBEW.s:954    .text.TFT_show:000000000000002e .L0 
C:\Users\admin\AppData\Local\Temp\ccvSpBEW.s:958    .text.TFT_show:0000000000000038 .L0 
C:\Users\admin\AppData\Local\Temp\ccvSpBEW.s:962    .text.TFT_show:0000000000000042 .L0 
C:\Users\admin\AppData\Local\Temp\ccvSpBEW.s:966    .text.TFT_show:000000000000004e .L0 
C:\Users\admin\AppData\Local\Temp\ccvSpBEW.s:970    .text.TFT_show:000000000000005a .L0 
C:\Users\admin\AppData\Local\Temp\ccvSpBEW.s:974    .text.TFT_show:0000000000000064 .L0 
C:\Users\admin\AppData\Local\Temp\ccvSpBEW.s:978    .text.TFT_show:000000000000006e .L0 
C:\Users\admin\AppData\Local\Temp\ccvSpBEW.s:982    .text.TFT_show:0000000000000078 .L0 
C:\Users\admin\AppData\Local\Temp\ccvSpBEW.s:986    .text.TFT_show:0000000000000084 .L0 
C:\Users\admin\AppData\Local\Temp\ccvSpBEW.s:988    .text.TFT_show:0000000000000088 .L0 
C:\Users\admin\AppData\Local\Temp\ccvSpBEW.s:990    .text.TFT_show:000000000000008c .L0 
C:\Users\admin\AppData\Local\Temp\ccvSpBEW.s:994    .text.TFT_show:0000000000000098 .L0 
C:\Users\admin\AppData\Local\Temp\ccvSpBEW.s:996    .text.TFT_show:000000000000009c .L0 
C:\Users\admin\AppData\Local\Temp\ccvSpBEW.s:999    .text.TFT_show:00000000000000a4 .L0 
C:\Users\admin\AppData\Local\Temp\ccvSpBEW.s:1002   .text.TFT_show:00000000000000a8 .L0 
C:\Users\admin\AppData\Local\Temp\ccvSpBEW.s:1005   .text.TFT_show:00000000000000ac .L0 
C:\Users\admin\AppData\Local\Temp\ccvSpBEW.s:1009   .text.TFT_show:00000000000000b0 .L0 
C:\Users\admin\AppData\Local\Temp\ccvSpBEW.s:1014   .text.TFT_show:00000000000000ba .L0 
C:\Users\admin\AppData\Local\Temp\ccvSpBEW.s:1019   .text.TFT_show:00000000000000be .L0 
C:\Users\admin\AppData\Local\Temp\ccvSpBEW.s:1022   .text.TFT_show:00000000000000c6 .L0 
C:\Users\admin\AppData\Local\Temp\ccvSpBEW.s:1024   .text.TFT_show:00000000000000c8 .L0 
C:\Users\admin\AppData\Local\Temp\ccvSpBEW.s:1027   .text.TFT_show:00000000000000ca .L0 
C:\Users\admin\AppData\Local\Temp\ccvSpBEW.s:1030   .text.TFT_show:00000000000000d2 .L0 
C:\Users\admin\AppData\Local\Temp\ccvSpBEW.s:1034   .text.TFT_show:00000000000000d6 .L0 
C:\Users\admin\AppData\Local\Temp\ccvSpBEW.s:1036   .text.TFT_show:00000000000000d8 .L0 
C:\Users\admin\AppData\Local\Temp\ccvSpBEW.s:1038   .text.TFT_show:00000000000000dc .L0 
C:\Users\admin\AppData\Local\Temp\ccvSpBEW.s:1042   .text.TFT_show:00000000000000e6 .L0 
C:\Users\admin\AppData\Local\Temp\ccvSpBEW.s:1044   .text.TFT_show:00000000000000e8 .L0 
C:\Users\admin\AppData\Local\Temp\ccvSpBEW.s:1047   .text.TFT_show:00000000000000ea .L0 
C:\Users\admin\AppData\Local\Temp\ccvSpBEW.s:1050   .text.TFT_show:00000000000000f2 .L0 
C:\Users\admin\AppData\Local\Temp\ccvSpBEW.s:1056   .text.TFT_show:00000000000000f8 .L0 
C:\Users\admin\AppData\Local\Temp\ccvSpBEW.s:1058   .text.TFT_show:00000000000000fc .L0 
C:\Users\admin\AppData\Local\Temp\ccvSpBEW.s:1059   .text.TFT_show:00000000000000fe .L0 
C:\Users\admin\AppData\Local\Temp\ccvSpBEW.s:1061   .text.TFT_show:0000000000000100 .L0 
C:\Users\admin\AppData\Local\Temp\ccvSpBEW.s:1064   .text.TFT_show:0000000000000102 .L0 
C:\Users\admin\AppData\Local\Temp\ccvSpBEW.s:1067   .text.TFT_show:0000000000000104 .L0 
C:\Users\admin\AppData\Local\Temp\ccvSpBEW.s:1069   .text.TFT_show:0000000000000106 .L0 
C:\Users\admin\AppData\Local\Temp\ccvSpBEW.s:1071   .text.TFT_show:0000000000000108 .L0 
C:\Users\admin\AppData\Local\Temp\ccvSpBEW.s:1073   .text.TFT_show:000000000000010a .L0 
C:\Users\admin\AppData\Local\Temp\ccvSpBEW.s:1075   .text.TFT_show:000000000000010c .L0 
C:\Users\admin\AppData\Local\Temp\ccvSpBEW.s:1077   .text.TFT_show:000000000000010e .L0 
C:\Users\admin\AppData\Local\Temp\ccvSpBEW.s:1080   .text.TFT_show:0000000000000110 .L0 
C:\Users\admin\AppData\Local\Temp\ccvSpBEW.s:1082   .text.TFT_show:0000000000000112 .L0 
C:\Users\admin\AppData\Local\Temp\ccvSpBEW.s:21     .text.delay_us:0000000000000002 .L0 
C:\Users\admin\AppData\Local\Temp\ccvSpBEW.s:99     .text.SPI_SendByte:000000000000004e .L0 
C:\Users\admin\AppData\Local\Temp\ccvSpBEW.s:145    .text.TFT_SEND_CMD:0000000000000030 .L0 
C:\Users\admin\AppData\Local\Temp\ccvSpBEW.s:191    .text.TFT_SEND_DATA:0000000000000030 .L0 
C:\Users\admin\AppData\Local\Temp\ccvSpBEW.s:291    .text.TFT_clear:00000000000000b2 .L0 
C:\Users\admin\AppData\Local\Temp\ccvSpBEW.s:408    .text.TFT_full:00000000000000c6 .L0 
C:\Users\admin\AppData\Local\Temp\ccvSpBEW.s:721    .text.TFT_init:0000000000000316 .L0 
C:\Users\admin\AppData\Local\Temp\ccvSpBEW.s:893    .text.display_char16_16:0000000000000136 .L0 
C:\Users\admin\AppData\Local\Temp\ccvSpBEW.s:911    .text.IO_init:000000000000000c .L0 
C:\Users\admin\AppData\Local\Temp\ccvSpBEW.s:1086   .text.TFT_show:0000000000000112 .L0 
                     .debug_frame:0000000000000000 .L0 
C:\Users\admin\AppData\Local\Temp\ccvSpBEW.s:71     .text.SPI_SendByte:0000000000000028 .L7
C:\Users\admin\AppData\Local\Temp\ccvSpBEW.s:89     .text.SPI_SendByte:0000000000000044 .L9
C:\Users\admin\AppData\Local\Temp\ccvSpBEW.s:47     .text.SPI_SendByte:0000000000000006 .L10
C:\Users\admin\AppData\Local\Temp\ccvSpBEW.s:52     .text.SPI_SendByte:000000000000000e .L6
C:\Users\admin\AppData\Local\Temp\ccvSpBEW.s:259    .text.TFT_clear:0000000000000088 .L17
C:\Users\admin\AppData\Local\Temp\ccvSpBEW.s:255    .text.TFT_clear:0000000000000084 .L16
C:\Users\admin\AppData\Local\Temp\ccvSpBEW.s:372    .text.TFT_full:000000000000009a .L23
C:\Users\admin\AppData\Local\Temp\ccvSpBEW.s:368    .text.TFT_full:0000000000000096 .L22
C:\Users\admin\AppData\Local\Temp\ccvSpBEW.s:844    .text.display_char16_16:00000000000000f6 .L32
C:\Users\admin\AppData\Local\Temp\ccvSpBEW.s:867    .text.display_char16_16:000000000000011e .L37
C:\Users\admin\AppData\Local\Temp\ccvSpBEW.s:827    .text.display_char16_16:00000000000000d8 .L38
C:\Users\admin\AppData\Local\Temp\ccvSpBEW.s:820    .text.display_char16_16:00000000000000d0 .L33
C:\Users\admin\AppData\Local\Temp\ccvSpBEW.s:1032   .text.TFT_show:00000000000000d6 .L43
C:\Users\admin\AppData\Local\Temp\ccvSpBEW.s:1051   .text.TFT_show:00000000000000f6 .L48
C:\Users\admin\AppData\Local\Temp\ccvSpBEW.s:1017   .text.TFT_show:00000000000000be .L41
C:\Users\admin\AppData\Local\Temp\ccvSpBEW.s:1007   .text.TFT_show:00000000000000b0 .L44
C:\Users\admin\AppData\Local\Temp\ccvSpBEW.s:6466   .debug_abbrev:0000000000000000 .Ldebug_abbrev0
C:\Users\admin\AppData\Local\Temp\ccvSpBEW.s:7759   .debug_str:00000000000002b1 .LASF145
C:\Users\admin\AppData\Local\Temp\ccvSpBEW.s:7791   .debug_str:00000000000003d4 .LASF146
C:\Users\admin\AppData\Local\Temp\ccvSpBEW.s:7883   .debug_str:0000000000000585 .LASF147
C:\Users\admin\AppData\Local\Temp\ccvSpBEW.s:7595   .debug_ranges:0000000000000000 .Ldebug_ranges0
C:\Users\admin\AppData\Local\Temp\ccvSpBEW.s:7619   .debug_line:0000000000000000 .Ldebug_line0
C:\Users\admin\AppData\Local\Temp\ccvSpBEW.s:7655   .debug_str:00000000000000d2 .LASF0
C:\Users\admin\AppData\Local\Temp\ccvSpBEW.s:7803   .debug_str:0000000000000422 .LASF1
C:\Users\admin\AppData\Local\Temp\ccvSpBEW.s:7809   .debug_str:000000000000043e .LASF2
C:\Users\admin\AppData\Local\Temp\ccvSpBEW.s:7745   .debug_str:0000000000000265 .LASF3
C:\Users\admin\AppData\Local\Temp\ccvSpBEW.s:7675   .debug_str:000000000000012e .LASF4
C:\Users\admin\AppData\Local\Temp\ccvSpBEW.s:7705   .debug_str:00000000000001b1 .LASF10
C:\Users\admin\AppData\Local\Temp\ccvSpBEW.s:7737   .debug_str:000000000000023c .LASF5
C:\Users\admin\AppData\Local\Temp\ccvSpBEW.s:7653   .debug_str:00000000000000c4 .LASF6
C:\Users\admin\AppData\Local\Temp\ccvSpBEW.s:7637   .debug_str:0000000000000058 .LASF7
C:\Users\admin\AppData\Local\Temp\ccvSpBEW.s:7729   .debug_str:0000000000000218 .LASF8
C:\Users\admin\AppData\Local\Temp\ccvSpBEW.s:7779   .debug_str:000000000000039e .LASF9
C:\Users\admin\AppData\Local\Temp\ccvSpBEW.s:7799   .debug_str:0000000000000402 .LASF11
C:\Users\admin\AppData\Local\Temp\ccvSpBEW.s:7789   .debug_str:00000000000003cd .LASF12
C:\Users\admin\AppData\Local\Temp\ccvSpBEW.s:7855   .debug_str:0000000000000513 .LASF13
C:\Users\admin\AppData\Local\Temp\ccvSpBEW.s:7899   .debug_str:0000000000000665 .LASF14
C:\Users\admin\AppData\Local\Temp\ccvSpBEW.s:7761   .debug_str:0000000000000353 .LASF15
C:\Users\admin\AppData\Local\Temp\ccvSpBEW.s:7757   .debug_str:00000000000002ab .LASF16
C:\Users\admin\AppData\Local\Temp\ccvSpBEW.s:7731   .debug_str:0000000000000225 .LASF17
C:\Users\admin\AppData\Local\Temp\ccvSpBEW.s:7847   .debug_str:00000000000004f1 .LASF18
C:\Users\admin\AppData\Local\Temp\ccvSpBEW.s:7849   .debug_str:00000000000004f9 .LASF19
C:\Users\admin\AppData\Local\Temp\ccvSpBEW.s:7819   .debug_str:0000000000000466 .LASF20
C:\Users\admin\AppData\Local\Temp\ccvSpBEW.s:7711   .debug_str:00000000000001cb .LASF21
C:\Users\admin\AppData\Local\Temp\ccvSpBEW.s:7881   .debug_str:000000000000057d .LASF22
C:\Users\admin\AppData\Local\Temp\ccvSpBEW.s:7715   .debug_str:00000000000001dc .LASF27
C:\Users\admin\AppData\Local\Temp\ccvSpBEW.s:7871   .debug_str:0000000000000555 .LASF23
C:\Users\admin\AppData\Local\Temp\ccvSpBEW.s:7839   .debug_str:00000000000004cf .LASF24
C:\Users\admin\AppData\Local\Temp\ccvSpBEW.s:7707   .debug_str:00000000000001bc .LASF25
C:\Users\admin\AppData\Local\Temp\ccvSpBEW.s:7893   .debug_str:0000000000000650 .LASF26
C:\Users\admin\AppData\Local\Temp\ccvSpBEW.s:7725   .debug_str:000000000000020a .LASF28
C:\Users\admin\AppData\Local\Temp\ccvSpBEW.s:7651   .debug_str:00000000000000bb .LASF29
C:\Users\admin\AppData\Local\Temp\ccvSpBEW.s:7863   .debug_str:0000000000000534 .LASF30
C:\Users\admin\AppData\Local\Temp\ccvSpBEW.s:7661   .debug_str:00000000000000ea .LASF31
C:\Users\admin\AppData\Local\Temp\ccvSpBEW.s:7921   .debug_str:00000000000006c9 .LASF32
C:\Users\admin\AppData\Local\Temp\ccvSpBEW.s:7783   .debug_str:00000000000003b1 .LASF33
C:\Users\admin\AppData\Local\Temp\ccvSpBEW.s:7775   .debug_str:000000000000038b .LASF34
C:\Users\admin\AppData\Local\Temp\ccvSpBEW.s:7895   .debug_str:0000000000000655 .LASF35
C:\Users\admin\AppData\Local\Temp\ccvSpBEW.s:7811   .debug_str:0000000000000448 .LASF36
C:\Users\admin\AppData\Local\Temp\ccvSpBEW.s:7909   .debug_str:0000000000000690 .LASF37
C:\Users\admin\AppData\Local\Temp\ccvSpBEW.s:7665   .debug_str:00000000000000f9 .LASF38
C:\Users\admin\AppData\Local\Temp\ccvSpBEW.s:7699   .debug_str:000000000000019f .LASF39
C:\Users\admin\AppData\Local\Temp\ccvSpBEW.s:7621   .debug_str:0000000000000000 .LASF40
C:\Users\admin\AppData\Local\Temp\ccvSpBEW.s:7875   .debug_str:0000000000000568 .LASF41
C:\Users\admin\AppData\Local\Temp\ccvSpBEW.s:7681   .debug_str:0000000000000147 .LASF42
C:\Users\admin\AppData\Local\Temp\ccvSpBEW.s:7785   .debug_str:00000000000003ba .LASF43
C:\Users\admin\AppData\Local\Temp\ccvSpBEW.s:7831   .debug_str:000000000000049f .LASF44
C:\Users\admin\AppData\Local\Temp\ccvSpBEW.s:7703   .debug_str:00000000000001ac .LASF45
C:\Users\admin\AppData\Local\Temp\ccvSpBEW.s:7813   .debug_str:0000000000000452 .LASF46
C:\Users\admin\AppData\Local\Temp\ccvSpBEW.s:7659   .debug_str:00000000000000e4 .LASF47
C:\Users\admin\AppData\Local\Temp\ccvSpBEW.s:7623   .debug_str:000000000000000c .LASF48
C:\Users\admin\AppData\Local\Temp\ccvSpBEW.s:7821   .debug_str:0000000000000471 .LASF49
C:\Users\admin\AppData\Local\Temp\ccvSpBEW.s:7679   .debug_str:0000000000000140 .LASF50
C:\Users\admin\AppData\Local\Temp\ccvSpBEW.s:7739   .debug_str:000000000000024e .LASF51
C:\Users\admin\AppData\Local\Temp\ccvSpBEW.s:7641   .debug_str:0000000000000077 .LASF52
C:\Users\admin\AppData\Local\Temp\ccvSpBEW.s:7667   .debug_str:0000000000000107 .LASF53
C:\Users\admin\AppData\Local\Temp\ccvSpBEW.s:7721   .debug_str:00000000000001fa .LASF54
C:\Users\admin\AppData\Local\Temp\ccvSpBEW.s:7773   .debug_str:0000000000000384 .LASF55
C:\Users\admin\AppData\Local\Temp\ccvSpBEW.s:7851   .debug_str:0000000000000501 .LASF56
C:\Users\admin\AppData\Local\Temp\ccvSpBEW.s:7913   .debug_str:00000000000006aa .LASF57
C:\Users\admin\AppData\Local\Temp\ccvSpBEW.s:7657   .debug_str:00000000000000de .LASF58
C:\Users\admin\AppData\Local\Temp\ccvSpBEW.s:7905   .debug_str:0000000000000682 .LASF59
C:\Users\admin\AppData\Local\Temp\ccvSpBEW.s:7685   .debug_str:0000000000000156 .LASF60
C:\Users\admin\AppData\Local\Temp\ccvSpBEW.s:7691   .debug_str:000000000000016f .LASF61
C:\Users\admin\AppData\Local\Temp\ccvSpBEW.s:7631   .debug_str:0000000000000032 .LASF62
C:\Users\admin\AppData\Local\Temp\ccvSpBEW.s:7763   .debug_str:000000000000035a .LASF63
C:\Users\admin\AppData\Local\Temp\ccvSpBEW.s:7823   .debug_str:0000000000000479 .LASF64
C:\Users\admin\AppData\Local\Temp\ccvSpBEW.s:7767   .debug_str:000000000000036a .LASF65
C:\Users\admin\AppData\Local\Temp\ccvSpBEW.s:7841   .debug_str:00000000000004d7 .LASF66
C:\Users\admin\AppData\Local\Temp\ccvSpBEW.s:7859   .debug_str:0000000000000528 .LASF67
C:\Users\admin\AppData\Local\Temp\ccvSpBEW.s:7683   .debug_str:000000000000014f .LASF68
C:\Users\admin\AppData\Local\Temp\ccvSpBEW.s:7733   .debug_str:000000000000022c .LASF69
C:\Users\admin\AppData\Local\Temp\ccvSpBEW.s:7713   .debug_str:00000000000001d4 .LASF70
C:\Users\admin\AppData\Local\Temp\ccvSpBEW.s:7829   .debug_str:000000000000049a .LASF71
C:\Users\admin\AppData\Local\Temp\ccvSpBEW.s:7627   .debug_str:000000000000001a .LASF72
C:\Users\admin\AppData\Local\Temp\ccvSpBEW.s:7837   .debug_str:00000000000004b6 .LASF73
C:\Users\admin\AppData\Local\Temp\ccvSpBEW.s:7833   .debug_str:00000000000004a4 .LASF74
C:\Users\admin\AppData\Local\Temp\ccvSpBEW.s:7787   .debug_str:00000000000003c2 .LASF75
C:\Users\admin\AppData\Local\Temp\ccvSpBEW.s:7835   .debug_str:00000000000004ac .LASF76
C:\Users\admin\AppData\Local\Temp\ccvSpBEW.s:7755   .debug_str:00000000000002a3 .LASF77
C:\Users\admin\AppData\Local\Temp\ccvSpBEW.s:7723   .debug_str:0000000000000200 .LASF78
C:\Users\admin\AppData\Local\Temp\ccvSpBEW.s:7919   .debug_str:00000000000006c4 .LASF79
C:\Users\admin\AppData\Local\Temp\ccvSpBEW.s:7797   .debug_str:00000000000003f8 .LASF80
C:\Users\admin\AppData\Local\Temp\ccvSpBEW.s:7735   .debug_str:0000000000000234 .LASF81
C:\Users\admin\AppData\Local\Temp\ccvSpBEW.s:7689   .debug_str:0000000000000167 .LASF82
C:\Users\admin\AppData\Local\Temp\ccvSpBEW.s:7805   .debug_str:0000000000000430 .LASF83
C:\Users\admin\AppData\Local\Temp\ccvSpBEW.s:7749   .debug_str:0000000000000281 .LASF84
C:\Users\admin\AppData\Local\Temp\ccvSpBEW.s:7903   .debug_str:0000000000000678 .LASF85
C:\Users\admin\AppData\Local\Temp\ccvSpBEW.s:7671   .debug_str:0000000000000121 .LASF86
C:\Users\admin\AppData\Local\Temp\ccvSpBEW.s:7663   .debug_str:00000000000000f4 .LASF87
C:\Users\admin\AppData\Local\Temp\ccvSpBEW.s:7861   .debug_str:000000000000052f .LASF88
C:\Users\admin\AppData\Local\Temp\ccvSpBEW.s:7817   .debug_str:000000000000045f .LASF89
C:\Users\admin\AppData\Local\Temp\ccvSpBEW.s:7897   .debug_str:000000000000065f .LASF90
C:\Users\admin\AppData\Local\Temp\ccvSpBEW.s:7743   .debug_str:000000000000025e .LASF91
C:\Users\admin\AppData\Local\Temp\ccvSpBEW.s:7815   .debug_str:0000000000000459 .LASF92
C:\Users\admin\AppData\Local\Temp\ccvSpBEW.s:7625   .debug_str:0000000000000012 .LASF93
C:\Users\admin\AppData\Local\Temp\ccvSpBEW.s:7845   .debug_str:00000000000004eb .LASF94
C:\Users\admin\AppData\Local\Temp\ccvSpBEW.s:7869   .debug_str:000000000000054f .LASF95
C:\Users\admin\AppData\Local\Temp\ccvSpBEW.s:7879   .debug_str:0000000000000578 .LASF96
C:\Users\admin\AppData\Local\Temp\ccvSpBEW.s:7889   .debug_str:0000000000000639 .LASF97
C:\Users\admin\AppData\Local\Temp\ccvSpBEW.s:7873   .debug_str:000000000000055b .LASF98
C:\Users\admin\AppData\Local\Temp\ccvSpBEW.s:7753   .debug_str:0000000000000296 .LASF99
C:\Users\admin\AppData\Local\Temp\ccvSpBEW.s:7911   .debug_str:000000000000069b .LASF100
C:\Users\admin\AppData\Local\Temp\ccvSpBEW.s:7717   .debug_str:00000000000001e4 .LASF101
C:\Users\admin\AppData\Local\Temp\ccvSpBEW.s:7825   .debug_str:0000000000000482 .LASF102
C:\Users\admin\AppData\Local\Temp\ccvSpBEW.s:7915   .debug_str:00000000000006b1 .LASF103
C:\Users\admin\AppData\Local\Temp\ccvSpBEW.s:7827   .debug_str:000000000000048d .LASF104
C:\Users\admin\AppData\Local\Temp\ccvSpBEW.s:7917   .debug_str:00000000000006b6 .LASF105
C:\Users\admin\AppData\Local\Temp\ccvSpBEW.s:7649   .debug_str:00000000000000ad .LASF106
C:\Users\admin\AppData\Local\Temp\ccvSpBEW.s:7901   .debug_str:000000000000066e .LASF107
C:\Users\admin\AppData\Local\Temp\ccvSpBEW.s:7751   .debug_str:000000000000028a .LASF108
C:\Users\admin\AppData\Local\Temp\ccvSpBEW.s:7629   .debug_str:0000000000000025 .LASF109
C:\Users\admin\AppData\Local\Temp\ccvSpBEW.s:7697   .debug_str:0000000000000191 .LASF110
C:\Users\admin\AppData\Local\Temp\ccvSpBEW.s:7647   .debug_str:000000000000009e .LASF111
C:\Users\admin\AppData\Local\Temp\ccvSpBEW.s:7695   .debug_str:0000000000000180 .LASF112
C:\Users\admin\AppData\Local\Temp\ccvSpBEW.s:7633   .debug_str:0000000000000038 .LASF113
C:\Users\admin\AppData\Local\Temp\ccvSpBEW.s:7635   .debug_str:0000000000000047 .LASF114
C:\Users\admin\AppData\Local\Temp\ccvSpBEW.s:7807   .debug_str:0000000000000435 .LASF115
C:\Users\admin\AppData\Local\Temp\ccvSpBEW.s:7781   .debug_str:00000000000003aa .LASF116
C:\Users\admin\AppData\Local\Temp\ccvSpBEW.s:7777   .debug_str:0000000000000395 .LASF117
C:\Users\admin\AppData\Local\Temp\ccvSpBEW.s:7907   .debug_str:0000000000000688 .LASF118
C:\Users\admin\AppData\Local\Temp\ccvSpBEW.s:7645   .debug_str:0000000000000093 .LASF148
C:\Users\admin\AppData\Local\Temp\ccvSpBEW.s:7853   .debug_str:0000000000000507 .LASF119
C:\Users\admin\AppData\Local\Temp\ccvSpBEW.s:7885   .debug_str:000000000000061d .LASF120
C:\Users\admin\AppData\Local\Temp\ccvSpBEW.s:7887   .debug_str:0000000000000630 .LASF121
C:\Users\admin\AppData\Local\Temp\ccvSpBEW.s:7769   .debug_str:0000000000000372 .LASF122
C:\Users\admin\AppData\Local\Temp\ccvSpBEW.s:7693   .debug_str:0000000000000177 .LASF127
C:\Users\admin\AppData\Local\Temp\ccvSpBEW.s:916    .text.TFT_show:0000000000000000 .LFB11
C:\Users\admin\AppData\Local\Temp\ccvSpBEW.s:1083   .text.TFT_show:0000000000000112 .LFE11
C:\Users\admin\AppData\Local\Temp\ccvSpBEW.s:7771   .debug_str:000000000000037e .LASF123
C:\Users\admin\AppData\Local\Temp\ccvSpBEW.s:7122   .debug_loc:0000000000000000 .LLST17
C:\Users\admin\AppData\Local\Temp\ccvSpBEW.s:7793   .debug_str:00000000000003e8 .LASF124
C:\Users\admin\AppData\Local\Temp\ccvSpBEW.s:7140   .debug_loc:000000000000002c .LLST18
C:\Users\admin\AppData\Local\Temp\ccvSpBEW.s:7741   .debug_str:0000000000000254 .LASF125
C:\Users\admin\AppData\Local\Temp\ccvSpBEW.s:7158   .debug_loc:0000000000000058 .LLST19
C:\Users\admin\AppData\Local\Temp\ccvSpBEW.s:7165   .debug_loc:000000000000006b .LLST20
C:\Users\admin\AppData\Local\Temp\ccvSpBEW.s:7719   .debug_str:00000000000001f3 .LASF126
C:\Users\admin\AppData\Local\Temp\ccvSpBEW.s:7200   .debug_loc:00000000000000b2 .LLST21
C:\Users\admin\AppData\Local\Temp\ccvSpBEW.s:948    .text.TFT_show:0000000000000024 .LVL153
C:\Users\admin\AppData\Local\Temp\ccvSpBEW.s:952    .text.TFT_show:000000000000002e .LVL154
C:\Users\admin\AppData\Local\Temp\ccvSpBEW.s:956    .text.TFT_show:0000000000000038 .LVL155
C:\Users\admin\AppData\Local\Temp\ccvSpBEW.s:960    .text.TFT_show:0000000000000042 .LVL156
C:\Users\admin\AppData\Local\Temp\ccvSpBEW.s:964    .text.TFT_show:000000000000004e .LVL157
C:\Users\admin\AppData\Local\Temp\ccvSpBEW.s:968    .text.TFT_show:000000000000005a .LVL158
C:\Users\admin\AppData\Local\Temp\ccvSpBEW.s:972    .text.TFT_show:0000000000000064 .LVL159
C:\Users\admin\AppData\Local\Temp\ccvSpBEW.s:976    .text.TFT_show:000000000000006e .LVL160
C:\Users\admin\AppData\Local\Temp\ccvSpBEW.s:980    .text.TFT_show:0000000000000078 .LVL161
C:\Users\admin\AppData\Local\Temp\ccvSpBEW.s:984    .text.TFT_show:0000000000000084 .LVL162
C:\Users\admin\AppData\Local\Temp\ccvSpBEW.s:992    .text.TFT_show:0000000000000098 .LVL163
C:\Users\admin\AppData\Local\Temp\ccvSpBEW.s:1010   .text.TFT_show:00000000000000b8 .LVL167
C:\Users\admin\AppData\Local\Temp\ccvSpBEW.s:1020   .text.TFT_show:00000000000000c6 .LVL170
C:\Users\admin\AppData\Local\Temp\ccvSpBEW.s:1028   .text.TFT_show:00000000000000d2 .LVL172
C:\Users\admin\AppData\Local\Temp\ccvSpBEW.s:1040   .text.TFT_show:00000000000000e6 .LVL174
C:\Users\admin\AppData\Local\Temp\ccvSpBEW.s:1048   .text.TFT_show:00000000000000f2 .LVL176
C:\Users\admin\AppData\Local\Temp\ccvSpBEW.s:7639   .debug_str:000000000000006f .LASF149
C:\Users\admin\AppData\Local\Temp\ccvSpBEW.s:898    .text.IO_init:0000000000000000 .LFB10
C:\Users\admin\AppData\Local\Temp\ccvSpBEW.s:909    .text.IO_init:000000000000000c .LFE10
C:\Users\admin\AppData\Local\Temp\ccvSpBEW.s:7669   .debug_str:000000000000010f .LASF128
C:\Users\admin\AppData\Local\Temp\ccvSpBEW.s:726    .text.display_char16_16:0000000000000000 .LFB9
C:\Users\admin\AppData\Local\Temp\ccvSpBEW.s:891    .text.display_char16_16:0000000000000136 .LFE9
C:\Users\admin\AppData\Local\Temp\ccvSpBEW.s:7232   .debug_loc:0000000000000101 .LLST9
C:\Users\admin\AppData\Local\Temp\ccvSpBEW.s:7252   .debug_loc:000000000000012f .LLST10
C:\Users\admin\AppData\Local\Temp\ccvSpBEW.s:7272   .debug_loc:000000000000015d .LLST11
C:\Users\admin\AppData\Local\Temp\ccvSpBEW.s:7643   .debug_str:0000000000000080 .LASF129
C:\Users\admin\AppData\Local\Temp\ccvSpBEW.s:7290   .debug_loc:0000000000000189 .LLST12
C:\Users\admin\AppData\Local\Temp\ccvSpBEW.s:7304   .debug_loc:00000000000001aa .LLST13
C:\Users\admin\AppData\Local\Temp\ccvSpBEW.s:7312   .debug_loc:00000000000001be .LLST14
C:\Users\admin\AppData\Local\Temp\ccvSpBEW.s:7673   .debug_str:0000000000000129 .LASF130
C:\Users\admin\AppData\Local\Temp\ccvSpBEW.s:7341   .debug_loc:00000000000001fc .LLST15
C:\Users\admin\AppData\Local\Temp\ccvSpBEW.s:7353   .debug_loc:000000000000021b .LLST16
C:\Users\admin\AppData\Local\Temp\ccvSpBEW.s:757    .text.display_char16_16:0000000000000024 .LVL125
C:\Users\admin\AppData\Local\Temp\ccvSpBEW.s:762    .text.display_char16_16:0000000000000034 .LVL126
C:\Users\admin\AppData\Local\Temp\ccvSpBEW.s:766    .text.display_char16_16:0000000000000040 .LVL127
C:\Users\admin\AppData\Local\Temp\ccvSpBEW.s:774    .text.display_char16_16:0000000000000052 .LVL129
C:\Users\admin\AppData\Local\Temp\ccvSpBEW.s:778    .text.display_char16_16:000000000000005e .LVL130
C:\Users\admin\AppData\Local\Temp\ccvSpBEW.s:782    .text.display_char16_16:000000000000006a .LVL131
C:\Users\admin\AppData\Local\Temp\ccvSpBEW.s:787    .text.display_char16_16:000000000000007a .LVL132
C:\Users\admin\AppData\Local\Temp\ccvSpBEW.s:791    .text.display_char16_16:0000000000000086 .LVL133
C:\Users\admin\AppData\Local\Temp\ccvSpBEW.s:799    .text.display_char16_16:0000000000000098 .LVL135
C:\Users\admin\AppData\Local\Temp\ccvSpBEW.s:803    .text.display_char16_16:00000000000000a4 .LVL136
C:\Users\admin\AppData\Local\Temp\ccvSpBEW.s:809    .text.display_char16_16:00000000000000b8 .LVL137
C:\Users\admin\AppData\Local\Temp\ccvSpBEW.s:831    .text.display_char16_16:00000000000000e2 .LVL141
C:\Users\admin\AppData\Local\Temp\ccvSpBEW.s:838    .text.display_char16_16:00000000000000f2 .LVL143
C:\Users\admin\AppData\Local\Temp\ccvSpBEW.s:854    .text.display_char16_16:0000000000000108 .LVL146
C:\Users\admin\AppData\Local\Temp\ccvSpBEW.s:861    .text.display_char16_16:000000000000011a .LVL148
C:\Users\admin\AppData\Local\Temp\ccvSpBEW.s:7795   .debug_str:00000000000003ef .LASF131
C:\Users\admin\AppData\Local\Temp\ccvSpBEW.s:413    .text.TFT_init:0000000000000000 .LFB8
C:\Users\admin\AppData\Local\Temp\ccvSpBEW.s:719    .text.TFT_init:0000000000000316 .LFE8
C:\Users\admin\AppData\Local\Temp\ccvSpBEW.s:442    .text.TFT_init:0000000000000028 .LVL55
C:\Users\admin\AppData\Local\Temp\ccvSpBEW.s:446    .text.TFT_init:0000000000000034 .LVL56
C:\Users\admin\AppData\Local\Temp\ccvSpBEW.s:450    .text.TFT_init:000000000000003e .LVL57
C:\Users\admin\AppData\Local\Temp\ccvSpBEW.s:454    .text.TFT_init:000000000000004a .LVL58
C:\Users\admin\AppData\Local\Temp\ccvSpBEW.s:458    .text.TFT_init:0000000000000054 .LVL59
C:\Users\admin\AppData\Local\Temp\ccvSpBEW.s:462    .text.TFT_init:0000000000000060 .LVL60
C:\Users\admin\AppData\Local\Temp\ccvSpBEW.s:466    .text.TFT_init:000000000000006a .LVL61
C:\Users\admin\AppData\Local\Temp\ccvSpBEW.s:470    .text.TFT_init:0000000000000076 .LVL62
C:\Users\admin\AppData\Local\Temp\ccvSpBEW.s:474    .text.TFT_init:0000000000000080 .LVL63
C:\Users\admin\AppData\Local\Temp\ccvSpBEW.s:478    .text.TFT_init:000000000000008a .LVL64
C:\Users\admin\AppData\Local\Temp\ccvSpBEW.s:482    .text.TFT_init:0000000000000094 .LVL65
C:\Users\admin\AppData\Local\Temp\ccvSpBEW.s:486    .text.TFT_init:00000000000000a0 .LVL66
C:\Users\admin\AppData\Local\Temp\ccvSpBEW.s:490    .text.TFT_init:00000000000000ac .LVL67
C:\Users\admin\AppData\Local\Temp\ccvSpBEW.s:494    .text.TFT_init:00000000000000b8 .LVL68
C:\Users\admin\AppData\Local\Temp\ccvSpBEW.s:498    .text.TFT_init:00000000000000c2 .LVL69
C:\Users\admin\AppData\Local\Temp\ccvSpBEW.s:502    .text.TFT_init:00000000000000ce .LVL70
C:\Users\admin\AppData\Local\Temp\ccvSpBEW.s:506    .text.TFT_init:00000000000000da .LVL71
C:\Users\admin\AppData\Local\Temp\ccvSpBEW.s:510    .text.TFT_init:00000000000000e6 .LVL72
C:\Users\admin\AppData\Local\Temp\ccvSpBEW.s:514    .text.TFT_init:00000000000000f2 .LVL73
C:\Users\admin\AppData\Local\Temp\ccvSpBEW.s:518    .text.TFT_init:00000000000000fe .LVL74
C:\Users\admin\AppData\Local\Temp\ccvSpBEW.s:522    .text.TFT_init:0000000000000108 .LVL75
C:\Users\admin\AppData\Local\Temp\ccvSpBEW.s:526    .text.TFT_init:0000000000000114 .LVL76
C:\Users\admin\AppData\Local\Temp\ccvSpBEW.s:530    .text.TFT_init:000000000000011e .LVL77
C:\Users\admin\AppData\Local\Temp\ccvSpBEW.s:534    .text.TFT_init:000000000000012a .LVL78
C:\Users\admin\AppData\Local\Temp\ccvSpBEW.s:538    .text.TFT_init:0000000000000136 .LVL79
C:\Users\admin\AppData\Local\Temp\ccvSpBEW.s:542    .text.TFT_init:0000000000000142 .LVL80
C:\Users\admin\AppData\Local\Temp\ccvSpBEW.s:546    .text.TFT_init:000000000000014c .LVL81
C:\Users\admin\AppData\Local\Temp\ccvSpBEW.s:550    .text.TFT_init:0000000000000158 .LVL82
C:\Users\admin\AppData\Local\Temp\ccvSpBEW.s:554    .text.TFT_init:0000000000000164 .LVL83
C:\Users\admin\AppData\Local\Temp\ccvSpBEW.s:558    .text.TFT_init:0000000000000170 .LVL84
C:\Users\admin\AppData\Local\Temp\ccvSpBEW.s:562    .text.TFT_init:000000000000017c .LVL85
C:\Users\admin\AppData\Local\Temp\ccvSpBEW.s:566    .text.TFT_init:0000000000000186 .LVL86
C:\Users\admin\AppData\Local\Temp\ccvSpBEW.s:570    .text.TFT_init:0000000000000192 .LVL87
C:\Users\admin\AppData\Local\Temp\ccvSpBEW.s:574    .text.TFT_init:000000000000019c .LVL88
C:\Users\admin\AppData\Local\Temp\ccvSpBEW.s:578    .text.TFT_init:00000000000001a6 .LVL89
C:\Users\admin\AppData\Local\Temp\ccvSpBEW.s:582    .text.TFT_init:00000000000001b0 .LVL90
C:\Users\admin\AppData\Local\Temp\ccvSpBEW.s:586    .text.TFT_init:00000000000001bc .LVL91
C:\Users\admin\AppData\Local\Temp\ccvSpBEW.s:590    .text.TFT_init:00000000000001c8 .LVL92
C:\Users\admin\AppData\Local\Temp\ccvSpBEW.s:594    .text.TFT_init:00000000000001d2 .LVL93
C:\Users\admin\AppData\Local\Temp\ccvSpBEW.s:598    .text.TFT_init:00000000000001dc .LVL94
C:\Users\admin\AppData\Local\Temp\ccvSpBEW.s:602    .text.TFT_init:00000000000001e6 .LVL95
C:\Users\admin\AppData\Local\Temp\ccvSpBEW.s:606    .text.TFT_init:00000000000001f0 .LVL96
C:\Users\admin\AppData\Local\Temp\ccvSpBEW.s:610    .text.TFT_init:00000000000001fa .LVL97
C:\Users\admin\AppData\Local\Temp\ccvSpBEW.s:614    .text.TFT_init:0000000000000206 .LVL98
C:\Users\admin\AppData\Local\Temp\ccvSpBEW.s:618    .text.TFT_init:0000000000000212 .LVL99
C:\Users\admin\AppData\Local\Temp\ccvSpBEW.s:622    .text.TFT_init:000000000000021e .LVL100
C:\Users\admin\AppData\Local\Temp\ccvSpBEW.s:626    .text.TFT_init:0000000000000228 .LVL101
C:\Users\admin\AppData\Local\Temp\ccvSpBEW.s:630    .text.TFT_init:0000000000000232 .LVL102
C:\Users\admin\AppData\Local\Temp\ccvSpBEW.s:634    .text.TFT_init:000000000000023c .LVL103
C:\Users\admin\AppData\Local\Temp\ccvSpBEW.s:638    .text.TFT_init:0000000000000248 .LVL104
C:\Users\admin\AppData\Local\Temp\ccvSpBEW.s:642    .text.TFT_init:0000000000000254 .LVL105
C:\Users\admin\AppData\Local\Temp\ccvSpBEW.s:646    .text.TFT_init:0000000000000260 .LVL106
C:\Users\admin\AppData\Local\Temp\ccvSpBEW.s:650    .text.TFT_init:000000000000026c .LVL107
C:\Users\admin\AppData\Local\Temp\ccvSpBEW.s:654    .text.TFT_init:0000000000000276 .LVL108
C:\Users\admin\AppData\Local\Temp\ccvSpBEW.s:658    .text.TFT_init:0000000000000280 .LVL109
C:\Users\admin\AppData\Local\Temp\ccvSpBEW.s:662    .text.TFT_init:000000000000028a .LVL110
C:\Users\admin\AppData\Local\Temp\ccvSpBEW.s:666    .text.TFT_init:0000000000000294 .LVL111
C:\Users\admin\AppData\Local\Temp\ccvSpBEW.s:670    .text.TFT_init:000000000000029e .LVL112
C:\Users\admin\AppData\Local\Temp\ccvSpBEW.s:674    .text.TFT_init:00000000000002aa .LVL113
C:\Users\admin\AppData\Local\Temp\ccvSpBEW.s:678    .text.TFT_init:00000000000002b6 .LVL114
C:\Users\admin\AppData\Local\Temp\ccvSpBEW.s:682    .text.TFT_init:00000000000002c2 .LVL115
C:\Users\admin\AppData\Local\Temp\ccvSpBEW.s:686    .text.TFT_init:00000000000002ce .LVL116
C:\Users\admin\AppData\Local\Temp\ccvSpBEW.s:690    .text.TFT_init:00000000000002d8 .LVL117
C:\Users\admin\AppData\Local\Temp\ccvSpBEW.s:694    .text.TFT_init:00000000000002e2 .LVL118
C:\Users\admin\AppData\Local\Temp\ccvSpBEW.s:698    .text.TFT_init:00000000000002ee .LVL119
C:\Users\admin\AppData\Local\Temp\ccvSpBEW.s:702    .text.TFT_init:00000000000002fa .LVL120
C:\Users\admin\AppData\Local\Temp\ccvSpBEW.s:706    .text.TFT_init:0000000000000306 .LVL121
C:\Users\admin\AppData\Local\Temp\ccvSpBEW.s:717    .text.TFT_init:0000000000000316 .LVL122
C:\Users\admin\AppData\Local\Temp\ccvSpBEW.s:7865   .debug_str:000000000000053d .LASF132
C:\Users\admin\AppData\Local\Temp\ccvSpBEW.s:296    .text.TFT_full:0000000000000000 .LFB7
C:\Users\admin\AppData\Local\Temp\ccvSpBEW.s:406    .text.TFT_full:00000000000000c6 .LFE7
C:\Users\admin\AppData\Local\Temp\ccvSpBEW.s:7361   .debug_loc:000000000000022f .LLST6
C:\Users\admin\AppData\Local\Temp\ccvSpBEW.s:7379   .debug_loc:000000000000025b .LLST7
C:\Users\admin\AppData\Local\Temp\ccvSpBEW.s:7414   .debug_loc:00000000000002a2 .LLST8
C:\Users\admin\AppData\Local\Temp\ccvSpBEW.s:319    .text.TFT_full:000000000000001a .LVL33
C:\Users\admin\AppData\Local\Temp\ccvSpBEW.s:323    .text.TFT_full:0000000000000024 .LVL34
C:\Users\admin\AppData\Local\Temp\ccvSpBEW.s:327    .text.TFT_full:000000000000002e .LVL35
C:\Users\admin\AppData\Local\Temp\ccvSpBEW.s:331    .text.TFT_full:0000000000000038 .LVL36
C:\Users\admin\AppData\Local\Temp\ccvSpBEW.s:335    .text.TFT_full:0000000000000044 .LVL37
C:\Users\admin\AppData\Local\Temp\ccvSpBEW.s:339    .text.TFT_full:0000000000000050 .LVL38
C:\Users\admin\AppData\Local\Temp\ccvSpBEW.s:343    .text.TFT_full:000000000000005a .LVL39
C:\Users\admin\AppData\Local\Temp\ccvSpBEW.s:347    .text.TFT_full:0000000000000064 .LVL40
C:\Users\admin\AppData\Local\Temp\ccvSpBEW.s:351    .text.TFT_full:000000000000006e .LVL41
C:\Users\admin\AppData\Local\Temp\ccvSpBEW.s:355    .text.TFT_full:000000000000007a .LVL42
C:\Users\admin\AppData\Local\Temp\ccvSpBEW.s:361    .text.TFT_full:000000000000008a .LVL43
C:\Users\admin\AppData\Local\Temp\ccvSpBEW.s:376    .text.TFT_full:00000000000000a4 .LVL47
C:\Users\admin\AppData\Local\Temp\ccvSpBEW.s:382    .text.TFT_full:00000000000000b0 .LVL49
C:\Users\admin\AppData\Local\Temp\ccvSpBEW.s:7765   .debug_str:0000000000000360 .LASF133
C:\Users\admin\AppData\Local\Temp\ccvSpBEW.s:196    .text.TFT_clear:0000000000000000 .LFB6
C:\Users\admin\AppData\Local\Temp\ccvSpBEW.s:289    .text.TFT_clear:00000000000000b2 .LFE6
C:\Users\admin\AppData\Local\Temp\ccvSpBEW.s:7440   .debug_loc:00000000000002d6 .LLST4
C:\Users\admin\AppData\Local\Temp\ccvSpBEW.s:7475   .debug_loc:000000000000031d .LLST5
C:\Users\admin\AppData\Local\Temp\ccvSpBEW.s:212    .text.TFT_clear:0000000000000014 .LVL12
C:\Users\admin\AppData\Local\Temp\ccvSpBEW.s:216    .text.TFT_clear:000000000000001e .LVL13
C:\Users\admin\AppData\Local\Temp\ccvSpBEW.s:220    .text.TFT_clear:0000000000000028 .LVL14
C:\Users\admin\AppData\Local\Temp\ccvSpBEW.s:224    .text.TFT_clear:0000000000000032 .LVL15
C:\Users\admin\AppData\Local\Temp\ccvSpBEW.s:228    .text.TFT_clear:000000000000003e .LVL16
C:\Users\admin\AppData\Local\Temp\ccvSpBEW.s:232    .text.TFT_clear:000000000000004a .LVL17
C:\Users\admin\AppData\Local\Temp\ccvSpBEW.s:236    .text.TFT_clear:0000000000000054 .LVL18
C:\Users\admin\AppData\Local\Temp\ccvSpBEW.s:240    .text.TFT_clear:000000000000005e .LVL19
C:\Users\admin\AppData\Local\Temp\ccvSpBEW.s:244    .text.TFT_clear:0000000000000068 .LVL20
C:\Users\admin\AppData\Local\Temp\ccvSpBEW.s:248    .text.TFT_clear:0000000000000074 .LVL21
C:\Users\admin\AppData\Local\Temp\ccvSpBEW.s:252    .text.TFT_clear:0000000000000080 .LVL22
C:\Users\admin\AppData\Local\Temp\ccvSpBEW.s:263    .text.TFT_clear:0000000000000094 .LVL25
C:\Users\admin\AppData\Local\Temp\ccvSpBEW.s:269    .text.TFT_clear:00000000000000a2 .LVL27
C:\Users\admin\AppData\Local\Temp\ccvSpBEW.s:7801   .debug_str:0000000000000414 .LASF134
C:\Users\admin\AppData\Local\Temp\ccvSpBEW.s:150    .text.TFT_SEND_DATA:0000000000000000 .LFB5
C:\Users\admin\AppData\Local\Temp\ccvSpBEW.s:189    .text.TFT_SEND_DATA:0000000000000030 .LFE5
C:\Users\admin\AppData\Local\Temp\ccvSpBEW.s:7877   .debug_str:0000000000000571 .LASF135
C:\Users\admin\AppData\Local\Temp\ccvSpBEW.s:7501   .debug_loc:0000000000000351 .LLST3
C:\Users\admin\AppData\Local\Temp\ccvSpBEW.s:173    .text.TFT_SEND_DATA:0000000000000020 .LVL11
C:\Users\admin\AppData\Local\Temp\ccvSpBEW.s:7843   .debug_str:00000000000004de .LASF136
C:\Users\admin\AppData\Local\Temp\ccvSpBEW.s:104    .text.TFT_SEND_CMD:0000000000000000 .LFB4
C:\Users\admin\AppData\Local\Temp\ccvSpBEW.s:143    .text.TFT_SEND_CMD:0000000000000030 .LFE4
C:\Users\admin\AppData\Local\Temp\ccvSpBEW.s:7891   .debug_str:0000000000000646 .LASF137
C:\Users\admin\AppData\Local\Temp\ccvSpBEW.s:7515   .debug_loc:0000000000000372 .LLST2
C:\Users\admin\AppData\Local\Temp\ccvSpBEW.s:127    .text.TFT_SEND_CMD:0000000000000020 .LVL9
C:\Users\admin\AppData\Local\Temp\ccvSpBEW.s:7857   .debug_str:000000000000051b .LASF138
C:\Users\admin\AppData\Local\Temp\ccvSpBEW.s:37     .text.SPI_SendByte:0000000000000000 .LFB3
C:\Users\admin\AppData\Local\Temp\ccvSpBEW.s:97     .text.SPI_SendByte:000000000000004e .LFE3
C:\Users\admin\AppData\Local\Temp\ccvSpBEW.s:7701   .debug_str:00000000000001a7 .LASF139
C:\Users\admin\AppData\Local\Temp\ccvSpBEW.s:7529   .debug_loc:0000000000000393 .LLST0
C:\Users\admin\AppData\Local\Temp\ccvSpBEW.s:7687   .debug_str:000000000000015f .LASF140
C:\Users\admin\AppData\Local\Temp\ccvSpBEW.s:7540   .debug_loc:00000000000003b1 .LLST1
C:\Users\admin\AppData\Local\Temp\ccvSpBEW.s:7677   .debug_str:0000000000000137 .LASF141
C:\Users\admin\AppData\Local\Temp\ccvSpBEW.s:7709   .debug_str:00000000000001c2 .LASF143
C:\Users\admin\AppData\Local\Temp\ccvSpBEW.s:7867   .debug_str:0000000000000546 .LASF142
C:\Users\admin\AppData\Local\Temp\ccvSpBEW.s:7747   .debug_str:0000000000000278 .LASF144
C:\Users\admin\AppData\Local\Temp\ccvSpBEW.s:11     .text.delay_us:0000000000000000 .LFB1
C:\Users\admin\AppData\Local\Temp\ccvSpBEW.s:19     .text.delay_us:0000000000000002 .LFE1
C:\Users\admin\AppData\Local\Temp\ccvSpBEW.s:7727   .debug_str:000000000000020f .LASF150
C:\Users\admin\AppData\Local\Temp\ccvSpBEW.s:919    .text.TFT_show:0000000000000000 .LVL151
C:\Users\admin\AppData\Local\Temp\ccvSpBEW.s:927    .text.TFT_show:000000000000000a .LVL152
C:\Users\admin\AppData\Local\Temp\ccvSpBEW.s:1003   .text.TFT_show:00000000000000ac .LVL165
C:\Users\admin\AppData\Local\Temp\ccvSpBEW.s:1000   .text.TFT_show:00000000000000a8 .LVL164
C:\Users\admin\AppData\Local\Temp\ccvSpBEW.s:1012   .text.TFT_show:00000000000000ba .LVL168
C:\Users\admin\AppData\Local\Temp\ccvSpBEW.s:1065   .text.TFT_show:0000000000000102 .LVL180
C:\Users\admin\AppData\Local\Temp\ccvSpBEW.s:1006   .text.TFT_show:00000000000000b0 .LVL166
C:\Users\admin\AppData\Local\Temp\ccvSpBEW.s:1052   .text.TFT_show:00000000000000f6 .LVL177
C:\Users\admin\AppData\Local\Temp\ccvSpBEW.s:1054   .text.TFT_show:00000000000000f8 .LVL178
C:\Users\admin\AppData\Local\Temp\ccvSpBEW.s:1078   .text.TFT_show:000000000000010e .LVL181
C:\Users\admin\AppData\Local\Temp\ccvSpBEW.s:1016   .text.TFT_show:00000000000000be .LVL169
C:\Users\admin\AppData\Local\Temp\ccvSpBEW.s:1025   .text.TFT_show:00000000000000ca .LVL171
C:\Users\admin\AppData\Local\Temp\ccvSpBEW.s:1045   .text.TFT_show:00000000000000ea .LVL175
C:\Users\admin\AppData\Local\Temp\ccvSpBEW.s:1062   .text.TFT_show:0000000000000100 .LVL179
C:\Users\admin\AppData\Local\Temp\ccvSpBEW.s:729    .text.display_char16_16:0000000000000000 .LVL123
C:\Users\admin\AppData\Local\Temp\ccvSpBEW.s:737    .text.display_char16_16:000000000000000a .LVL124
C:\Users\admin\AppData\Local\Temp\ccvSpBEW.s:819    .text.display_char16_16:00000000000000d0 .LVL138
C:\Users\admin\AppData\Local\Temp\ccvSpBEW.s:823    .text.display_char16_16:00000000000000d4 .LVL139
C:\Users\admin\AppData\Local\Temp\ccvSpBEW.s:826    .text.display_char16_16:00000000000000d8 .LVL140
C:\Users\admin\AppData\Local\Temp\ccvSpBEW.s:833    .text.display_char16_16:00000000000000e4 .LVL142
C:\Users\admin\AppData\Local\Temp\ccvSpBEW.s:845    .text.display_char16_16:00000000000000f6 .LVL145
C:\Users\admin\AppData\Local\Temp\ccvSpBEW.s:856    .text.display_char16_16:000000000000010a .LVL147
C:\Users\admin\AppData\Local\Temp\ccvSpBEW.s:878    .text.display_char16_16:000000000000012a .LVL150
C:\Users\admin\AppData\Local\Temp\ccvSpBEW.s:299    .text.TFT_full:0000000000000000 .LVL31
C:\Users\admin\AppData\Local\Temp\ccvSpBEW.s:307    .text.TFT_full:000000000000000a .LVL32
C:\Users\admin\AppData\Local\Temp\ccvSpBEW.s:365    .text.TFT_full:0000000000000092 .LVL44
C:\Users\admin\AppData\Local\Temp\ccvSpBEW.s:367    .text.TFT_full:0000000000000096 .LVL45
C:\Users\admin\AppData\Local\Temp\ccvSpBEW.s:385    .text.TFT_full:00000000000000b2 .LVL50
C:\Users\admin\AppData\Local\Temp\ccvSpBEW.s:387    .text.TFT_full:00000000000000b4 .LVL51
C:\Users\admin\AppData\Local\Temp\ccvSpBEW.s:401    .text.TFT_full:00000000000000c2 .LVL52
C:\Users\admin\AppData\Local\Temp\ccvSpBEW.s:371    .text.TFT_full:000000000000009a .LVL46
C:\Users\admin\AppData\Local\Temp\ccvSpBEW.s:378    .text.TFT_full:00000000000000a6 .LVL48
C:\Users\admin\AppData\Local\Temp\ccvSpBEW.s:254    .text.TFT_clear:0000000000000084 .LVL23
C:\Users\admin\AppData\Local\Temp\ccvSpBEW.s:272    .text.TFT_clear:00000000000000a4 .LVL28
C:\Users\admin\AppData\Local\Temp\ccvSpBEW.s:274    .text.TFT_clear:00000000000000a6 .LVL29
C:\Users\admin\AppData\Local\Temp\ccvSpBEW.s:284    .text.TFT_clear:00000000000000ae .LVL30
C:\Users\admin\AppData\Local\Temp\ccvSpBEW.s:258    .text.TFT_clear:0000000000000088 .LVL24
C:\Users\admin\AppData\Local\Temp\ccvSpBEW.s:265    .text.TFT_clear:0000000000000096 .LVL26
C:\Users\admin\AppData\Local\Temp\ccvSpBEW.s:153    .text.TFT_SEND_DATA:0000000000000000 .LVL10
C:\Users\admin\AppData\Local\Temp\ccvSpBEW.s:107    .text.TFT_SEND_CMD:0000000000000000 .LVL8
C:\Users\admin\AppData\Local\Temp\ccvSpBEW.s:40     .text.SPI_SendByte:0000000000000000 .LVL1
C:\Users\admin\AppData\Local\Temp\ccvSpBEW.s:59     .text.SPI_SendByte:0000000000000014 .LVL4
C:\Users\admin\AppData\Local\Temp\ccvSpBEW.s:66     .text.SPI_SendByte:0000000000000022 .LVL5
C:\Users\admin\AppData\Local\Temp\ccvSpBEW.s:46     .text.SPI_SendByte:0000000000000006 .LVL2
C:\Users\admin\AppData\Local\Temp\ccvSpBEW.s:56     .text.SPI_SendByte:0000000000000012 .LVL3
C:\Users\admin\AppData\Local\Temp\ccvSpBEW.s:72     .text.SPI_SendByte:0000000000000028 .LVL6
C:\Users\admin\AppData\Local\Temp\ccvSpBEW.s:88     .text.SPI_SendByte:0000000000000044 .LVL7
C:\Users\admin\AppData\Local\Temp\ccvSpBEW.s:3789   .debug_info:0000000000000000 .Ldebug_info0

UNDEFINED SYMBOLS
OSP_READ
