
pico_spi.elf:     file format elf32-littleriscv
pico_spi.elf
architecture: riscv:rv32, flags 0x00000112:
EXEC_P, HAS_SYMS, D_PAGED
start address 0x00001000

Program Header:
    LOAD off    0x00001000 vaddr 0x00001000 paddr 0x00001000 align 2**12
         filesz 0x000037dc memsz 0x000037dc flags r-x
    LOAD off    0x00005000 vaddr 0x00000000 paddr 0x000047dc align 2**12
         filesz 0x00000000 memsz 0x00000004 flags rw-

Sections:
Idx Name           Size      VMA       LMA       File off  Algn  Flags
  0 .text          000037dc  00001000  00001000  00001000  2**3  CONTENTS, ALLOC, LOAD, READONLY, CODE
  1 .data          00000000  00000000  000047dc  00005000  2**0  CONTENTS, ALLOC, LOAD, DATA
  2 .bss           00000004  00000000  000047dc  00005000  2**0  ALLOC
  3 .heap          00000000  00000004  00000004  00005000  2**0  CONTENTS
  4 .debug_info    00005a55  00000000  00000000  00005000  2**0  CONTENTS, READONLY, DEBUGGING
  5 .debug_abbrev  000009b3  00000000  00000000  0000aa55  2**0  CONTENTS, READONLY, DEBUGGING
  6 .debug_loc     00000ba8  00000000  00000000  0000b408  2**0  CONTENTS, READONLY, DEBUGGING
  7 .debug_aranges 00000138  00000000  00000000  0000bfb0  2**3  CONTENTS, READONLY, DEBUGGING
  8 .debug_ranges  00000360  00000000  00000000  0000c0e8  2**0  CONTENTS, READONLY, DEBUGGING
  9 .debug_line    00001e6d  00000000  00000000  0000c448  2**0  CONTENTS, READONLY, DEBUGGING
 10 .debug_str     00000813  00000000  00000000  0000e2b5  2**0  CONTENTS, READONLY, DEBUGGING
 11 .comment       0000003a  00000000  00000000  0000eac8  2**0  CONTENTS, READONLY
 12 .debug_frame   0000046c  00000000  00000000  0000eb04  2**2  CONTENTS, READONLY, DEBUGGING
SYMBOL TABLE:
00001000 l    d  .text	00000000 .text
00000000 l    d  .data	00000000 .data
00000000 l    d  .bss	00000000 .bss
00000004 l    d  .heap	00000000 .heap
00000000 l    d  .debug_info	00000000 .debug_info
00000000 l    d  .debug_abbrev	00000000 .debug_abbrev
00000000 l    d  .debug_loc	00000000 .debug_loc
00000000 l    d  .debug_aranges	00000000 .debug_aranges
00000000 l    d  .debug_ranges	00000000 .debug_ranges
00000000 l    d  .debug_line	00000000 .debug_line
00000000 l    d  .debug_str	00000000 .debug_str
00000000 l    d  .comment	00000000 .comment
00000000 l    d  .debug_frame	00000000 .debug_frame
00000000 l    df *ABS*	00000000 gmt024_spi.c
00000000 l    df *ABS*	00000000 main.c
00000000 l    df *ABS*	00000000 osp.c
00000000 l    df *ABS*	00000000 ./src/start.o
00001000 l       .text	00000000 start
0000107a l       .text	00000000 setmemloop
000010a2 l       .text	00000000 end_init_data
00001096 l       .text	00000000 loop_init_data
000010b8 l       .text	00000000 end_init_bss
000010ae l       .text	00000000 loop_init_bss
00000000 l    df *ABS*	00000000 uart.c
00002626 l     F .text	0000004c print_num.part.0
00000000 l    df *ABS*	00000000 muldf3.c
00000000 l    df *ABS*	00000000 subdf3.c
00000000 l    df *ABS*	00000000 fixdfsi.c
00000000 l    df *ABS*	00000000 floatunsidf.c
00000000 l    df *ABS*	00000000 libgcc2.c
00000000 l    df *ABS*	00000000 libgcc2.c
0000272a g     F .text	0000007c print_flt
00002606 g     F .text	0000001a OSP_READ
0000149a g     F .text	0000000c IO_init
000047dc g       .text	00000000 _sidata
000047dc g       .text	00000000 _etext
00000000 g       .bss	00000000 _sbss
000011ca g     F .text	00000078 TFT_full
000028e0 g     F .text	00000084 getchar_prompt
00002692 g     F .text	00000028 print_str
00000000 g     O .bss	00000001 temp_data
00000000 g       .data	00000000 _sdata
00002718 g     F .text	00000012 print_dec
000010c4 g     F .text	0000004e SPI_SendByte
00003920 g     F .text	000000c0 .hidden __floatunsidf
000014a6 g     F .text	000000b4 TFT_show
00000004 g       .bss	00000000 _ebss
0000389c g     F .text	00000084 .hidden __fixdfsi
00000004 g       .heap	00000000 _heap_start
00000000 g       .data	00000000 _ram_start
00002964 g     F .text	0000002c get_char
000039e0 g     F .text	00000094 .hidden __clzsi2
0000113c g     F .text	0000002a TFT_SEND_DATA
00003a74 g     O .text	00000a80 chines_word
000013c0 g     F .text	000000da display_char16_16
00001112 g     F .text	0000002a TFT_SEND_CMD
000027a6 g     F .text	0000013a printk
000010c2 g     F .text	00000002 Delay_ms
00002990 g     F .text	0000068c .hidden __muldf3
000010c0 g     F .text	00000002 delay_us
00002706 g     F .text	00000012 print_hex2
0000155a g     F .text	000010ac main
00001242 g     F .text	0000017e TFT_init
000026ba g     F .text	0000004c print_hex
000046dc g     O .text	00000100 .hidden __clz_tab
00002620 g     F .text	00000006 print_num
00000000 g       .data	00000000 _edata
00001166 g     F .text	00000064 TFT_clear
0000301c g     F .text	00000880 .hidden __subdf3
00002672 g     F .text	00000020 put_char



Disassembly of section .text:

00001000 <start>:
start():
C:\Users\admin\OneDrive - stu.cdu.edu.cn\2024FPGA\fpga_pds_project\cpu\picorv32+osp\software\HBird-workspace\pico_spi\Debug/../src/start.S:5
	.section .text

start:
	# zero-initialize register file
	addi x1, zero, 0
    1000:	00000093          	li	ra,0
C:\Users\admin\OneDrive - stu.cdu.edu.cn\2024FPGA\fpga_pds_project\cpu\picorv32+osp\software\HBird-workspace\pico_spi\Debug/../src/start.S:7
	# x2 (sp) is initialized by reset
	addi x3, zero, 0
    1004:	00000193          	li	gp,0
C:\Users\admin\OneDrive - stu.cdu.edu.cn\2024FPGA\fpga_pds_project\cpu\picorv32+osp\software\HBird-workspace\pico_spi\Debug/../src/start.S:8
	addi x4, zero, 0
    1008:	00000213          	li	tp,0
C:\Users\admin\OneDrive - stu.cdu.edu.cn\2024FPGA\fpga_pds_project\cpu\picorv32+osp\software\HBird-workspace\pico_spi\Debug/../src/start.S:9
	addi x5, zero, 0
    100c:	00000293          	li	t0,0
C:\Users\admin\OneDrive - stu.cdu.edu.cn\2024FPGA\fpga_pds_project\cpu\picorv32+osp\software\HBird-workspace\pico_spi\Debug/../src/start.S:10
	addi x6, zero, 0
    1010:	00000313          	li	t1,0
C:\Users\admin\OneDrive - stu.cdu.edu.cn\2024FPGA\fpga_pds_project\cpu\picorv32+osp\software\HBird-workspace\pico_spi\Debug/../src/start.S:11
	addi x7, zero, 0
    1014:	00000393          	li	t2,0
C:\Users\admin\OneDrive - stu.cdu.edu.cn\2024FPGA\fpga_pds_project\cpu\picorv32+osp\software\HBird-workspace\pico_spi\Debug/../src/start.S:12
	addi x8, zero, 0
    1018:	00000413          	li	s0,0
C:\Users\admin\OneDrive - stu.cdu.edu.cn\2024FPGA\fpga_pds_project\cpu\picorv32+osp\software\HBird-workspace\pico_spi\Debug/../src/start.S:13
	addi x9, zero, 0
    101c:	00000493          	li	s1,0
C:\Users\admin\OneDrive - stu.cdu.edu.cn\2024FPGA\fpga_pds_project\cpu\picorv32+osp\software\HBird-workspace\pico_spi\Debug/../src/start.S:14
	addi x10, zero, 0
    1020:	00000513          	li	a0,0
C:\Users\admin\OneDrive - stu.cdu.edu.cn\2024FPGA\fpga_pds_project\cpu\picorv32+osp\software\HBird-workspace\pico_spi\Debug/../src/start.S:15
	addi x11, zero, 0
    1024:	00000593          	li	a1,0
C:\Users\admin\OneDrive - stu.cdu.edu.cn\2024FPGA\fpga_pds_project\cpu\picorv32+osp\software\HBird-workspace\pico_spi\Debug/../src/start.S:16
	addi x12, zero, 0
    1028:	00000613          	li	a2,0
C:\Users\admin\OneDrive - stu.cdu.edu.cn\2024FPGA\fpga_pds_project\cpu\picorv32+osp\software\HBird-workspace\pico_spi\Debug/../src/start.S:17
	addi x13, zero, 0
    102c:	00000693          	li	a3,0
C:\Users\admin\OneDrive - stu.cdu.edu.cn\2024FPGA\fpga_pds_project\cpu\picorv32+osp\software\HBird-workspace\pico_spi\Debug/../src/start.S:18
	addi x14, zero, 0
    1030:	00000713          	li	a4,0
C:\Users\admin\OneDrive - stu.cdu.edu.cn\2024FPGA\fpga_pds_project\cpu\picorv32+osp\software\HBird-workspace\pico_spi\Debug/../src/start.S:19
	addi x15, zero, 0
    1034:	00000793          	li	a5,0
C:\Users\admin\OneDrive - stu.cdu.edu.cn\2024FPGA\fpga_pds_project\cpu\picorv32+osp\software\HBird-workspace\pico_spi\Debug/../src/start.S:20
	addi x16, zero, 0
    1038:	00000813          	li	a6,0
C:\Users\admin\OneDrive - stu.cdu.edu.cn\2024FPGA\fpga_pds_project\cpu\picorv32+osp\software\HBird-workspace\pico_spi\Debug/../src/start.S:21
	addi x17, zero, 0
    103c:	00000893          	li	a7,0
C:\Users\admin\OneDrive - stu.cdu.edu.cn\2024FPGA\fpga_pds_project\cpu\picorv32+osp\software\HBird-workspace\pico_spi\Debug/../src/start.S:22
	addi x18, zero, 0
    1040:	00000913          	li	s2,0
C:\Users\admin\OneDrive - stu.cdu.edu.cn\2024FPGA\fpga_pds_project\cpu\picorv32+osp\software\HBird-workspace\pico_spi\Debug/../src/start.S:23
	addi x19, zero, 0
    1044:	00000993          	li	s3,0
C:\Users\admin\OneDrive - stu.cdu.edu.cn\2024FPGA\fpga_pds_project\cpu\picorv32+osp\software\HBird-workspace\pico_spi\Debug/../src/start.S:24
	addi x20, zero, 0
    1048:	00000a13          	li	s4,0
C:\Users\admin\OneDrive - stu.cdu.edu.cn\2024FPGA\fpga_pds_project\cpu\picorv32+osp\software\HBird-workspace\pico_spi\Debug/../src/start.S:25
	addi x21, zero, 0
    104c:	00000a93          	li	s5,0
C:\Users\admin\OneDrive - stu.cdu.edu.cn\2024FPGA\fpga_pds_project\cpu\picorv32+osp\software\HBird-workspace\pico_spi\Debug/../src/start.S:26
	addi x22, zero, 0
    1050:	00000b13          	li	s6,0
C:\Users\admin\OneDrive - stu.cdu.edu.cn\2024FPGA\fpga_pds_project\cpu\picorv32+osp\software\HBird-workspace\pico_spi\Debug/../src/start.S:27
	addi x23, zero, 0
    1054:	00000b93          	li	s7,0
C:\Users\admin\OneDrive - stu.cdu.edu.cn\2024FPGA\fpga_pds_project\cpu\picorv32+osp\software\HBird-workspace\pico_spi\Debug/../src/start.S:28
	addi x24, zero, 0
    1058:	00000c13          	li	s8,0
C:\Users\admin\OneDrive - stu.cdu.edu.cn\2024FPGA\fpga_pds_project\cpu\picorv32+osp\software\HBird-workspace\pico_spi\Debug/../src/start.S:29
	addi x25, zero, 0
    105c:	00000c93          	li	s9,0
C:\Users\admin\OneDrive - stu.cdu.edu.cn\2024FPGA\fpga_pds_project\cpu\picorv32+osp\software\HBird-workspace\pico_spi\Debug/../src/start.S:30
	addi x26, zero, 0
    1060:	00000d13          	li	s10,0
C:\Users\admin\OneDrive - stu.cdu.edu.cn\2024FPGA\fpga_pds_project\cpu\picorv32+osp\software\HBird-workspace\pico_spi\Debug/../src/start.S:31
	addi x27, zero, 0
    1064:	00000d93          	li	s11,0
C:\Users\admin\OneDrive - stu.cdu.edu.cn\2024FPGA\fpga_pds_project\cpu\picorv32+osp\software\HBird-workspace\pico_spi\Debug/../src/start.S:32
	addi x28, zero, 0
    1068:	00000e13          	li	t3,0
C:\Users\admin\OneDrive - stu.cdu.edu.cn\2024FPGA\fpga_pds_project\cpu\picorv32+osp\software\HBird-workspace\pico_spi\Debug/../src/start.S:33
	addi x29, zero, 0
    106c:	00000e93          	li	t4,0
C:\Users\admin\OneDrive - stu.cdu.edu.cn\2024FPGA\fpga_pds_project\cpu\picorv32+osp\software\HBird-workspace\pico_spi\Debug/../src/start.S:34
	addi x30, zero, 0
    1070:	00000f13          	li	t5,0
C:\Users\admin\OneDrive - stu.cdu.edu.cn\2024FPGA\fpga_pds_project\cpu\picorv32+osp\software\HBird-workspace\pico_spi\Debug/../src/start.S:35
	addi x31, zero, 0
    1074:	00000f93          	li	t6,0
C:\Users\admin\OneDrive - stu.cdu.edu.cn\2024FPGA\fpga_pds_project\cpu\picorv32+osp\software\HBird-workspace\pico_spi\Debug/../src/start.S:38

	# zero initialize entire scratchpad memory
	li a0, 0x00000000
    1078:	4501                	li	a0,0

0000107a <setmemloop>:
setmemloop():
C:\Users\admin\OneDrive - stu.cdu.edu.cn\2024FPGA\fpga_pds_project\cpu\picorv32+osp\software\HBird-workspace\pico_spi\Debug/../src/start.S:40
setmemloop:
	sw a0, 0(a0)
    107a:	c108                	sw	a0,0(a0)
C:\Users\admin\OneDrive - stu.cdu.edu.cn\2024FPGA\fpga_pds_project\cpu\picorv32+osp\software\HBird-workspace\pico_spi\Debug/../src/start.S:41
	addi a0, a0, 4
    107c:	0511                	addi	a0,a0,4
C:\Users\admin\OneDrive - stu.cdu.edu.cn\2024FPGA\fpga_pds_project\cpu\picorv32+osp\software\HBird-workspace\pico_spi\Debug/../src/start.S:42
	blt a0, sp, setmemloop
    107e:	fe254ee3          	blt	a0,sp,107a <setmemloop>
C:\Users\admin\OneDrive - stu.cdu.edu.cn\2024FPGA\fpga_pds_project\cpu\picorv32+osp\software\HBird-workspace\pico_spi\Debug/../src/start.S:45

	# copy data section
	la a0, _sidata
    1082:	00003517          	auipc	a0,0x3
    1086:	75a50513          	addi	a0,a0,1882 # 47dc <_etext>
C:\Users\admin\OneDrive - stu.cdu.edu.cn\2024FPGA\fpga_pds_project\cpu\picorv32+osp\software\HBird-workspace\pico_spi\Debug/../src/start.S:46
	la a1, _sdata
    108a:	00000593          	li	a1,0
C:\Users\admin\OneDrive - stu.cdu.edu.cn\2024FPGA\fpga_pds_project\cpu\picorv32+osp\software\HBird-workspace\pico_spi\Debug/../src/start.S:47
	la a2, _edata
    108e:	00000613          	li	a2,0
C:\Users\admin\OneDrive - stu.cdu.edu.cn\2024FPGA\fpga_pds_project\cpu\picorv32+osp\software\HBird-workspace\pico_spi\Debug/../src/start.S:48
	bge a1, a2, end_init_data
    1092:	00c5d863          	ble	a2,a1,10a2 <end_init_data>

00001096 <loop_init_data>:
loop_init_data():
C:\Users\admin\OneDrive - stu.cdu.edu.cn\2024FPGA\fpga_pds_project\cpu\picorv32+osp\software\HBird-workspace\pico_spi\Debug/../src/start.S:50
loop_init_data:
	lw a3, 0(a0)
    1096:	4114                	lw	a3,0(a0)
C:\Users\admin\OneDrive - stu.cdu.edu.cn\2024FPGA\fpga_pds_project\cpu\picorv32+osp\software\HBird-workspace\pico_spi\Debug/../src/start.S:51
	sw a3, 0(a1)
    1098:	c194                	sw	a3,0(a1)
C:\Users\admin\OneDrive - stu.cdu.edu.cn\2024FPGA\fpga_pds_project\cpu\picorv32+osp\software\HBird-workspace\pico_spi\Debug/../src/start.S:52
	addi a0, a0, 4
    109a:	0511                	addi	a0,a0,4
C:\Users\admin\OneDrive - stu.cdu.edu.cn\2024FPGA\fpga_pds_project\cpu\picorv32+osp\software\HBird-workspace\pico_spi\Debug/../src/start.S:53
	addi a1, a1, 4
    109c:	0591                	addi	a1,a1,4
C:\Users\admin\OneDrive - stu.cdu.edu.cn\2024FPGA\fpga_pds_project\cpu\picorv32+osp\software\HBird-workspace\pico_spi\Debug/../src/start.S:54
	blt a1, a2, loop_init_data
    109e:	fec5cce3          	blt	a1,a2,1096 <loop_init_data>

000010a2 <end_init_data>:
end_init_data():
C:\Users\admin\OneDrive - stu.cdu.edu.cn\2024FPGA\fpga_pds_project\cpu\picorv32+osp\software\HBird-workspace\pico_spi\Debug/../src/start.S:58
end_init_data:

	# zero-init bss section
	la a0, _sbss
    10a2:	00000513          	li	a0,0
C:\Users\admin\OneDrive - stu.cdu.edu.cn\2024FPGA\fpga_pds_project\cpu\picorv32+osp\software\HBird-workspace\pico_spi\Debug/../src/start.S:59
	la a1, _ebss
    10a6:	00400593          	li	a1,4
C:\Users\admin\OneDrive - stu.cdu.edu.cn\2024FPGA\fpga_pds_project\cpu\picorv32+osp\software\HBird-workspace\pico_spi\Debug/../src/start.S:60
	bge a0, a1, end_init_bss
    10aa:	00b55763          	ble	a1,a0,10b8 <end_init_bss>

000010ae <loop_init_bss>:
loop_init_bss():
C:\Users\admin\OneDrive - stu.cdu.edu.cn\2024FPGA\fpga_pds_project\cpu\picorv32+osp\software\HBird-workspace\pico_spi\Debug/../src/start.S:62
loop_init_bss:
	sw zero, 0(a0)
    10ae:	00052023          	sw	zero,0(a0)
C:\Users\admin\OneDrive - stu.cdu.edu.cn\2024FPGA\fpga_pds_project\cpu\picorv32+osp\software\HBird-workspace\pico_spi\Debug/../src/start.S:63
	addi a0, a0, 4
    10b2:	0511                	addi	a0,a0,4
C:\Users\admin\OneDrive - stu.cdu.edu.cn\2024FPGA\fpga_pds_project\cpu\picorv32+osp\software\HBird-workspace\pico_spi\Debug/../src/start.S:64
	blt a0, a1, loop_init_bss
    10b4:	feb54de3          	blt	a0,a1,10ae <loop_init_bss>

000010b8 <end_init_bss>:
end_init_bss():
C:\Users\admin\OneDrive - stu.cdu.edu.cn\2024FPGA\fpga_pds_project\cpu\picorv32+osp\software\HBird-workspace\pico_spi\Debug/../src/start.S:69
end_init_bss:


	/* jump to main C code */
	jal ra,main
    10b8:	4a2000ef          	jal	ra,155a <main>
C:\Users\admin\OneDrive - stu.cdu.edu.cn\2024FPGA\fpga_pds_project\cpu\picorv32+osp\software\HBird-workspace\pico_spi\Debug/../src/start.S:72

1:
	j 1b
    10bc:	a001                	j	10bc <end_init_bss+0x4>
C:\Users\admin\OneDrive - stu.cdu.edu.cn\2024FPGA\fpga_pds_project\cpu\picorv32+osp\software\HBird-workspace\pico_spi\Debug/../src/start.S:75

	/* trap */
	ebreak
    10be:	9002                	ebreak

000010c0 <delay_us>:
delay_us():
C:\Users\admin\OneDrive - stu.cdu.edu.cn\2024FPGA\fpga_pds_project\cpu\picorv32+dds+osp+logic_alz_underclocking\software\HBird-workspace\pico_spi\Debug/../src/gmt024_spi.c:287
  unsigned char x=0;
  for(;_us_time>0;_us_time--)
  {
    x++;
  }
}
    10c0:	8082                	ret

000010c2 <Delay_ms>:
Delay_ms():
    10c2:	8082                	ret

000010c4 <SPI_SendByte>:
SPI_SendByte():
C:\Users\admin\OneDrive - stu.cdu.edu.cn\2024FPGA\fpga_pds_project\cpu\picorv32+dds+osp+logic_alz_underclocking\software\HBird-workspace\pico_spi\Debug/../src/gmt024_spi.c:306

/**************************SPI模块发送函数************************************************

 *************************************************************************/
void SPI_SendByte(unsigned  char byte)				//向液晶屏写一个8位数据
{
    10c4:	4721                	li	a4,8
C:\Users\admin\OneDrive - stu.cdu.edu.cn\2024FPGA\fpga_pds_project\cpu\picorv32+dds+osp+logic_alz_underclocking\software\HBird-workspace\pico_spi\Debug/../src/gmt024_spi.c:312
  
  unsigned char counter;
 
  for(counter=0;counter<8;counter++)
  { 
    SPI_SCK_0;		  
    10c6:	67a1                	lui	a5,0x8
    10c8:	a015                	j	10ec <SPI_SendByte+0x28>
C:\Users\admin\OneDrive - stu.cdu.edu.cn\2024FPGA\fpga_pds_project\cpu\picorv32+dds+osp+logic_alz_underclocking\software\HBird-workspace\pico_spi\Debug/../src/gmt024_spi.c:315
    if((byte&0x80)==0)
    {
      SPI_SDA_0;
    10ca:	5394                	lw	a3,32(a5)
    10cc:	0fd6f693          	andi	a3,a3,253
    10d0:	d394                	sw	a3,32(a5)
C:\Users\admin\OneDrive - stu.cdu.edu.cn\2024FPGA\fpga_pds_project\cpu\picorv32+dds+osp+logic_alz_underclocking\software\HBird-workspace\pico_spi\Debug/../src/gmt024_spi.c:319 (discriminator 2)
    }
    else SPI_SDA_1;
    byte=byte<<1;	
    SPI_SCK_1;		
    10d2:	5394                	lw	a3,32(a5)
    10d4:	177d                	addi	a4,a4,-1
C:\Users\admin\OneDrive - stu.cdu.edu.cn\2024FPGA\fpga_pds_project\cpu\picorv32+dds+osp+logic_alz_underclocking\software\HBird-workspace\pico_spi\Debug/../src/gmt024_spi.c:318 (discriminator 2)
    byte=byte<<1;	
    10d6:	0506                	slli	a0,a0,0x1
C:\Users\admin\OneDrive - stu.cdu.edu.cn\2024FPGA\fpga_pds_project\cpu\picorv32+dds+osp+logic_alz_underclocking\software\HBird-workspace\pico_spi\Debug/../src/gmt024_spi.c:319 (discriminator 2)
    SPI_SCK_1;		
    10d8:	0016e693          	ori	a3,a3,1
    10dc:	d394                	sw	a3,32(a5)
    10de:	0ff77713          	andi	a4,a4,255
C:\Users\admin\OneDrive - stu.cdu.edu.cn\2024FPGA\fpga_pds_project\cpu\picorv32+dds+osp+logic_alz_underclocking\software\HBird-workspace\pico_spi\Debug/../src/gmt024_spi.c:318 (discriminator 2)
    byte=byte<<1;	
    10e2:	0ff57513          	andi	a0,a0,255
C:\Users\admin\OneDrive - stu.cdu.edu.cn\2024FPGA\fpga_pds_project\cpu\picorv32+dds+osp+logic_alz_underclocking\software\HBird-workspace\pico_spi\Debug/../src/gmt024_spi.c:319 (discriminator 2)
    SPI_SCK_1;		
    10e6:	02078693          	addi	a3,a5,32 # 8020 <_etext+0x3844>
C:\Users\admin\OneDrive - stu.cdu.edu.cn\2024FPGA\fpga_pds_project\cpu\picorv32+dds+osp+logic_alz_underclocking\software\HBird-workspace\pico_spi\Debug/../src/gmt024_spi.c:310 (discriminator 2)
  for(counter=0;counter<8;counter++)
    10ea:	cf19                	beqz	a4,1108 <SPI_SendByte+0x44>
C:\Users\admin\OneDrive - stu.cdu.edu.cn\2024FPGA\fpga_pds_project\cpu\picorv32+dds+osp+logic_alz_underclocking\software\HBird-workspace\pico_spi\Debug/../src/gmt024_spi.c:312
    SPI_SCK_0;		  
    10ec:	5390                	lw	a2,32(a5)
C:\Users\admin\OneDrive - stu.cdu.edu.cn\2024FPGA\fpga_pds_project\cpu\picorv32+dds+osp+logic_alz_underclocking\software\HBird-workspace\pico_spi\Debug/../src/gmt024_spi.c:313
    if((byte&0x80)==0)
    10ee:	01851693          	slli	a3,a0,0x18
    10f2:	86e1                	srai	a3,a3,0x18
C:\Users\admin\OneDrive - stu.cdu.edu.cn\2024FPGA\fpga_pds_project\cpu\picorv32+dds+osp+logic_alz_underclocking\software\HBird-workspace\pico_spi\Debug/../src/gmt024_spi.c:312
    SPI_SCK_0;		  
    10f4:	0fe67613          	andi	a2,a2,254
    10f8:	d390                	sw	a2,32(a5)
C:\Users\admin\OneDrive - stu.cdu.edu.cn\2024FPGA\fpga_pds_project\cpu\picorv32+dds+osp+logic_alz_underclocking\software\HBird-workspace\pico_spi\Debug/../src/gmt024_spi.c:313
    if((byte&0x80)==0)
    10fa:	fc06d8e3          	bgez	a3,10ca <SPI_SendByte+0x6>
C:\Users\admin\OneDrive - stu.cdu.edu.cn\2024FPGA\fpga_pds_project\cpu\picorv32+dds+osp+logic_alz_underclocking\software\HBird-workspace\pico_spi\Debug/../src/gmt024_spi.c:317
    else SPI_SDA_1;
    10fe:	5394                	lw	a3,32(a5)
    1100:	0026e693          	ori	a3,a3,2
    1104:	d394                	sw	a3,32(a5)
    1106:	b7f1                	j	10d2 <SPI_SendByte+0xe>
C:\Users\admin\OneDrive - stu.cdu.edu.cn\2024FPGA\fpga_pds_project\cpu\picorv32+dds+osp+logic_alz_underclocking\software\HBird-workspace\pico_spi\Debug/../src/gmt024_spi.c:321
  }		
	SPI_SCK_0;
    1108:	539c                	lw	a5,32(a5)
    110a:	0fe7f793          	andi	a5,a5,254
    110e:	c29c                	sw	a5,0(a3)
C:\Users\admin\OneDrive - stu.cdu.edu.cn\2024FPGA\fpga_pds_project\cpu\picorv32+dds+osp+logic_alz_underclocking\software\HBird-workspace\pico_spi\Debug/../src/gmt024_spi.c:322
}
    1110:	8082                	ret

00001112 <TFT_SEND_CMD>:
TFT_SEND_CMD():
C:\Users\admin\OneDrive - stu.cdu.edu.cn\2024FPGA\fpga_pds_project\cpu\picorv32+dds+osp+logic_alz_underclocking\software\HBird-workspace\pico_spi\Debug/../src/gmt024_spi.c:325

void TFT_SEND_CMD(unsigned char o_command)
  {
    1112:	1141                	addi	sp,sp,-16
    1114:	c422                	sw	s0,8(sp)
C:\Users\admin\OneDrive - stu.cdu.edu.cn\2024FPGA\fpga_pds_project\cpu\picorv32+dds+osp+logic_alz_underclocking\software\HBird-workspace\pico_spi\Debug/../src/gmt024_spi.c:326
	SPI_DC_0;
    1116:	6421                	lui	s0,0x8
    1118:	501c                	lw	a5,32(s0)
C:\Users\admin\OneDrive - stu.cdu.edu.cn\2024FPGA\fpga_pds_project\cpu\picorv32+dds+osp+logic_alz_underclocking\software\HBird-workspace\pico_spi\Debug/../src/gmt024_spi.c:325
  {
    111a:	c606                	sw	ra,12(sp)
C:\Users\admin\OneDrive - stu.cdu.edu.cn\2024FPGA\fpga_pds_project\cpu\picorv32+dds+osp+logic_alz_underclocking\software\HBird-workspace\pico_spi\Debug/../src/gmt024_spi.c:326
	SPI_DC_0;
    111c:	0f77f793          	andi	a5,a5,247
    1120:	d01c                	sw	a5,32(s0)
C:\Users\admin\OneDrive - stu.cdu.edu.cn\2024FPGA\fpga_pds_project\cpu\picorv32+dds+osp+logic_alz_underclocking\software\HBird-workspace\pico_spi\Debug/../src/gmt024_spi.c:327
	SPI_CS_0;
    1122:	501c                	lw	a5,32(s0)
    1124:	0ef7f793          	andi	a5,a5,239
    1128:	d01c                	sw	a5,32(s0)
C:\Users\admin\OneDrive - stu.cdu.edu.cn\2024FPGA\fpga_pds_project\cpu\picorv32+dds+osp+logic_alz_underclocking\software\HBird-workspace\pico_spi\Debug/../src/gmt024_spi.c:329
	  
    SPI_SendByte(o_command);
    112a:	3f69                	jal	10c4 <SPI_SendByte>
C:\Users\admin\OneDrive - stu.cdu.edu.cn\2024FPGA\fpga_pds_project\cpu\picorv32+dds+osp+logic_alz_underclocking\software\HBird-workspace\pico_spi\Debug/../src/gmt024_spi.c:330
	SPI_CS_1;
    112c:	501c                	lw	a5,32(s0)
C:\Users\admin\OneDrive - stu.cdu.edu.cn\2024FPGA\fpga_pds_project\cpu\picorv32+dds+osp+logic_alz_underclocking\software\HBird-workspace\pico_spi\Debug/../src/gmt024_spi.c:331
  }
    112e:	40b2                	lw	ra,12(sp)
C:\Users\admin\OneDrive - stu.cdu.edu.cn\2024FPGA\fpga_pds_project\cpu\picorv32+dds+osp+logic_alz_underclocking\software\HBird-workspace\pico_spi\Debug/../src/gmt024_spi.c:330
	SPI_CS_1;
    1130:	0107e793          	ori	a5,a5,16
    1134:	d01c                	sw	a5,32(s0)
C:\Users\admin\OneDrive - stu.cdu.edu.cn\2024FPGA\fpga_pds_project\cpu\picorv32+dds+osp+logic_alz_underclocking\software\HBird-workspace\pico_spi\Debug/../src/gmt024_spi.c:331
  }
    1136:	4422                	lw	s0,8(sp)
    1138:	0141                	addi	sp,sp,16
    113a:	8082                	ret

0000113c <TFT_SEND_DATA>:
TFT_SEND_DATA():
C:\Users\admin\OneDrive - stu.cdu.edu.cn\2024FPGA\fpga_pds_project\cpu\picorv32+dds+osp+logic_alz_underclocking\software\HBird-workspace\pico_spi\Debug/../src/gmt024_spi.c:334
  //向液晶屏写一个8位数据
void TFT_SEND_DATA(unsigned  char o_data)
  { 
    113c:	1141                	addi	sp,sp,-16
    113e:	c422                	sw	s0,8(sp)
C:\Users\admin\OneDrive - stu.cdu.edu.cn\2024FPGA\fpga_pds_project\cpu\picorv32+dds+osp+logic_alz_underclocking\software\HBird-workspace\pico_spi\Debug/../src/gmt024_spi.c:335
    SPI_DC_1;
    1140:	6421                	lui	s0,0x8
    1142:	501c                	lw	a5,32(s0)
C:\Users\admin\OneDrive - stu.cdu.edu.cn\2024FPGA\fpga_pds_project\cpu\picorv32+dds+osp+logic_alz_underclocking\software\HBird-workspace\pico_spi\Debug/../src/gmt024_spi.c:334
  { 
    1144:	c606                	sw	ra,12(sp)
C:\Users\admin\OneDrive - stu.cdu.edu.cn\2024FPGA\fpga_pds_project\cpu\picorv32+dds+osp+logic_alz_underclocking\software\HBird-workspace\pico_spi\Debug/../src/gmt024_spi.c:335
    SPI_DC_1;
    1146:	0087e793          	ori	a5,a5,8
    114a:	d01c                	sw	a5,32(s0)
C:\Users\admin\OneDrive - stu.cdu.edu.cn\2024FPGA\fpga_pds_project\cpu\picorv32+dds+osp+logic_alz_underclocking\software\HBird-workspace\pico_spi\Debug/../src/gmt024_spi.c:336
	SPI_CS_0;	
    114c:	501c                	lw	a5,32(s0)
    114e:	0ef7f793          	andi	a5,a5,239
    1152:	d01c                	sw	a5,32(s0)
C:\Users\admin\OneDrive - stu.cdu.edu.cn\2024FPGA\fpga_pds_project\cpu\picorv32+dds+osp+logic_alz_underclocking\software\HBird-workspace\pico_spi\Debug/../src/gmt024_spi.c:337
    SPI_SendByte(o_data);
    1154:	3f85                	jal	10c4 <SPI_SendByte>
C:\Users\admin\OneDrive - stu.cdu.edu.cn\2024FPGA\fpga_pds_project\cpu\picorv32+dds+osp+logic_alz_underclocking\software\HBird-workspace\pico_spi\Debug/../src/gmt024_spi.c:338
	SPI_CS_1;	  
    1156:	501c                	lw	a5,32(s0)
C:\Users\admin\OneDrive - stu.cdu.edu.cn\2024FPGA\fpga_pds_project\cpu\picorv32+dds+osp+logic_alz_underclocking\software\HBird-workspace\pico_spi\Debug/../src/gmt024_spi.c:339
   }
    1158:	40b2                	lw	ra,12(sp)
C:\Users\admin\OneDrive - stu.cdu.edu.cn\2024FPGA\fpga_pds_project\cpu\picorv32+dds+osp+logic_alz_underclocking\software\HBird-workspace\pico_spi\Debug/../src/gmt024_spi.c:338
	SPI_CS_1;	  
    115a:	0107e793          	ori	a5,a5,16
    115e:	d01c                	sw	a5,32(s0)
C:\Users\admin\OneDrive - stu.cdu.edu.cn\2024FPGA\fpga_pds_project\cpu\picorv32+dds+osp+logic_alz_underclocking\software\HBird-workspace\pico_spi\Debug/../src/gmt024_spi.c:339
   }
    1160:	4422                	lw	s0,8(sp)
    1162:	0141                	addi	sp,sp,16
    1164:	8082                	ret

00001166 <TFT_clear>:
TFT_clear():
C:\Users\admin\OneDrive - stu.cdu.edu.cn\2024FPGA\fpga_pds_project\cpu\picorv32+dds+osp+logic_alz_underclocking\software\HBird-workspace\pico_spi\Debug/../src/gmt024_spi.c:341
void TFT_clear(void)
  {
    1166:	1141                	addi	sp,sp,-16
C:\Users\admin\OneDrive - stu.cdu.edu.cn\2024FPGA\fpga_pds_project\cpu\picorv32+dds+osp+logic_alz_underclocking\software\HBird-workspace\pico_spi\Debug/../src/gmt024_spi.c:343
    unsigned int ROW,column;
  TFT_SEND_CMD(0x2a);     //Column address set
    1168:	02a00513          	li	a0,42
C:\Users\admin\OneDrive - stu.cdu.edu.cn\2024FPGA\fpga_pds_project\cpu\picorv32+dds+osp+logic_alz_underclocking\software\HBird-workspace\pico_spi\Debug/../src/gmt024_spi.c:341
  {
    116c:	c606                	sw	ra,12(sp)
    116e:	c226                	sw	s1,4(sp)
    1170:	c422                	sw	s0,8(sp)
C:\Users\admin\OneDrive - stu.cdu.edu.cn\2024FPGA\fpga_pds_project\cpu\picorv32+dds+osp+logic_alz_underclocking\software\HBird-workspace\pico_spi\Debug/../src/gmt024_spi.c:343
  TFT_SEND_CMD(0x2a);     //Column address set
    1172:	3745                	jal	1112 <TFT_SEND_CMD>
C:\Users\admin\OneDrive - stu.cdu.edu.cn\2024FPGA\fpga_pds_project\cpu\picorv32+dds+osp+logic_alz_underclocking\software\HBird-workspace\pico_spi\Debug/../src/gmt024_spi.c:344
  TFT_SEND_DATA(0x00);    //start column
    1174:	4501                	li	a0,0
    1176:	37d9                	jal	113c <TFT_SEND_DATA>
C:\Users\admin\OneDrive - stu.cdu.edu.cn\2024FPGA\fpga_pds_project\cpu\picorv32+dds+osp+logic_alz_underclocking\software\HBird-workspace\pico_spi\Debug/../src/gmt024_spi.c:345
  TFT_SEND_DATA(0x00); 
    1178:	4501                	li	a0,0
    117a:	37c9                	jal	113c <TFT_SEND_DATA>
C:\Users\admin\OneDrive - stu.cdu.edu.cn\2024FPGA\fpga_pds_project\cpu\picorv32+dds+osp+logic_alz_underclocking\software\HBird-workspace\pico_spi\Debug/../src/gmt024_spi.c:346
  TFT_SEND_DATA(0x00);    //end column
    117c:	4501                	li	a0,0
    117e:	3f7d                	jal	113c <TFT_SEND_DATA>
C:\Users\admin\OneDrive - stu.cdu.edu.cn\2024FPGA\fpga_pds_project\cpu\picorv32+dds+osp+logic_alz_underclocking\software\HBird-workspace\pico_spi\Debug/../src/gmt024_spi.c:347
  TFT_SEND_DATA(0xF0);
    1180:	0f000513          	li	a0,240
    1184:	3f65                	jal	113c <TFT_SEND_DATA>
C:\Users\admin\OneDrive - stu.cdu.edu.cn\2024FPGA\fpga_pds_project\cpu\picorv32+dds+osp+logic_alz_underclocking\software\HBird-workspace\pico_spi\Debug/../src/gmt024_spi.c:349

  TFT_SEND_CMD(0x2b);     //Row address set
    1186:	02b00513          	li	a0,43
    118a:	3761                	jal	1112 <TFT_SEND_CMD>
C:\Users\admin\OneDrive - stu.cdu.edu.cn\2024FPGA\fpga_pds_project\cpu\picorv32+dds+osp+logic_alz_underclocking\software\HBird-workspace\pico_spi\Debug/../src/gmt024_spi.c:350
  TFT_SEND_DATA(0x00);    //start row
    118c:	4501                	li	a0,0
    118e:	377d                	jal	113c <TFT_SEND_DATA>
C:\Users\admin\OneDrive - stu.cdu.edu.cn\2024FPGA\fpga_pds_project\cpu\picorv32+dds+osp+logic_alz_underclocking\software\HBird-workspace\pico_spi\Debug/../src/gmt024_spi.c:351
  TFT_SEND_DATA(0x00); 
    1190:	4501                	li	a0,0
    1192:	376d                	jal	113c <TFT_SEND_DATA>
C:\Users\admin\OneDrive - stu.cdu.edu.cn\2024FPGA\fpga_pds_project\cpu\picorv32+dds+osp+logic_alz_underclocking\software\HBird-workspace\pico_spi\Debug/../src/gmt024_spi.c:352
  TFT_SEND_DATA(0x01);    //end row
    1194:	4505                	li	a0,1
    1196:	375d                	jal	113c <TFT_SEND_DATA>
C:\Users\admin\OneDrive - stu.cdu.edu.cn\2024FPGA\fpga_pds_project\cpu\picorv32+dds+osp+logic_alz_underclocking\software\HBird-workspace\pico_spi\Debug/../src/gmt024_spi.c:353
  TFT_SEND_DATA(0x40);
    1198:	04000513          	li	a0,64
    119c:	3745                	jal	113c <TFT_SEND_DATA>
C:\Users\admin\OneDrive - stu.cdu.edu.cn\2024FPGA\fpga_pds_project\cpu\picorv32+dds+osp+logic_alz_underclocking\software\HBird-workspace\pico_spi\Debug/../src/gmt024_spi.c:354
    TFT_SEND_CMD(0x2C);     //Memory write
    119e:	02c00513          	li	a0,44
    11a2:	3f85                	jal	1112 <TFT_SEND_CMD>
    11a4:	14000493          	li	s1,320
C:\Users\admin\OneDrive - stu.cdu.edu.cn\2024FPGA\fpga_pds_project\cpu\picorv32+dds+osp+logic_alz_underclocking\software\HBird-workspace\pico_spi\Debug/../src/gmt024_spi.c:341
  {
    11a8:	0f000413          	li	s0,240
C:\Users\admin\OneDrive - stu.cdu.edu.cn\2024FPGA\fpga_pds_project\cpu\picorv32+dds+osp+logic_alz_underclocking\software\HBird-workspace\pico_spi\Debug/../src/gmt024_spi.c:361 (discriminator 3)
      { 
    
          for(column=0;column<TFT_COLUMN_NUMBER;column++)  //column loop
            {
              
				TFT_SEND_DATA(0xFF);
    11ac:	0ff00513          	li	a0,255
    11b0:	3771                	jal	113c <TFT_SEND_DATA>
    11b2:	147d                	addi	s0,s0,-1
C:\Users\admin\OneDrive - stu.cdu.edu.cn\2024FPGA\fpga_pds_project\cpu\picorv32+dds+osp+logic_alz_underclocking\software\HBird-workspace\pico_spi\Debug/../src/gmt024_spi.c:362 (discriminator 3)
				TFT_SEND_DATA(0xFF);
    11b4:	0ff00513          	li	a0,255
    11b8:	3751                	jal	113c <TFT_SEND_DATA>
C:\Users\admin\OneDrive - stu.cdu.edu.cn\2024FPGA\fpga_pds_project\cpu\picorv32+dds+osp+logic_alz_underclocking\software\HBird-workspace\pico_spi\Debug/../src/gmt024_spi.c:358 (discriminator 3)
          for(column=0;column<TFT_COLUMN_NUMBER;column++)  //column loop
    11ba:	f86d                	bnez	s0,11ac <TFT_clear+0x46>
    11bc:	14fd                	addi	s1,s1,-1
C:\Users\admin\OneDrive - stu.cdu.edu.cn\2024FPGA\fpga_pds_project\cpu\picorv32+dds+osp+logic_alz_underclocking\software\HBird-workspace\pico_spi\Debug/../src/gmt024_spi.c:355 (discriminator 2)
    for(ROW=0;ROW<TFT_LINE_NUMBER;ROW++)             //ROW loop
    11be:	f4ed                	bnez	s1,11a8 <TFT_clear+0x42>
C:\Users\admin\OneDrive - stu.cdu.edu.cn\2024FPGA\fpga_pds_project\cpu\picorv32+dds+osp+logic_alz_underclocking\software\HBird-workspace\pico_spi\Debug/../src/gmt024_spi.c:365
            }
      }
  }
    11c0:	40b2                	lw	ra,12(sp)
    11c2:	4422                	lw	s0,8(sp)
    11c4:	4492                	lw	s1,4(sp)
    11c6:	0141                	addi	sp,sp,16
    11c8:	8082                	ret

000011ca <TFT_full>:
TFT_full():
C:\Users\admin\OneDrive - stu.cdu.edu.cn\2024FPGA\fpga_pds_project\cpu\picorv32+dds+osp+logic_alz_underclocking\software\HBird-workspace\pico_spi\Debug/../src/gmt024_spi.c:367
void TFT_full(unsigned int color)
  {
    11ca:	1101                	addi	sp,sp,-32
    11cc:	ca26                	sw	s1,20(sp)
    11ce:	84aa                	mv	s1,a0
C:\Users\admin\OneDrive - stu.cdu.edu.cn\2024FPGA\fpga_pds_project\cpu\picorv32+dds+osp+logic_alz_underclocking\software\HBird-workspace\pico_spi\Debug/../src/gmt024_spi.c:369
    unsigned int ROW,column;
    TFT_SEND_CMD(0x2a);     //Column address set
    11d0:	02a00513          	li	a0,42
C:\Users\admin\OneDrive - stu.cdu.edu.cn\2024FPGA\fpga_pds_project\cpu\picorv32+dds+osp+logic_alz_underclocking\software\HBird-workspace\pico_spi\Debug/../src/gmt024_spi.c:367
  {
    11d4:	ce06                	sw	ra,28(sp)
    11d6:	c84a                	sw	s2,16(sp)
    11d8:	c64e                	sw	s3,12(sp)
    11da:	cc22                	sw	s0,24(sp)
C:\Users\admin\OneDrive - stu.cdu.edu.cn\2024FPGA\fpga_pds_project\cpu\picorv32+dds+osp+logic_alz_underclocking\software\HBird-workspace\pico_spi\Debug/../src/gmt024_spi.c:369
    TFT_SEND_CMD(0x2a);     //Column address set
    11dc:	3f1d                	jal	1112 <TFT_SEND_CMD>
C:\Users\admin\OneDrive - stu.cdu.edu.cn\2024FPGA\fpga_pds_project\cpu\picorv32+dds+osp+logic_alz_underclocking\software\HBird-workspace\pico_spi\Debug/../src/gmt024_spi.c:370
  TFT_SEND_DATA(0x00);    //start column
    11de:	4501                	li	a0,0
    11e0:	3fb1                	jal	113c <TFT_SEND_DATA>
C:\Users\admin\OneDrive - stu.cdu.edu.cn\2024FPGA\fpga_pds_project\cpu\picorv32+dds+osp+logic_alz_underclocking\software\HBird-workspace\pico_spi\Debug/../src/gmt024_spi.c:371
  TFT_SEND_DATA(0x00); 
    11e2:	4501                	li	a0,0
    11e4:	3fa1                	jal	113c <TFT_SEND_DATA>
C:\Users\admin\OneDrive - stu.cdu.edu.cn\2024FPGA\fpga_pds_project\cpu\picorv32+dds+osp+logic_alz_underclocking\software\HBird-workspace\pico_spi\Debug/../src/gmt024_spi.c:372
  TFT_SEND_DATA(0x00);    //end column
    11e6:	4501                	li	a0,0
    11e8:	3f91                	jal	113c <TFT_SEND_DATA>
C:\Users\admin\OneDrive - stu.cdu.edu.cn\2024FPGA\fpga_pds_project\cpu\picorv32+dds+osp+logic_alz_underclocking\software\HBird-workspace\pico_spi\Debug/../src/gmt024_spi.c:373
  TFT_SEND_DATA(0xF0);
    11ea:	0f000513          	li	a0,240
    11ee:	37b9                	jal	113c <TFT_SEND_DATA>
C:\Users\admin\OneDrive - stu.cdu.edu.cn\2024FPGA\fpga_pds_project\cpu\picorv32+dds+osp+logic_alz_underclocking\software\HBird-workspace\pico_spi\Debug/../src/gmt024_spi.c:375

  TFT_SEND_CMD(0x2b);     //Row address set
    11f0:	02b00513          	li	a0,43
    11f4:	3f39                	jal	1112 <TFT_SEND_CMD>
C:\Users\admin\OneDrive - stu.cdu.edu.cn\2024FPGA\fpga_pds_project\cpu\picorv32+dds+osp+logic_alz_underclocking\software\HBird-workspace\pico_spi\Debug/../src/gmt024_spi.c:376
  TFT_SEND_DATA(0x00);    //start row
    11f6:	4501                	li	a0,0
    11f8:	3791                	jal	113c <TFT_SEND_DATA>
C:\Users\admin\OneDrive - stu.cdu.edu.cn\2024FPGA\fpga_pds_project\cpu\picorv32+dds+osp+logic_alz_underclocking\software\HBird-workspace\pico_spi\Debug/../src/gmt024_spi.c:377
  TFT_SEND_DATA(0x00); 
    11fa:	4501                	li	a0,0
    11fc:	3781                	jal	113c <TFT_SEND_DATA>
C:\Users\admin\OneDrive - stu.cdu.edu.cn\2024FPGA\fpga_pds_project\cpu\picorv32+dds+osp+logic_alz_underclocking\software\HBird-workspace\pico_spi\Debug/../src/gmt024_spi.c:378
  TFT_SEND_DATA(0x01);    //end row
    11fe:	4505                	li	a0,1
    1200:	3f35                	jal	113c <TFT_SEND_DATA>
C:\Users\admin\OneDrive - stu.cdu.edu.cn\2024FPGA\fpga_pds_project\cpu\picorv32+dds+osp+logic_alz_underclocking\software\HBird-workspace\pico_spi\Debug/../src/gmt024_spi.c:379
  TFT_SEND_DATA(0x40);
    1202:	04000513          	li	a0,64
    1206:	3f1d                	jal	113c <TFT_SEND_DATA>
C:\Users\admin\OneDrive - stu.cdu.edu.cn\2024FPGA\fpga_pds_project\cpu\picorv32+dds+osp+logic_alz_underclocking\software\HBird-workspace\pico_spi\Debug/../src/gmt024_spi.c:387
      { 
    
  for(column=0;column<TFT_COLUMN_NUMBER ;column++) //column loop
          {

			TFT_SEND_DATA(color>>8);
    1208:	0084d913          	srli	s2,s1,0x8
C:\Users\admin\OneDrive - stu.cdu.edu.cn\2024FPGA\fpga_pds_project\cpu\picorv32+dds+osp+logic_alz_underclocking\software\HBird-workspace\pico_spi\Debug/../src/gmt024_spi.c:380
    TFT_SEND_CMD(0x2C);     //Memory write
    120c:	02c00513          	li	a0,44
    1210:	3709                	jal	1112 <TFT_SEND_CMD>
C:\Users\admin\OneDrive - stu.cdu.edu.cn\2024FPGA\fpga_pds_project\cpu\picorv32+dds+osp+logic_alz_underclocking\software\HBird-workspace\pico_spi\Debug/../src/gmt024_spi.c:387
			TFT_SEND_DATA(color>>8);
    1212:	0ff97913          	andi	s2,s2,255
    1216:	0ff4f493          	andi	s1,s1,255
    121a:	14000993          	li	s3,320
C:\Users\admin\OneDrive - stu.cdu.edu.cn\2024FPGA\fpga_pds_project\cpu\picorv32+dds+osp+logic_alz_underclocking\software\HBird-workspace\pico_spi\Debug/../src/gmt024_spi.c:367
  {
    121e:	0f000413          	li	s0,240
C:\Users\admin\OneDrive - stu.cdu.edu.cn\2024FPGA\fpga_pds_project\cpu\picorv32+dds+osp+logic_alz_underclocking\software\HBird-workspace\pico_spi\Debug/../src/gmt024_spi.c:387 (discriminator 3)
			TFT_SEND_DATA(color>>8);
    1222:	854a                	mv	a0,s2
    1224:	3f21                	jal	113c <TFT_SEND_DATA>
    1226:	147d                	addi	s0,s0,-1
C:\Users\admin\OneDrive - stu.cdu.edu.cn\2024FPGA\fpga_pds_project\cpu\picorv32+dds+osp+logic_alz_underclocking\software\HBird-workspace\pico_spi\Debug/../src/gmt024_spi.c:388 (discriminator 3)
			  TFT_SEND_DATA(color);
    1228:	8526                	mv	a0,s1
    122a:	3f09                	jal	113c <TFT_SEND_DATA>
C:\Users\admin\OneDrive - stu.cdu.edu.cn\2024FPGA\fpga_pds_project\cpu\picorv32+dds+osp+logic_alz_underclocking\software\HBird-workspace\pico_spi\Debug/../src/gmt024_spi.c:384 (discriminator 3)
  for(column=0;column<TFT_COLUMN_NUMBER ;column++) //column loop
    122c:	f87d                	bnez	s0,1222 <TFT_full+0x58>
    122e:	19fd                	addi	s3,s3,-1
C:\Users\admin\OneDrive - stu.cdu.edu.cn\2024FPGA\fpga_pds_project\cpu\picorv32+dds+osp+logic_alz_underclocking\software\HBird-workspace\pico_spi\Debug/../src/gmt024_spi.c:381 (discriminator 2)
    for(ROW=0;ROW<TFT_LINE_NUMBER;ROW++)             //ROW loop
    1230:	fe0997e3          	bnez	s3,121e <TFT_full+0x54>
C:\Users\admin\OneDrive - stu.cdu.edu.cn\2024FPGA\fpga_pds_project\cpu\picorv32+dds+osp+logic_alz_underclocking\software\HBird-workspace\pico_spi\Debug/../src/gmt024_spi.c:391
          }
      }
  }
    1234:	40f2                	lw	ra,28(sp)
    1236:	4462                	lw	s0,24(sp)
    1238:	44d2                	lw	s1,20(sp)
    123a:	4942                	lw	s2,16(sp)
    123c:	49b2                	lw	s3,12(sp)
    123e:	6105                	addi	sp,sp,32
    1240:	8082                	ret

00001242 <TFT_init>:
TFT_init():
C:\Users\admin\OneDrive - stu.cdu.edu.cn\2024FPGA\fpga_pds_project\cpu\picorv32+dds+osp+logic_alz_underclocking\software\HBird-workspace\pico_spi\Debug/../src/gmt024_spi.c:396


void TFT_init(void)				////ST7789V2
  {
	SPI_SCK_1;			//特别注意！！
    1242:	67a1                	lui	a5,0x8
    1244:	5398                	lw	a4,32(a5)
C:\Users\admin\OneDrive - stu.cdu.edu.cn\2024FPGA\fpga_pds_project\cpu\picorv32+dds+osp+logic_alz_underclocking\software\HBird-workspace\pico_spi\Debug/../src/gmt024_spi.c:395
  {
    1246:	1141                	addi	sp,sp,-16
    1248:	c606                	sw	ra,12(sp)
C:\Users\admin\OneDrive - stu.cdu.edu.cn\2024FPGA\fpga_pds_project\cpu\picorv32+dds+osp+logic_alz_underclocking\software\HBird-workspace\pico_spi\Debug/../src/gmt024_spi.c:396
	SPI_SCK_1;			//特别注意！！
    124a:	00176713          	ori	a4,a4,1
    124e:	d398                	sw	a4,32(a5)
C:\Users\admin\OneDrive - stu.cdu.edu.cn\2024FPGA\fpga_pds_project\cpu\picorv32+dds+osp+logic_alz_underclocking\software\HBird-workspace\pico_spi\Debug/../src/gmt024_spi.c:397
	SPI_RST_0;
    1250:	5398                	lw	a4,32(a5)
C:\Users\admin\OneDrive - stu.cdu.edu.cn\2024FPGA\fpga_pds_project\cpu\picorv32+dds+osp+logic_alz_underclocking\software\HBird-workspace\pico_spi\Debug/../src/gmt024_spi.c:401
	Delay_ms(50);//1000
	SPI_RST_1;
	Delay_ms(10);//1000
    TFT_SEND_CMD(0x11); 			//Sleep Out
    1252:	4545                	li	a0,17
C:\Users\admin\OneDrive - stu.cdu.edu.cn\2024FPGA\fpga_pds_project\cpu\picorv32+dds+osp+logic_alz_underclocking\software\HBird-workspace\pico_spi\Debug/../src/gmt024_spi.c:397
	SPI_RST_0;
    1254:	0fb77713          	andi	a4,a4,251
    1258:	d398                	sw	a4,32(a5)
C:\Users\admin\OneDrive - stu.cdu.edu.cn\2024FPGA\fpga_pds_project\cpu\picorv32+dds+osp+logic_alz_underclocking\software\HBird-workspace\pico_spi\Debug/../src/gmt024_spi.c:399
	SPI_RST_1;
    125a:	5398                	lw	a4,32(a5)
    125c:	00476713          	ori	a4,a4,4
    1260:	d398                	sw	a4,32(a5)
C:\Users\admin\OneDrive - stu.cdu.edu.cn\2024FPGA\fpga_pds_project\cpu\picorv32+dds+osp+logic_alz_underclocking\software\HBird-workspace\pico_spi\Debug/../src/gmt024_spi.c:401
    TFT_SEND_CMD(0x11); 			//Sleep Out
    1262:	3d45                	jal	1112 <TFT_SEND_CMD>
C:\Users\admin\OneDrive - stu.cdu.edu.cn\2024FPGA\fpga_pds_project\cpu\picorv32+dds+osp+logic_alz_underclocking\software\HBird-workspace\pico_spi\Debug/../src/gmt024_spi.c:405
	Delay_ms(120);               //DELAY120ms
	 	  //-----------------------ST7789V Frame rate setting-----------------//
//************************************************
                TFT_SEND_CMD(0x3A);        //65k mode
    1264:	03a00513          	li	a0,58
    1268:	356d                	jal	1112 <TFT_SEND_CMD>
C:\Users\admin\OneDrive - stu.cdu.edu.cn\2024FPGA\fpga_pds_project\cpu\picorv32+dds+osp+logic_alz_underclocking\software\HBird-workspace\pico_spi\Debug/../src/gmt024_spi.c:406
                TFT_SEND_DATA(0x05);
    126a:	4515                	li	a0,5
    126c:	3dc1                	jal	113c <TFT_SEND_DATA>
C:\Users\admin\OneDrive - stu.cdu.edu.cn\2024FPGA\fpga_pds_project\cpu\picorv32+dds+osp+logic_alz_underclocking\software\HBird-workspace\pico_spi\Debug/../src/gmt024_spi.c:407
                TFT_SEND_CMD(0xC5); 		//VCOM
    126e:	0c500513          	li	a0,197
    1272:	3545                	jal	1112 <TFT_SEND_CMD>
C:\Users\admin\OneDrive - stu.cdu.edu.cn\2024FPGA\fpga_pds_project\cpu\picorv32+dds+osp+logic_alz_underclocking\software\HBird-workspace\pico_spi\Debug/../src/gmt024_spi.c:408
                TFT_SEND_DATA(0x1A);
    1274:	4569                	li	a0,26
    1276:	35d9                	jal	113c <TFT_SEND_DATA>
C:\Users\admin\OneDrive - stu.cdu.edu.cn\2024FPGA\fpga_pds_project\cpu\picorv32+dds+osp+logic_alz_underclocking\software\HBird-workspace\pico_spi\Debug/../src/gmt024_spi.c:409
                TFT_SEND_CMD(0x36);                 // 屏幕显示方向设置
    1278:	03600513          	li	a0,54
    127c:	3d59                	jal	1112 <TFT_SEND_CMD>
C:\Users\admin\OneDrive - stu.cdu.edu.cn\2024FPGA\fpga_pds_project\cpu\picorv32+dds+osp+logic_alz_underclocking\software\HBird-workspace\pico_spi\Debug/../src/gmt024_spi.c:410
                TFT_SEND_DATA(0x00);
    127e:	4501                	li	a0,0
    1280:	3d75                	jal	113c <TFT_SEND_DATA>
C:\Users\admin\OneDrive - stu.cdu.edu.cn\2024FPGA\fpga_pds_project\cpu\picorv32+dds+osp+logic_alz_underclocking\software\HBird-workspace\pico_spi\Debug/../src/gmt024_spi.c:412
                //-------------ST7789V Frame rate setting-----------//
                TFT_SEND_CMD(0xb2);		//Porch Setting
    1282:	0b200513          	li	a0,178
    1286:	3571                	jal	1112 <TFT_SEND_CMD>
C:\Users\admin\OneDrive - stu.cdu.edu.cn\2024FPGA\fpga_pds_project\cpu\picorv32+dds+osp+logic_alz_underclocking\software\HBird-workspace\pico_spi\Debug/../src/gmt024_spi.c:413
                TFT_SEND_DATA(0x05);
    1288:	4515                	li	a0,5
    128a:	3d4d                	jal	113c <TFT_SEND_DATA>
C:\Users\admin\OneDrive - stu.cdu.edu.cn\2024FPGA\fpga_pds_project\cpu\picorv32+dds+osp+logic_alz_underclocking\software\HBird-workspace\pico_spi\Debug/../src/gmt024_spi.c:414
                TFT_SEND_DATA(0x05);
    128c:	4515                	li	a0,5
    128e:	357d                	jal	113c <TFT_SEND_DATA>
C:\Users\admin\OneDrive - stu.cdu.edu.cn\2024FPGA\fpga_pds_project\cpu\picorv32+dds+osp+logic_alz_underclocking\software\HBird-workspace\pico_spi\Debug/../src/gmt024_spi.c:415
                TFT_SEND_DATA(0x00);
    1290:	4501                	li	a0,0
    1292:	356d                	jal	113c <TFT_SEND_DATA>
C:\Users\admin\OneDrive - stu.cdu.edu.cn\2024FPGA\fpga_pds_project\cpu\picorv32+dds+osp+logic_alz_underclocking\software\HBird-workspace\pico_spi\Debug/../src/gmt024_spi.c:416
                TFT_SEND_DATA(0x33);
    1294:	03300513          	li	a0,51
    1298:	3555                	jal	113c <TFT_SEND_DATA>
C:\Users\admin\OneDrive - stu.cdu.edu.cn\2024FPGA\fpga_pds_project\cpu\picorv32+dds+osp+logic_alz_underclocking\software\HBird-workspace\pico_spi\Debug/../src/gmt024_spi.c:417
                TFT_SEND_DATA(0x33);
    129a:	03300513          	li	a0,51
    129e:	3d79                	jal	113c <TFT_SEND_DATA>
C:\Users\admin\OneDrive - stu.cdu.edu.cn\2024FPGA\fpga_pds_project\cpu\picorv32+dds+osp+logic_alz_underclocking\software\HBird-workspace\pico_spi\Debug/../src/gmt024_spi.c:419

                TFT_SEND_CMD(0xb7);			//Gate Control
    12a0:	0b700513          	li	a0,183
    12a4:	35bd                	jal	1112 <TFT_SEND_CMD>
C:\Users\admin\OneDrive - stu.cdu.edu.cn\2024FPGA\fpga_pds_project\cpu\picorv32+dds+osp+logic_alz_underclocking\software\HBird-workspace\pico_spi\Debug/../src/gmt024_spi.c:420
                TFT_SEND_DATA(0x05);			//12.2v   -10.43v
    12a6:	4515                	li	a0,5
    12a8:	3d51                	jal	113c <TFT_SEND_DATA>
C:\Users\admin\OneDrive - stu.cdu.edu.cn\2024FPGA\fpga_pds_project\cpu\picorv32+dds+osp+logic_alz_underclocking\software\HBird-workspace\pico_spi\Debug/../src/gmt024_spi.c:422
                //--------------ST7789V Power setting---------------//
                TFT_SEND_CMD(0xBB);//VCOM
    12aa:	0bb00513          	li	a0,187
    12ae:	3595                	jal	1112 <TFT_SEND_CMD>
C:\Users\admin\OneDrive - stu.cdu.edu.cn\2024FPGA\fpga_pds_project\cpu\picorv32+dds+osp+logic_alz_underclocking\software\HBird-workspace\pico_spi\Debug/../src/gmt024_spi.c:423
                TFT_SEND_DATA(0x3F);
    12b0:	03f00513          	li	a0,63
    12b4:	3561                	jal	113c <TFT_SEND_DATA>
C:\Users\admin\OneDrive - stu.cdu.edu.cn\2024FPGA\fpga_pds_project\cpu\picorv32+dds+osp+logic_alz_underclocking\software\HBird-workspace\pico_spi\Debug/../src/gmt024_spi.c:425

                TFT_SEND_CMD(0xC0); //Power control
    12b6:	0c000513          	li	a0,192
    12ba:	3da1                	jal	1112 <TFT_SEND_CMD>
C:\Users\admin\OneDrive - stu.cdu.edu.cn\2024FPGA\fpga_pds_project\cpu\picorv32+dds+osp+logic_alz_underclocking\software\HBird-workspace\pico_spi\Debug/../src/gmt024_spi.c:426
                TFT_SEND_DATA(0x2c);
    12bc:	02c00513          	li	a0,44
    12c0:	3db5                	jal	113c <TFT_SEND_DATA>
C:\Users\admin\OneDrive - stu.cdu.edu.cn\2024FPGA\fpga_pds_project\cpu\picorv32+dds+osp+logic_alz_underclocking\software\HBird-workspace\pico_spi\Debug/../src/gmt024_spi.c:428

                TFT_SEND_CMD(0xC2);		//VDV and VRH Command Enable
    12c2:	0c200513          	li	a0,194
    12c6:	35b1                	jal	1112 <TFT_SEND_CMD>
C:\Users\admin\OneDrive - stu.cdu.edu.cn\2024FPGA\fpga_pds_project\cpu\picorv32+dds+osp+logic_alz_underclocking\software\HBird-workspace\pico_spi\Debug/../src/gmt024_spi.c:429
                TFT_SEND_DATA(0x01);
    12c8:	4505                	li	a0,1
    12ca:	3d8d                	jal	113c <TFT_SEND_DATA>
C:\Users\admin\OneDrive - stu.cdu.edu.cn\2024FPGA\fpga_pds_project\cpu\picorv32+dds+osp+logic_alz_underclocking\software\HBird-workspace\pico_spi\Debug/../src/gmt024_spi.c:431

                TFT_SEND_CMD(0xC3);			//VRH Set
    12cc:	0c300513          	li	a0,195
    12d0:	3589                	jal	1112 <TFT_SEND_CMD>
C:\Users\admin\OneDrive - stu.cdu.edu.cn\2024FPGA\fpga_pds_project\cpu\picorv32+dds+osp+logic_alz_underclocking\software\HBird-workspace\pico_spi\Debug/../src/gmt024_spi.c:432
                TFT_SEND_DATA(0x0F);		//4.3+( vcom+vcom offset+vdv)
    12d2:	453d                	li	a0,15
    12d4:	35a5                	jal	113c <TFT_SEND_DATA>
C:\Users\admin\OneDrive - stu.cdu.edu.cn\2024FPGA\fpga_pds_project\cpu\picorv32+dds+osp+logic_alz_underclocking\software\HBird-workspace\pico_spi\Debug/../src/gmt024_spi.c:434

                TFT_SEND_CMD(0xC4);			//VDV Set
    12d6:	0c400513          	li	a0,196
    12da:	3d25                	jal	1112 <TFT_SEND_CMD>
C:\Users\admin\OneDrive - stu.cdu.edu.cn\2024FPGA\fpga_pds_project\cpu\picorv32+dds+osp+logic_alz_underclocking\software\HBird-workspace\pico_spi\Debug/../src/gmt024_spi.c:435
                TFT_SEND_DATA(0x20);				//0v
    12dc:	02000513          	li	a0,32
    12e0:	3db1                	jal	113c <TFT_SEND_DATA>
C:\Users\admin\OneDrive - stu.cdu.edu.cn\2024FPGA\fpga_pds_project\cpu\picorv32+dds+osp+logic_alz_underclocking\software\HBird-workspace\pico_spi\Debug/../src/gmt024_spi.c:437

                TFT_SEND_CMD(0xC6);				//Frame Rate Control in Normal Mode
    12e2:	0c600513          	li	a0,198
    12e6:	3535                	jal	1112 <TFT_SEND_CMD>
C:\Users\admin\OneDrive - stu.cdu.edu.cn\2024FPGA\fpga_pds_project\cpu\picorv32+dds+osp+logic_alz_underclocking\software\HBird-workspace\pico_spi\Debug/../src/gmt024_spi.c:438
                TFT_SEND_DATA(0X01);			//111Hz
    12e8:	4505                	li	a0,1
    12ea:	3d89                	jal	113c <TFT_SEND_DATA>
C:\Users\admin\OneDrive - stu.cdu.edu.cn\2024FPGA\fpga_pds_project\cpu\picorv32+dds+osp+logic_alz_underclocking\software\HBird-workspace\pico_spi\Debug/../src/gmt024_spi.c:440

                TFT_SEND_CMD(0xd0);				//Power Control 1
    12ec:	0d000513          	li	a0,208
    12f0:	350d                	jal	1112 <TFT_SEND_CMD>
C:\Users\admin\OneDrive - stu.cdu.edu.cn\2024FPGA\fpga_pds_project\cpu\picorv32+dds+osp+logic_alz_underclocking\software\HBird-workspace\pico_spi\Debug/../src/gmt024_spi.c:441
                TFT_SEND_DATA(0xa4);
    12f2:	0a400513          	li	a0,164
    12f6:	3599                	jal	113c <TFT_SEND_DATA>
C:\Users\admin\OneDrive - stu.cdu.edu.cn\2024FPGA\fpga_pds_project\cpu\picorv32+dds+osp+logic_alz_underclocking\software\HBird-workspace\pico_spi\Debug/../src/gmt024_spi.c:442
                TFT_SEND_DATA(0xa1);
    12f8:	0a100513          	li	a0,161
    12fc:	3581                	jal	113c <TFT_SEND_DATA>
C:\Users\admin\OneDrive - stu.cdu.edu.cn\2024FPGA\fpga_pds_project\cpu\picorv32+dds+osp+logic_alz_underclocking\software\HBird-workspace\pico_spi\Debug/../src/gmt024_spi.c:444

                TFT_SEND_CMD(0xE8);				//Power Control 1
    12fe:	0e800513          	li	a0,232
    1302:	3d01                	jal	1112 <TFT_SEND_CMD>
C:\Users\admin\OneDrive - stu.cdu.edu.cn\2024FPGA\fpga_pds_project\cpu\picorv32+dds+osp+logic_alz_underclocking\software\HBird-workspace\pico_spi\Debug/../src/gmt024_spi.c:445
                TFT_SEND_DATA(0x03);
    1304:	450d                	li	a0,3
    1306:	3d1d                	jal	113c <TFT_SEND_DATA>
C:\Users\admin\OneDrive - stu.cdu.edu.cn\2024FPGA\fpga_pds_project\cpu\picorv32+dds+osp+logic_alz_underclocking\software\HBird-workspace\pico_spi\Debug/../src/gmt024_spi.c:447

                TFT_SEND_CMD(0xE9);				//Equalize time control
    1308:	0e900513          	li	a0,233
    130c:	3519                	jal	1112 <TFT_SEND_CMD>
C:\Users\admin\OneDrive - stu.cdu.edu.cn\2024FPGA\fpga_pds_project\cpu\picorv32+dds+osp+logic_alz_underclocking\software\HBird-workspace\pico_spi\Debug/../src/gmt024_spi.c:448
                TFT_SEND_DATA(0x09);
    130e:	4525                	li	a0,9
    1310:	3535                	jal	113c <TFT_SEND_DATA>
C:\Users\admin\OneDrive - stu.cdu.edu.cn\2024FPGA\fpga_pds_project\cpu\picorv32+dds+osp+logic_alz_underclocking\software\HBird-workspace\pico_spi\Debug/../src/gmt024_spi.c:449
                TFT_SEND_DATA(0x09);
    1312:	4525                	li	a0,9
    1314:	3525                	jal	113c <TFT_SEND_DATA>
C:\Users\admin\OneDrive - stu.cdu.edu.cn\2024FPGA\fpga_pds_project\cpu\picorv32+dds+osp+logic_alz_underclocking\software\HBird-workspace\pico_spi\Debug/../src/gmt024_spi.c:450
                TFT_SEND_DATA(0x08);
    1316:	4521                	li	a0,8
    1318:	3515                	jal	113c <TFT_SEND_DATA>
C:\Users\admin\OneDrive - stu.cdu.edu.cn\2024FPGA\fpga_pds_project\cpu\picorv32+dds+osp+logic_alz_underclocking\software\HBird-workspace\pico_spi\Debug/../src/gmt024_spi.c:452
                //---------------ST7789V gamma setting-------------//
                TFT_SEND_CMD(0xE0); //Set Gamma
    131a:	0e000513          	li	a0,224
    131e:	3bd5                	jal	1112 <TFT_SEND_CMD>
C:\Users\admin\OneDrive - stu.cdu.edu.cn\2024FPGA\fpga_pds_project\cpu\picorv32+dds+osp+logic_alz_underclocking\software\HBird-workspace\pico_spi\Debug/../src/gmt024_spi.c:453
                TFT_SEND_DATA(0xD0);
    1320:	0d000513          	li	a0,208
    1324:	3d21                	jal	113c <TFT_SEND_DATA>
C:\Users\admin\OneDrive - stu.cdu.edu.cn\2024FPGA\fpga_pds_project\cpu\picorv32+dds+osp+logic_alz_underclocking\software\HBird-workspace\pico_spi\Debug/../src/gmt024_spi.c:454
                TFT_SEND_DATA(0x05);
    1326:	4515                	li	a0,5
    1328:	3d11                	jal	113c <TFT_SEND_DATA>
C:\Users\admin\OneDrive - stu.cdu.edu.cn\2024FPGA\fpga_pds_project\cpu\picorv32+dds+osp+logic_alz_underclocking\software\HBird-workspace\pico_spi\Debug/../src/gmt024_spi.c:455
                TFT_SEND_DATA(0x09);
    132a:	4525                	li	a0,9
    132c:	3d01                	jal	113c <TFT_SEND_DATA>
C:\Users\admin\OneDrive - stu.cdu.edu.cn\2024FPGA\fpga_pds_project\cpu\picorv32+dds+osp+logic_alz_underclocking\software\HBird-workspace\pico_spi\Debug/../src/gmt024_spi.c:456
                TFT_SEND_DATA(0x09);
    132e:	4525                	li	a0,9
    1330:	3531                	jal	113c <TFT_SEND_DATA>
C:\Users\admin\OneDrive - stu.cdu.edu.cn\2024FPGA\fpga_pds_project\cpu\picorv32+dds+osp+logic_alz_underclocking\software\HBird-workspace\pico_spi\Debug/../src/gmt024_spi.c:457
                TFT_SEND_DATA(0x08);
    1332:	4521                	li	a0,8
    1334:	3521                	jal	113c <TFT_SEND_DATA>
C:\Users\admin\OneDrive - stu.cdu.edu.cn\2024FPGA\fpga_pds_project\cpu\picorv32+dds+osp+logic_alz_underclocking\software\HBird-workspace\pico_spi\Debug/../src/gmt024_spi.c:458
                TFT_SEND_DATA(0x14);
    1336:	4551                	li	a0,20
    1338:	3511                	jal	113c <TFT_SEND_DATA>
C:\Users\admin\OneDrive - stu.cdu.edu.cn\2024FPGA\fpga_pds_project\cpu\picorv32+dds+osp+logic_alz_underclocking\software\HBird-workspace\pico_spi\Debug/../src/gmt024_spi.c:459
                TFT_SEND_DATA(0x28);
    133a:	02800513          	li	a0,40
    133e:	3bfd                	jal	113c <TFT_SEND_DATA>
C:\Users\admin\OneDrive - stu.cdu.edu.cn\2024FPGA\fpga_pds_project\cpu\picorv32+dds+osp+logic_alz_underclocking\software\HBird-workspace\pico_spi\Debug/../src/gmt024_spi.c:460
                TFT_SEND_DATA(0x33);
    1340:	03300513          	li	a0,51
    1344:	3be5                	jal	113c <TFT_SEND_DATA>
C:\Users\admin\OneDrive - stu.cdu.edu.cn\2024FPGA\fpga_pds_project\cpu\picorv32+dds+osp+logic_alz_underclocking\software\HBird-workspace\pico_spi\Debug/../src/gmt024_spi.c:461
                TFT_SEND_DATA(0x3F);
    1346:	03f00513          	li	a0,63
    134a:	3bcd                	jal	113c <TFT_SEND_DATA>
C:\Users\admin\OneDrive - stu.cdu.edu.cn\2024FPGA\fpga_pds_project\cpu\picorv32+dds+osp+logic_alz_underclocking\software\HBird-workspace\pico_spi\Debug/../src/gmt024_spi.c:462
                TFT_SEND_DATA(0x07);
    134c:	451d                	li	a0,7
    134e:	33fd                	jal	113c <TFT_SEND_DATA>
C:\Users\admin\OneDrive - stu.cdu.edu.cn\2024FPGA\fpga_pds_project\cpu\picorv32+dds+osp+logic_alz_underclocking\software\HBird-workspace\pico_spi\Debug/../src/gmt024_spi.c:463
                TFT_SEND_DATA(0x13);
    1350:	454d                	li	a0,19
    1352:	33ed                	jal	113c <TFT_SEND_DATA>
C:\Users\admin\OneDrive - stu.cdu.edu.cn\2024FPGA\fpga_pds_project\cpu\picorv32+dds+osp+logic_alz_underclocking\software\HBird-workspace\pico_spi\Debug/../src/gmt024_spi.c:464
                TFT_SEND_DATA(0x14);
    1354:	4551                	li	a0,20
    1356:	33dd                	jal	113c <TFT_SEND_DATA>
C:\Users\admin\OneDrive - stu.cdu.edu.cn\2024FPGA\fpga_pds_project\cpu\picorv32+dds+osp+logic_alz_underclocking\software\HBird-workspace\pico_spi\Debug/../src/gmt024_spi.c:465
                TFT_SEND_DATA(0x28);
    1358:	02800513          	li	a0,40
    135c:	33c5                	jal	113c <TFT_SEND_DATA>
C:\Users\admin\OneDrive - stu.cdu.edu.cn\2024FPGA\fpga_pds_project\cpu\picorv32+dds+osp+logic_alz_underclocking\software\HBird-workspace\pico_spi\Debug/../src/gmt024_spi.c:466
                TFT_SEND_DATA(0x30);
    135e:	03000513          	li	a0,48
    1362:	3be9                	jal	113c <TFT_SEND_DATA>
C:\Users\admin\OneDrive - stu.cdu.edu.cn\2024FPGA\fpga_pds_project\cpu\picorv32+dds+osp+logic_alz_underclocking\software\HBird-workspace\pico_spi\Debug/../src/gmt024_spi.c:468

                TFT_SEND_CMD(0XE1); //Set Gamma
    1364:	0e100513          	li	a0,225
    1368:	336d                	jal	1112 <TFT_SEND_CMD>
C:\Users\admin\OneDrive - stu.cdu.edu.cn\2024FPGA\fpga_pds_project\cpu\picorv32+dds+osp+logic_alz_underclocking\software\HBird-workspace\pico_spi\Debug/../src/gmt024_spi.c:469
                TFT_SEND_DATA(0xD0);
    136a:	0d000513          	li	a0,208
    136e:	33f9                	jal	113c <TFT_SEND_DATA>
C:\Users\admin\OneDrive - stu.cdu.edu.cn\2024FPGA\fpga_pds_project\cpu\picorv32+dds+osp+logic_alz_underclocking\software\HBird-workspace\pico_spi\Debug/../src/gmt024_spi.c:470
                TFT_SEND_DATA(0x05);
    1370:	4515                	li	a0,5
    1372:	33e9                	jal	113c <TFT_SEND_DATA>
C:\Users\admin\OneDrive - stu.cdu.edu.cn\2024FPGA\fpga_pds_project\cpu\picorv32+dds+osp+logic_alz_underclocking\software\HBird-workspace\pico_spi\Debug/../src/gmt024_spi.c:471
                TFT_SEND_DATA(0x09);
    1374:	4525                	li	a0,9
    1376:	33d9                	jal	113c <TFT_SEND_DATA>
C:\Users\admin\OneDrive - stu.cdu.edu.cn\2024FPGA\fpga_pds_project\cpu\picorv32+dds+osp+logic_alz_underclocking\software\HBird-workspace\pico_spi\Debug/../src/gmt024_spi.c:472
                TFT_SEND_DATA(0x09);
    1378:	4525                	li	a0,9
    137a:	33c9                	jal	113c <TFT_SEND_DATA>
C:\Users\admin\OneDrive - stu.cdu.edu.cn\2024FPGA\fpga_pds_project\cpu\picorv32+dds+osp+logic_alz_underclocking\software\HBird-workspace\pico_spi\Debug/../src/gmt024_spi.c:473
                TFT_SEND_DATA(0x08);
    137c:	4521                	li	a0,8
    137e:	3b7d                	jal	113c <TFT_SEND_DATA>
C:\Users\admin\OneDrive - stu.cdu.edu.cn\2024FPGA\fpga_pds_project\cpu\picorv32+dds+osp+logic_alz_underclocking\software\HBird-workspace\pico_spi\Debug/../src/gmt024_spi.c:474
                TFT_SEND_DATA(0x03);
    1380:	450d                	li	a0,3
    1382:	3b6d                	jal	113c <TFT_SEND_DATA>
C:\Users\admin\OneDrive - stu.cdu.edu.cn\2024FPGA\fpga_pds_project\cpu\picorv32+dds+osp+logic_alz_underclocking\software\HBird-workspace\pico_spi\Debug/../src/gmt024_spi.c:475
                TFT_SEND_DATA(0x24);
    1384:	02400513          	li	a0,36
    1388:	3b55                	jal	113c <TFT_SEND_DATA>
C:\Users\admin\OneDrive - stu.cdu.edu.cn\2024FPGA\fpga_pds_project\cpu\picorv32+dds+osp+logic_alz_underclocking\software\HBird-workspace\pico_spi\Debug/../src/gmt024_spi.c:476
                TFT_SEND_DATA(0x32);
    138a:	03200513          	li	a0,50
    138e:	337d                	jal	113c <TFT_SEND_DATA>
C:\Users\admin\OneDrive - stu.cdu.edu.cn\2024FPGA\fpga_pds_project\cpu\picorv32+dds+osp+logic_alz_underclocking\software\HBird-workspace\pico_spi\Debug/../src/gmt024_spi.c:477
                TFT_SEND_DATA(0x32);
    1390:	03200513          	li	a0,50
    1394:	3365                	jal	113c <TFT_SEND_DATA>
C:\Users\admin\OneDrive - stu.cdu.edu.cn\2024FPGA\fpga_pds_project\cpu\picorv32+dds+osp+logic_alz_underclocking\software\HBird-workspace\pico_spi\Debug/../src/gmt024_spi.c:478
                TFT_SEND_DATA(0x3B);
    1396:	03b00513          	li	a0,59
    139a:	334d                	jal	113c <TFT_SEND_DATA>
C:\Users\admin\OneDrive - stu.cdu.edu.cn\2024FPGA\fpga_pds_project\cpu\picorv32+dds+osp+logic_alz_underclocking\software\HBird-workspace\pico_spi\Debug/../src/gmt024_spi.c:479
                TFT_SEND_DATA(0x14);
    139c:	4551                	li	a0,20
    139e:	3b79                	jal	113c <TFT_SEND_DATA>
C:\Users\admin\OneDrive - stu.cdu.edu.cn\2024FPGA\fpga_pds_project\cpu\picorv32+dds+osp+logic_alz_underclocking\software\HBird-workspace\pico_spi\Debug/../src/gmt024_spi.c:480
                TFT_SEND_DATA(0x13);
    13a0:	454d                	li	a0,19
    13a2:	3b69                	jal	113c <TFT_SEND_DATA>
C:\Users\admin\OneDrive - stu.cdu.edu.cn\2024FPGA\fpga_pds_project\cpu\picorv32+dds+osp+logic_alz_underclocking\software\HBird-workspace\pico_spi\Debug/../src/gmt024_spi.c:481
                TFT_SEND_DATA(0x28);
    13a4:	02800513          	li	a0,40
    13a8:	3b51                	jal	113c <TFT_SEND_DATA>
C:\Users\admin\OneDrive - stu.cdu.edu.cn\2024FPGA\fpga_pds_project\cpu\picorv32+dds+osp+logic_alz_underclocking\software\HBird-workspace\pico_spi\Debug/../src/gmt024_spi.c:482
                TFT_SEND_DATA(0x2F);
    13aa:	02f00513          	li	a0,47
    13ae:	3379                	jal	113c <TFT_SEND_DATA>
C:\Users\admin\OneDrive - stu.cdu.edu.cn\2024FPGA\fpga_pds_project\cpu\picorv32+dds+osp+logic_alz_underclocking\software\HBird-workspace\pico_spi\Debug/../src/gmt024_spi.c:484

                TFT_SEND_CMD(0x20); 		//反显
    13b0:	02000513          	li	a0,32
    13b4:	3bb9                	jal	1112 <TFT_SEND_CMD>
C:\Users\admin\OneDrive - stu.cdu.edu.cn\2024FPGA\fpga_pds_project\cpu\picorv32+dds+osp+logic_alz_underclocking\software\HBird-workspace\pico_spi\Debug/../src/gmt024_spi.c:488

                TFT_SEND_CMD(0x29);         //开启显示

  }
    13b6:	40b2                	lw	ra,12(sp)
C:\Users\admin\OneDrive - stu.cdu.edu.cn\2024FPGA\fpga_pds_project\cpu\picorv32+dds+osp+logic_alz_underclocking\software\HBird-workspace\pico_spi\Debug/../src/gmt024_spi.c:486
                TFT_SEND_CMD(0x29);         //开启显示
    13b8:	02900513          	li	a0,41
C:\Users\admin\OneDrive - stu.cdu.edu.cn\2024FPGA\fpga_pds_project\cpu\picorv32+dds+osp+logic_alz_underclocking\software\HBird-workspace\pico_spi\Debug/../src/gmt024_spi.c:488
  }
    13bc:	0141                	addi	sp,sp,16
C:\Users\admin\OneDrive - stu.cdu.edu.cn\2024FPGA\fpga_pds_project\cpu\picorv32+dds+osp+logic_alz_underclocking\software\HBird-workspace\pico_spi\Debug/../src/gmt024_spi.c:486
                TFT_SEND_CMD(0x29);         //开启显示
    13be:	bb91                	j	1112 <TFT_SEND_CMD>

000013c0 <display_char16_16>:
display_char16_16():
C:\Users\admin\OneDrive - stu.cdu.edu.cn\2024FPGA\fpga_pds_project\cpu\picorv32+dds+osp+logic_alz_underclocking\software\HBird-workspace\pico_spi\Debug/../src/gmt024_spi.c:491

void display_char16_16(unsigned int x,unsigned int y,unsigned long color,unsigned char word_serial_number)
{
    13c0:	1101                	addi	sp,sp,-32
    13c2:	ca26                	sw	s1,20(sp)
    13c4:	84aa                	mv	s1,a0
C:\Users\admin\OneDrive - stu.cdu.edu.cn\2024FPGA\fpga_pds_project\cpu\picorv32+dds+osp+logic_alz_underclocking\software\HBird-workspace\pico_spi\Debug/../src/gmt024_spi.c:495
   unsigned int column;
  unsigned char tm=0,temp=0,xxx=0;

   TFT_SEND_CMD(0x2a);    //Column address set
    13c6:	02a00513          	li	a0,42
C:\Users\admin\OneDrive - stu.cdu.edu.cn\2024FPGA\fpga_pds_project\cpu\picorv32+dds+osp+logic_alz_underclocking\software\HBird-workspace\pico_spi\Debug/../src/gmt024_spi.c:491
{
    13ca:	ce06                	sw	ra,28(sp)
    13cc:	cc22                	sw	s0,24(sp)
    13ce:	c84a                	sw	s2,16(sp)
    13d0:	842e                	mv	s0,a1
    13d2:	c64e                	sw	s3,12(sp)
    13d4:	c452                	sw	s4,8(sp)
    13d6:	89b2                	mv	s3,a2
    13d8:	c256                	sw	s5,4(sp)
    13da:	8ab6                	mv	s5,a3
C:\Users\admin\OneDrive - stu.cdu.edu.cn\2024FPGA\fpga_pds_project\cpu\picorv32+dds+osp+logic_alz_underclocking\software\HBird-workspace\pico_spi\Debug/../src/gmt024_spi.c:495
   TFT_SEND_CMD(0x2a);    //Column address set
    13dc:	3b1d                	jal	1112 <TFT_SEND_CMD>
C:\Users\admin\OneDrive - stu.cdu.edu.cn\2024FPGA\fpga_pds_project\cpu\picorv32+dds+osp+logic_alz_underclocking\software\HBird-workspace\pico_spi\Debug/../src/gmt024_spi.c:496
  TFT_SEND_DATA(x>>8);    //start column
    13de:	0084d513          	srli	a0,s1,0x8
    13e2:	0ff57513          	andi	a0,a0,255
    13e6:	3b99                	jal	113c <TFT_SEND_DATA>
C:\Users\admin\OneDrive - stu.cdu.edu.cn\2024FPGA\fpga_pds_project\cpu\picorv32+dds+osp+logic_alz_underclocking\software\HBird-workspace\pico_spi\Debug/../src/gmt024_spi.c:497
  TFT_SEND_DATA(x);
    13e8:	0ff4f513          	andi	a0,s1,255
    13ec:	3b81                	jal	113c <TFT_SEND_DATA>
C:\Users\admin\OneDrive - stu.cdu.edu.cn\2024FPGA\fpga_pds_project\cpu\picorv32+dds+osp+logic_alz_underclocking\software\HBird-workspace\pico_spi\Debug/../src/gmt024_spi.c:498
  x=x+15;
    13ee:	04bd                	addi	s1,s1,15
C:\Users\admin\OneDrive - stu.cdu.edu.cn\2024FPGA\fpga_pds_project\cpu\picorv32+dds+osp+logic_alz_underclocking\software\HBird-workspace\pico_spi\Debug/../src/gmt024_spi.c:499
  TFT_SEND_DATA(x>>8);    //end column
    13f0:	0084d513          	srli	a0,s1,0x8
    13f4:	0ff57513          	andi	a0,a0,255
    13f8:	3391                	jal	113c <TFT_SEND_DATA>
C:\Users\admin\OneDrive - stu.cdu.edu.cn\2024FPGA\fpga_pds_project\cpu\picorv32+dds+osp+logic_alz_underclocking\software\HBird-workspace\pico_spi\Debug/../src/gmt024_spi.c:500
  TFT_SEND_DATA(x);
    13fa:	0ff4f513          	andi	a0,s1,255
    13fe:	3b3d                	jal	113c <TFT_SEND_DATA>
C:\Users\admin\OneDrive - stu.cdu.edu.cn\2024FPGA\fpga_pds_project\cpu\picorv32+dds+osp+logic_alz_underclocking\software\HBird-workspace\pico_spi\Debug/../src/gmt024_spi.c:502

  TFT_SEND_CMD(0x2b);     //Row address set
    1400:	02b00513          	li	a0,43
    1404:	3339                	jal	1112 <TFT_SEND_CMD>
C:\Users\admin\OneDrive - stu.cdu.edu.cn\2024FPGA\fpga_pds_project\cpu\picorv32+dds+osp+logic_alz_underclocking\software\HBird-workspace\pico_spi\Debug/../src/gmt024_spi.c:503
  TFT_SEND_DATA(y>>8);    //start row
    1406:	00845513          	srli	a0,s0,0x8
    140a:	0ff57513          	andi	a0,a0,255
    140e:	333d                	jal	113c <TFT_SEND_DATA>
C:\Users\admin\OneDrive - stu.cdu.edu.cn\2024FPGA\fpga_pds_project\cpu\picorv32+dds+osp+logic_alz_underclocking\software\HBird-workspace\pico_spi\Debug/../src/gmt024_spi.c:504
  TFT_SEND_DATA(y);
    1410:	0ff47513          	andi	a0,s0,255
    1414:	3325                	jal	113c <TFT_SEND_DATA>
C:\Users\admin\OneDrive - stu.cdu.edu.cn\2024FPGA\fpga_pds_project\cpu\picorv32+dds+osp+logic_alz_underclocking\software\HBird-workspace\pico_spi\Debug/../src/gmt024_spi.c:505
  y=y+15;
    1416:	043d                	addi	s0,s0,15
C:\Users\admin\OneDrive - stu.cdu.edu.cn\2024FPGA\fpga_pds_project\cpu\picorv32+dds+osp+logic_alz_underclocking\software\HBird-workspace\pico_spi\Debug/../src/gmt024_spi.c:506
  TFT_SEND_DATA(y>>8);    //end row
    1418:	00845513          	srli	a0,s0,0x8
    141c:	0ff57513          	andi	a0,a0,255
    1420:	3b31                	jal	113c <TFT_SEND_DATA>
C:\Users\admin\OneDrive - stu.cdu.edu.cn\2024FPGA\fpga_pds_project\cpu\picorv32+dds+osp+logic_alz_underclocking\software\HBird-workspace\pico_spi\Debug/../src/gmt024_spi.c:507
  TFT_SEND_DATA(y);
    1422:	0ff47513          	andi	a0,s0,255
    1426:	3b19                	jal	113c <TFT_SEND_DATA>
C:\Users\admin\OneDrive - stu.cdu.edu.cn\2024FPGA\fpga_pds_project\cpu\picorv32+dds+osp+logic_alz_underclocking\software\HBird-workspace\pico_spi\Debug/../src/gmt024_spi.c:508
    TFT_SEND_CMD(0x2C);     //Memory write
    1428:	02c00513          	li	a0,44
    142c:	6911                	lui	s2,0x4
    142e:	a7490913          	addi	s2,s2,-1420 # 3a74 <chines_word>
    1432:	31c5                	jal	1112 <TFT_SEND_CMD>
    1434:	005a9793          	slli	a5,s5,0x5
C:\Users\admin\OneDrive - stu.cdu.edu.cn\2024FPGA\fpga_pds_project\cpu\picorv32+dds+osp+logic_alz_underclocking\software\HBird-workspace\pico_spi\Debug/../src/gmt024_spi.c:518
        temp=chines_word[  word_serial_number ][xxx];
        for(tm=0;tm<8;tm++)
        {
        if(temp&0x01)
          {
          TFT_SEND_DATA(color>>8);
    1438:	0089da13          	srli	s4,s3,0x8
    143c:	02090a93          	addi	s5,s2,32
    1440:	0ffa7a13          	andi	s4,s4,255
    1444:	993e                	add	s2,s2,a5
    1446:	9abe                	add	s5,s5,a5
C:\Users\admin\OneDrive - stu.cdu.edu.cn\2024FPGA\fpga_pds_project\cpu\picorv32+dds+osp+logic_alz_underclocking\software\HBird-workspace\pico_spi\Debug/../src/gmt024_spi.c:519
          TFT_SEND_DATA(color);
    1448:	0ff9f993          	andi	s3,s3,255
C:\Users\admin\OneDrive - stu.cdu.edu.cn\2024FPGA\fpga_pds_project\cpu\picorv32+dds+osp+logic_alz_underclocking\software\HBird-workspace\pico_spi\Debug/../src/gmt024_spi.c:513
        temp=chines_word[  word_serial_number ][xxx];
    144c:	00094483          	lbu	s1,0(s2)
    1450:	4421                	li	s0,8
    1452:	a811                	j	1466 <display_char16_16+0xa6>
C:\Users\admin\OneDrive - stu.cdu.edu.cn\2024FPGA\fpga_pds_project\cpu\picorv32+dds+osp+logic_alz_underclocking\software\HBird-workspace\pico_spi\Debug/../src/gmt024_spi.c:518
          TFT_SEND_DATA(color>>8);
    1454:	8552                	mv	a0,s4
    1456:	31dd                	jal	113c <TFT_SEND_DATA>
    1458:	147d                	addi	s0,s0,-1
C:\Users\admin\OneDrive - stu.cdu.edu.cn\2024FPGA\fpga_pds_project\cpu\picorv32+dds+osp+logic_alz_underclocking\software\HBird-workspace\pico_spi\Debug/../src/gmt024_spi.c:519
          TFT_SEND_DATA(color);
    145a:	854e                	mv	a0,s3
    145c:	0ff47413          	andi	s0,s0,255
    1460:	39f1                	jal	113c <TFT_SEND_DATA>
C:\Users\admin\OneDrive - stu.cdu.edu.cn\2024FPGA\fpga_pds_project\cpu\picorv32+dds+osp+logic_alz_underclocking\software\HBird-workspace\pico_spi\Debug/../src/gmt024_spi.c:526
        else
          {
          TFT_SEND_DATA(0XFF);
          TFT_SEND_DATA(0XFF);
          }
          temp>>=1;
    1462:	8085                	srli	s1,s1,0x1
C:\Users\admin\OneDrive - stu.cdu.edu.cn\2024FPGA\fpga_pds_project\cpu\picorv32+dds+osp+logic_alz_underclocking\software\HBird-workspace\pico_spi\Debug/../src/gmt024_spi.c:514
        for(tm=0;tm<8;tm++)
    1464:	cc19                	beqz	s0,1482 <display_char16_16+0xc2>
C:\Users\admin\OneDrive - stu.cdu.edu.cn\2024FPGA\fpga_pds_project\cpu\picorv32+dds+osp+logic_alz_underclocking\software\HBird-workspace\pico_spi\Debug/../src/gmt024_spi.c:516
        if(temp&0x01)
    1466:	0014f793          	andi	a5,s1,1
C:\Users\admin\OneDrive - stu.cdu.edu.cn\2024FPGA\fpga_pds_project\cpu\picorv32+dds+osp+logic_alz_underclocking\software\HBird-workspace\pico_spi\Debug/../src/gmt024_spi.c:523
          TFT_SEND_DATA(0XFF);
    146a:	0ff00513          	li	a0,255
C:\Users\admin\OneDrive - stu.cdu.edu.cn\2024FPGA\fpga_pds_project\cpu\picorv32+dds+osp+logic_alz_underclocking\software\HBird-workspace\pico_spi\Debug/../src/gmt024_spi.c:516
        if(temp&0x01)
    146e:	f3fd                	bnez	a5,1454 <display_char16_16+0x94>
C:\Users\admin\OneDrive - stu.cdu.edu.cn\2024FPGA\fpga_pds_project\cpu\picorv32+dds+osp+logic_alz_underclocking\software\HBird-workspace\pico_spi\Debug/../src/gmt024_spi.c:523
          TFT_SEND_DATA(0XFF);
    1470:	31f1                	jal	113c <TFT_SEND_DATA>
    1472:	147d                	addi	s0,s0,-1
C:\Users\admin\OneDrive - stu.cdu.edu.cn\2024FPGA\fpga_pds_project\cpu\picorv32+dds+osp+logic_alz_underclocking\software\HBird-workspace\pico_spi\Debug/../src/gmt024_spi.c:524
          TFT_SEND_DATA(0XFF);
    1474:	0ff00513          	li	a0,255
    1478:	0ff47413          	andi	s0,s0,255
    147c:	31c1                	jal	113c <TFT_SEND_DATA>
C:\Users\admin\OneDrive - stu.cdu.edu.cn\2024FPGA\fpga_pds_project\cpu\picorv32+dds+osp+logic_alz_underclocking\software\HBird-workspace\pico_spi\Debug/../src/gmt024_spi.c:526
          temp>>=1;
    147e:	8085                	srli	s1,s1,0x1
C:\Users\admin\OneDrive - stu.cdu.edu.cn\2024FPGA\fpga_pds_project\cpu\picorv32+dds+osp+logic_alz_underclocking\software\HBird-workspace\pico_spi\Debug/../src/gmt024_spi.c:514
        for(tm=0;tm<8;tm++)
    1480:	f07d                	bnez	s0,1466 <display_char16_16+0xa6>
    1482:	0905                	addi	s2,s2,1
C:\Users\admin\OneDrive - stu.cdu.edu.cn\2024FPGA\fpga_pds_project\cpu\picorv32+dds+osp+logic_alz_underclocking\software\HBird-workspace\pico_spi\Debug/../src/gmt024_spi.c:511 (discriminator 2)
  for(column=0;column<32;column++)  //column loop
    1484:	fd2a94e3          	bne	s5,s2,144c <display_char16_16+0x8c>
C:\Users\admin\OneDrive - stu.cdu.edu.cn\2024FPGA\fpga_pds_project\cpu\picorv32+dds+osp+logic_alz_underclocking\software\HBird-workspace\pico_spi\Debug/../src/gmt024_spi.c:531
        }
        xxx++;

      }
}
    1488:	40f2                	lw	ra,28(sp)
    148a:	4462                	lw	s0,24(sp)
    148c:	44d2                	lw	s1,20(sp)
    148e:	4942                	lw	s2,16(sp)
    1490:	49b2                	lw	s3,12(sp)
    1492:	4a22                	lw	s4,8(sp)
    1494:	4a92                	lw	s5,4(sp)
    1496:	6105                	addi	sp,sp,32
    1498:	8082                	ret

0000149a <IO_init>:
IO_init():
C:\Users\admin\OneDrive - stu.cdu.edu.cn\2024FPGA\fpga_pds_project\cpu\picorv32+dds+osp+logic_alz_underclocking\software\HBird-workspace\pico_spi\Debug/../src/gmt024_spi.c:536


void IO_init(void)
{
  gpio_out_address |= 0x3F;                         //PC  0011_1111
    149a:	6721                	lui	a4,0x8
    149c:	531c                	lw	a5,32(a4)
    149e:	03f7e793          	ori	a5,a5,63
    14a2:	d31c                	sw	a5,32(a4)
C:\Users\admin\OneDrive - stu.cdu.edu.cn\2024FPGA\fpga_pds_project\cpu\picorv32+dds+osp+logic_alz_underclocking\software\HBird-workspace\pico_spi\Debug/../src/gmt024_spi.c:539
  

}
    14a4:	8082                	ret

000014a6 <TFT_show>:
TFT_show():
C:\Users\admin\OneDrive - stu.cdu.edu.cn\2024FPGA\fpga_pds_project\cpu\picorv32+dds+osp+logic_alz_underclocking\software\HBird-workspace\pico_spi\Debug/../src/gmt024_spi.c:543

//0-240   0x00-0xf0    而且上是0下是0xf0
void TFT_show(unsigned int color, unsigned int colorn)
  {
    14a6:	7179                	addi	sp,sp,-48
    14a8:	ca56                	sw	s5,20(sp)
    14aa:	8aaa                	mv	s5,a0
C:\Users\admin\OneDrive - stu.cdu.edu.cn\2024FPGA\fpga_pds_project\cpu\picorv32+dds+osp+logic_alz_underclocking\software\HBird-workspace\pico_spi\Debug/../src/gmt024_spi.c:546
	unsigned char temp_data;
    unsigned int ROW,column;
  TFT_SEND_CMD(0x2a);     //Column address set
    14ac:	02a00513          	li	a0,42
C:\Users\admin\OneDrive - stu.cdu.edu.cn\2024FPGA\fpga_pds_project\cpu\picorv32+dds+osp+logic_alz_underclocking\software\HBird-workspace\pico_spi\Debug/../src/gmt024_spi.c:543
  {
    14b0:	d606                	sw	ra,44(sp)
    14b2:	d04a                	sw	s2,32(sp)
    14b4:	ce4e                	sw	s3,28(sp)
    14b6:	cc52                	sw	s4,24(sp)
    14b8:	c85a                	sw	s6,16(sp)
    14ba:	8a2e                	mv	s4,a1
    14bc:	c65e                	sw	s7,12(sp)
    14be:	d422                	sw	s0,40(sp)
    14c0:	d226                	sw	s1,36(sp)
C:\Users\admin\OneDrive - stu.cdu.edu.cn\2024FPGA\fpga_pds_project\cpu\picorv32+dds+osp+logic_alz_underclocking\software\HBird-workspace\pico_spi\Debug/../src/gmt024_spi.c:546
  TFT_SEND_CMD(0x2a);     //Column address set
    14c2:	3981                	jal	1112 <TFT_SEND_CMD>
C:\Users\admin\OneDrive - stu.cdu.edu.cn\2024FPGA\fpga_pds_project\cpu\picorv32+dds+osp+logic_alz_underclocking\software\HBird-workspace\pico_spi\Debug/../src/gmt024_spi.c:547
  TFT_SEND_DATA(0x00);    //start column
    14c4:	4501                	li	a0,0
    14c6:	399d                	jal	113c <TFT_SEND_DATA>
C:\Users\admin\OneDrive - stu.cdu.edu.cn\2024FPGA\fpga_pds_project\cpu\picorv32+dds+osp+logic_alz_underclocking\software\HBird-workspace\pico_spi\Debug/../src/gmt024_spi.c:548
  TFT_SEND_DATA(0x00);
    14c8:	4501                	li	a0,0
    14ca:	398d                	jal	113c <TFT_SEND_DATA>
C:\Users\admin\OneDrive - stu.cdu.edu.cn\2024FPGA\fpga_pds_project\cpu\picorv32+dds+osp+logic_alz_underclocking\software\HBird-workspace\pico_spi\Debug/../src/gmt024_spi.c:549
  TFT_SEND_DATA(0x00);    //end column
    14cc:	4501                	li	a0,0
    14ce:	31bd                	jal	113c <TFT_SEND_DATA>
C:\Users\admin\OneDrive - stu.cdu.edu.cn\2024FPGA\fpga_pds_project\cpu\picorv32+dds+osp+logic_alz_underclocking\software\HBird-workspace\pico_spi\Debug/../src/gmt024_spi.c:550
  TFT_SEND_DATA(0xF0);
    14d0:	0f000513          	li	a0,240
    14d4:	31a5                	jal	113c <TFT_SEND_DATA>
C:\Users\admin\OneDrive - stu.cdu.edu.cn\2024FPGA\fpga_pds_project\cpu\picorv32+dds+osp+logic_alz_underclocking\software\HBird-workspace\pico_spi\Debug/../src/gmt024_spi.c:552

  TFT_SEND_CMD(0x2b);     //Row address set
    14d6:	02b00513          	li	a0,43
    14da:	3925                	jal	1112 <TFT_SEND_CMD>
C:\Users\admin\OneDrive - stu.cdu.edu.cn\2024FPGA\fpga_pds_project\cpu\picorv32+dds+osp+logic_alz_underclocking\software\HBird-workspace\pico_spi\Debug/../src/gmt024_spi.c:553
  TFT_SEND_DATA(0x00);    //start row
    14dc:	4501                	li	a0,0
    14de:	39b9                	jal	113c <TFT_SEND_DATA>
C:\Users\admin\OneDrive - stu.cdu.edu.cn\2024FPGA\fpga_pds_project\cpu\picorv32+dds+osp+logic_alz_underclocking\software\HBird-workspace\pico_spi\Debug/../src/gmt024_spi.c:554
  TFT_SEND_DATA(0x00);
    14e0:	4501                	li	a0,0
    14e2:	39a9                	jal	113c <TFT_SEND_DATA>
C:\Users\admin\OneDrive - stu.cdu.edu.cn\2024FPGA\fpga_pds_project\cpu\picorv32+dds+osp+logic_alz_underclocking\software\HBird-workspace\pico_spi\Debug/../src/gmt024_spi.c:555
  TFT_SEND_DATA(0x01);    //end row
    14e4:	4505                	li	a0,1
    14e6:	3999                	jal	113c <TFT_SEND_DATA>
C:\Users\admin\OneDrive - stu.cdu.edu.cn\2024FPGA\fpga_pds_project\cpu\picorv32+dds+osp+logic_alz_underclocking\software\HBird-workspace\pico_spi\Debug/../src/gmt024_spi.c:556
  TFT_SEND_DATA(0x40);
    14e8:	04000513          	li	a0,64
    14ec:	3981                	jal	113c <TFT_SEND_DATA>
C:\Users\admin\OneDrive - stu.cdu.edu.cn\2024FPGA\fpga_pds_project\cpu\picorv32+dds+osp+logic_alz_underclocking\software\HBird-workspace\pico_spi\Debug/../src/gmt024_spi.c:569
              {
      			TFT_SEND_DATA(color>>8);
      			TFT_SEND_DATA(color);
              }else
              {
        	    TFT_SEND_DATA(colorn>>8);
    14ee:	008a5913          	srli	s2,s4,0x8
C:\Users\admin\OneDrive - stu.cdu.edu.cn\2024FPGA\fpga_pds_project\cpu\picorv32+dds+osp+logic_alz_underclocking\software\HBird-workspace\pico_spi\Debug/../src/gmt024_spi.c:565
      			TFT_SEND_DATA(color>>8);
    14f2:	008adb13          	srli	s6,s5,0x8
C:\Users\admin\OneDrive - stu.cdu.edu.cn\2024FPGA\fpga_pds_project\cpu\picorv32+dds+osp+logic_alz_underclocking\software\HBird-workspace\pico_spi\Debug/../src/gmt024_spi.c:557
  TFT_SEND_CMD(0x2C);     //Memory write
    14f6:	02c00513          	li	a0,44
    14fa:	3921                	jal	1112 <TFT_SEND_CMD>
C:\Users\admin\OneDrive - stu.cdu.edu.cn\2024FPGA\fpga_pds_project\cpu\picorv32+dds+osp+logic_alz_underclocking\software\HBird-workspace\pico_spi\Debug/../src/gmt024_spi.c:569
        	    TFT_SEND_DATA(colorn>>8);
    14fc:	0ff97913          	andi	s2,s2,255
C:\Users\admin\OneDrive - stu.cdu.edu.cn\2024FPGA\fpga_pds_project\cpu\picorv32+dds+osp+logic_alz_underclocking\software\HBird-workspace\pico_spi\Debug/../src/gmt024_spi.c:565
      			TFT_SEND_DATA(color>>8);
    1500:	0ffb7b13          	andi	s6,s6,255
    1504:	14000b93          	li	s7,320
C:\Users\admin\OneDrive - stu.cdu.edu.cn\2024FPGA\fpga_pds_project\cpu\picorv32+dds+osp+logic_alz_underclocking\software\HBird-workspace\pico_spi\Debug/../src/gmt024_spi.c:570
        	    TFT_SEND_DATA(colorn);
    1508:	0ffa7a13          	andi	s4,s4,255
C:\Users\admin\OneDrive - stu.cdu.edu.cn\2024FPGA\fpga_pds_project\cpu\picorv32+dds+osp+logic_alz_underclocking\software\HBird-workspace\pico_spi\Debug/../src/gmt024_spi.c:566
      			TFT_SEND_DATA(color);
    150c:	0ffafa93          	andi	s5,s5,255
C:\Users\admin\OneDrive - stu.cdu.edu.cn\2024FPGA\fpga_pds_project\cpu\picorv32+dds+osp+logic_alz_underclocking\software\HBird-workspace\pico_spi\Debug/../src/gmt024_spi.c:561
          for(column=0;column<TFT_COLUMN_NUMBER;column++)  //column loop
    1510:	0f000993          	li	s3,240
C:\Users\admin\OneDrive - stu.cdu.edu.cn\2024FPGA\fpga_pds_project\cpu\picorv32+dds+osp+logic_alz_underclocking\software\HBird-workspace\pico_spi\Debug/../src/gmt024_spi.c:560
    	temp_data = OSP_READ();
    1514:	0f2010ef          	jal	ra,2606 <OSP_READ>
    1518:	84aa                	mv	s1,a0
C:\Users\admin\OneDrive - stu.cdu.edu.cn\2024FPGA\fpga_pds_project\cpu\picorv32+dds+osp+logic_alz_underclocking\software\HBird-workspace\pico_spi\Debug/../src/gmt024_spi.c:561
          for(column=0;column<TFT_COLUMN_NUMBER;column++)  //column loop
    151a:	4401                	li	s0,0
    151c:	a039                	j	152a <TFT_show+0x84>
C:\Users\admin\OneDrive - stu.cdu.edu.cn\2024FPGA\fpga_pds_project\cpu\picorv32+dds+osp+logic_alz_underclocking\software\HBird-workspace\pico_spi\Debug/../src/gmt024_spi.c:569
        	    TFT_SEND_DATA(colorn>>8);
    151e:	3939                	jal	113c <TFT_SEND_DATA>
C:\Users\admin\OneDrive - stu.cdu.edu.cn\2024FPGA\fpga_pds_project\cpu\picorv32+dds+osp+logic_alz_underclocking\software\HBird-workspace\pico_spi\Debug/../src/gmt024_spi.c:570
        	    TFT_SEND_DATA(colorn);
    1520:	8552                	mv	a0,s4
C:\Users\admin\OneDrive - stu.cdu.edu.cn\2024FPGA\fpga_pds_project\cpu\picorv32+dds+osp+logic_alz_underclocking\software\HBird-workspace\pico_spi\Debug/../src/gmt024_spi.c:561
          for(column=0;column<TFT_COLUMN_NUMBER;column++)  //column loop
    1522:	0405                	addi	s0,s0,1
C:\Users\admin\OneDrive - stu.cdu.edu.cn\2024FPGA\fpga_pds_project\cpu\picorv32+dds+osp+logic_alz_underclocking\software\HBird-workspace\pico_spi\Debug/../src/gmt024_spi.c:570
        	    TFT_SEND_DATA(colorn);
    1524:	3921                	jal	113c <TFT_SEND_DATA>
C:\Users\admin\OneDrive - stu.cdu.edu.cn\2024FPGA\fpga_pds_project\cpu\picorv32+dds+osp+logic_alz_underclocking\software\HBird-workspace\pico_spi\Debug/../src/gmt024_spi.c:561
          for(column=0;column<TFT_COLUMN_NUMBER;column++)  //column loop
    1526:	01340c63          	beq	s0,s3,153e <TFT_show+0x98>
C:\Users\admin\OneDrive - stu.cdu.edu.cn\2024FPGA\fpga_pds_project\cpu\picorv32+dds+osp+logic_alz_underclocking\software\HBird-workspace\pico_spi\Debug/../src/gmt024_spi.c:569
        	    TFT_SEND_DATA(colorn>>8);
    152a:	854a                	mv	a0,s2
C:\Users\admin\OneDrive - stu.cdu.edu.cn\2024FPGA\fpga_pds_project\cpu\picorv32+dds+osp+logic_alz_underclocking\software\HBird-workspace\pico_spi\Debug/../src/gmt024_spi.c:563
              if(column == temp_data)
    152c:	fe8499e3          	bne	s1,s0,151e <TFT_show+0x78>
C:\Users\admin\OneDrive - stu.cdu.edu.cn\2024FPGA\fpga_pds_project\cpu\picorv32+dds+osp+logic_alz_underclocking\software\HBird-workspace\pico_spi\Debug/../src/gmt024_spi.c:565
      			TFT_SEND_DATA(color>>8);
    1530:	855a                	mv	a0,s6
    1532:	3129                	jal	113c <TFT_SEND_DATA>
C:\Users\admin\OneDrive - stu.cdu.edu.cn\2024FPGA\fpga_pds_project\cpu\picorv32+dds+osp+logic_alz_underclocking\software\HBird-workspace\pico_spi\Debug/../src/gmt024_spi.c:566
      			TFT_SEND_DATA(color);
    1534:	8556                	mv	a0,s5
C:\Users\admin\OneDrive - stu.cdu.edu.cn\2024FPGA\fpga_pds_project\cpu\picorv32+dds+osp+logic_alz_underclocking\software\HBird-workspace\pico_spi\Debug/../src/gmt024_spi.c:561
          for(column=0;column<TFT_COLUMN_NUMBER;column++)  //column loop
    1536:	0405                	addi	s0,s0,1
C:\Users\admin\OneDrive - stu.cdu.edu.cn\2024FPGA\fpga_pds_project\cpu\picorv32+dds+osp+logic_alz_underclocking\software\HBird-workspace\pico_spi\Debug/../src/gmt024_spi.c:566
      			TFT_SEND_DATA(color);
    1538:	3111                	jal	113c <TFT_SEND_DATA>
C:\Users\admin\OneDrive - stu.cdu.edu.cn\2024FPGA\fpga_pds_project\cpu\picorv32+dds+osp+logic_alz_underclocking\software\HBird-workspace\pico_spi\Debug/../src/gmt024_spi.c:561
          for(column=0;column<TFT_COLUMN_NUMBER;column++)  //column loop
    153a:	ff3418e3          	bne	s0,s3,152a <TFT_show+0x84>
    153e:	1bfd                	addi	s7,s7,-1
C:\Users\admin\OneDrive - stu.cdu.edu.cn\2024FPGA\fpga_pds_project\cpu\picorv32+dds+osp+logic_alz_underclocking\software\HBird-workspace\pico_spi\Debug/../src/gmt024_spi.c:558 (discriminator 2)
    for(ROW=0; ROW<TFT_LINE_NUMBER; ROW++)             //ROW loop
    1540:	fc0b9ae3          	bnez	s7,1514 <TFT_show+0x6e>
C:\Users\admin\OneDrive - stu.cdu.edu.cn\2024FPGA\fpga_pds_project\cpu\picorv32+dds+osp+logic_alz_underclocking\software\HBird-workspace\pico_spi\Debug/../src/gmt024_spi.c:574
              }
            }
      }
  }
    1544:	50b2                	lw	ra,44(sp)
    1546:	5422                	lw	s0,40(sp)
    1548:	5492                	lw	s1,36(sp)
    154a:	5902                	lw	s2,32(sp)
    154c:	49f2                	lw	s3,28(sp)
    154e:	4a62                	lw	s4,24(sp)
    1550:	4ad2                	lw	s5,20(sp)
    1552:	4b42                	lw	s6,16(sp)
    1554:	4bb2                	lw	s7,12(sp)
    1556:	6145                	addi	sp,sp,48
    1558:	8082                	ret

0000155a <main>:
main():
C:\Users\admin\OneDrive - stu.cdu.edu.cn\2024FPGA\fpga_pds_project\cpu\picorv32+dds+osp+logic_alz_underclocking\software\HBird-workspace\pico_spi\Debug/../src/main.c:28

///////////锟斤拷锟酵革拷锟斤拷位锟斤拷锟斤拷锟斤拷示锟斤拷幕模式选锟斤拷
//GPIO_OUT7--MODE0 ,  GPIO_OUT8--MODE1
//
int main(void)
{
    155a:	7179                	addi	sp,sp,-48
    155c:	d606                	sw	ra,44(sp)
    155e:	d422                	sw	s0,40(sp)
    1560:	d226                	sw	s1,36(sp)
    1562:	d04a                	sw	s2,32(sp)
    1564:	ce4e                	sw	s3,28(sp)
    1566:	cc52                	sw	s4,24(sp)
C:\Users\admin\OneDrive - stu.cdu.edu.cn\2024FPGA\fpga_pds_project\cpu\picorv32+dds+osp+logic_alz_underclocking\software\HBird-workspace\pico_spi\Debug/../src/main.c:31
	uint8_t clear_flag = 99;
	IO_init();
	SPI_SCK_0;
    1568:	69a1                	lui	s3,0x8
C:\Users\admin\OneDrive - stu.cdu.edu.cn\2024FPGA\fpga_pds_project\cpu\picorv32+dds+osp+logic_alz_underclocking\software\HBird-workspace\pico_spi\Debug/../src/main.c:28
{
    156a:	ca56                	sw	s5,20(sp)
    156c:	c85a                	sw	s6,16(sp)
    156e:	c65e                	sw	s7,12(sp)
    1570:	c462                	sw	s8,8(sp)
C:\Users\admin\OneDrive - stu.cdu.edu.cn\2024FPGA\fpga_pds_project\cpu\picorv32+dds+osp+logic_alz_underclocking\software\HBird-workspace\pico_spi\Debug/../src/main.c:30
	IO_init();
    1572:	3725                	jal	149a <IO_init>
C:\Users\admin\OneDrive - stu.cdu.edu.cn\2024FPGA\fpga_pds_project\cpu\picorv32+dds+osp+logic_alz_underclocking\software\HBird-workspace\pico_spi\Debug/../src/main.c:31
	SPI_SCK_0;
    1574:	0209a783          	lw	a5,32(s3) # 8020 <_etext+0x3844>
C:\Users\admin\OneDrive - stu.cdu.edu.cn\2024FPGA\fpga_pds_project\cpu\picorv32+dds+osp+logic_alz_underclocking\software\HBird-workspace\pico_spi\Debug/../src/main.c:34
	TFT_init();
	BL_1;
	TFT_full(WHITE);
    1578:	6441                	lui	s0,0x10
    157a:	6c11                	lui	s8,0x4
C:\Users\admin\OneDrive - stu.cdu.edu.cn\2024FPGA\fpga_pds_project\cpu\picorv32+dds+osp+logic_alz_underclocking\software\HBird-workspace\pico_spi\Debug/../src/main.c:31
	SPI_SCK_0;
    157c:	0fe7f793          	andi	a5,a5,254
    1580:	02f9a023          	sw	a5,32(s3)
C:\Users\admin\OneDrive - stu.cdu.edu.cn\2024FPGA\fpga_pds_project\cpu\picorv32+dds+osp+logic_alz_underclocking\software\HBird-workspace\pico_spi\Debug/../src/main.c:32
	TFT_init();
    1584:	397d                	jal	1242 <TFT_init>
C:\Users\admin\OneDrive - stu.cdu.edu.cn\2024FPGA\fpga_pds_project\cpu\picorv32+dds+osp+logic_alz_underclocking\software\HBird-workspace\pico_spi\Debug/../src/main.c:33
	BL_1;
    1586:	0209a783          	lw	a5,32(s3)
C:\Users\admin\OneDrive - stu.cdu.edu.cn\2024FPGA\fpga_pds_project\cpu\picorv32+dds+osp+logic_alz_underclocking\software\HBird-workspace\pico_spi\Debug/../src/main.c:34
	TFT_full(WHITE);
    158a:	fff40513          	addi	a0,s0,-1 # ffff <_etext+0xb823>
    158e:	6b91                	lui	s7,0x4
C:\Users\admin\OneDrive - stu.cdu.edu.cn\2024FPGA\fpga_pds_project\cpu\picorv32+dds+osp+logic_alz_underclocking\software\HBird-workspace\pico_spi\Debug/../src/main.c:33
	BL_1;
    1590:	0207e793          	ori	a5,a5,32
    1594:	02f9a023          	sw	a5,32(s3)
C:\Users\admin\OneDrive - stu.cdu.edu.cn\2024FPGA\fpga_pds_project\cpu\picorv32+dds+osp+logic_alz_underclocking\software\HBird-workspace\pico_spi\Debug/../src/main.c:34
	TFT_full(WHITE);
    1598:	390d                	jal	11ca <TFT_full>
C:\Users\admin\OneDrive - stu.cdu.edu.cn\2024FPGA\fpga_pds_project\cpu\picorv32+dds+osp+logic_alz_underclocking\software\HBird-workspace\pico_spi\Debug/../src/main.c:36

	FIFO_CLK_0;
    159a:	0209a783          	lw	a5,32(s3)
C:\Users\admin\OneDrive - stu.cdu.edu.cn\2024FPGA\fpga_pds_project\cpu\picorv32+dds+osp+logic_alz_underclocking\software\HBird-workspace\pico_spi\Debug/../src/main.c:294
									break;
							}
						break;
					default:
						if(clear_flag != 5){
							TFT_full(WHITE);
    159e:	fff40a13          	addi	s4,s0,-1
C:\Users\admin\OneDrive - stu.cdu.edu.cn\2024FPGA\fpga_pds_project\cpu\picorv32+dds+osp+logic_alz_underclocking\software\HBird-workspace\pico_spi\Debug/../src/main.c:40
		switch(INSTRUMENT_MODE)
    15a2:	64a1                	lui	s1,0x8
C:\Users\admin\OneDrive - stu.cdu.edu.cn\2024FPGA\fpga_pds_project\cpu\picorv32+dds+osp+logic_alz_underclocking\software\HBird-workspace\pico_spi\Debug/../src/main.c:36
	FIFO_CLK_0;
    15a4:	0bf7f793          	andi	a5,a5,191
    15a8:	02f9a023          	sw	a5,32(s3)
C:\Users\admin\OneDrive - stu.cdu.edu.cn\2024FPGA\fpga_pds_project\cpu\picorv32+dds+osp+logic_alz_underclocking\software\HBird-workspace\pico_spi\Debug/../src/main.c:37
	FIFO_CLK_1;
    15ac:	0209a783          	lw	a5,32(s3)
C:\Users\admin\OneDrive - stu.cdu.edu.cn\2024FPGA\fpga_pds_project\cpu\picorv32+dds+osp+logic_alz_underclocking\software\HBird-workspace\pico_spi\Debug/../src/main.c:40
		switch(INSTRUMENT_MODE)
    15b0:	4909                	li	s2,2
C:\Users\admin\OneDrive - stu.cdu.edu.cn\2024FPGA\fpga_pds_project\cpu\picorv32+dds+osp+logic_alz_underclocking\software\HBird-workspace\pico_spi\Debug/../src/main.c:29
	uint8_t clear_flag = 99;
    15b2:	06300693          	li	a3,99
C:\Users\admin\OneDrive - stu.cdu.edu.cn\2024FPGA\fpga_pds_project\cpu\picorv32+dds+osp+logic_alz_underclocking\software\HBird-workspace\pico_spi\Debug/../src/main.c:37
	FIFO_CLK_1;
    15b6:	0407e793          	ori	a5,a5,64
    15ba:	02f9a023          	sw	a5,32(s3)
    15be:	4f4c0c13          	addi	s8,s8,1268 # 44f4 <chines_word+0xa80>
    15c2:	50cb8b93          	addi	s7,s7,1292 # 450c <chines_word+0xa98>
C:\Users\admin\OneDrive - stu.cdu.edu.cn\2024FPGA\fpga_pds_project\cpu\picorv32+dds+osp+logic_alz_underclocking\software\HBird-workspace\pico_spi\Debug/../src/main.c:149
				switch(LOGIC_DISPLAY_MODE)
    15c6:	4985                	li	s3,1
C:\Users\admin\OneDrive - stu.cdu.edu.cn\2024FPGA\fpga_pds_project\cpu\picorv32+dds+osp+logic_alz_underclocking\software\HBird-workspace\pico_spi\Debug/../src/main.c:293
						if(clear_flag != 5){
    15c8:	4a95                	li	s5,5
C:\Users\admin\OneDrive - stu.cdu.edu.cn\2024FPGA\fpga_pds_project\cpu\picorv32+dds+osp+logic_alz_underclocking\software\HBird-workspace\pico_spi\Debug/../src/main.c:296
							//LOGIC
							display_char16_16(20+16*0,200-16*0 ,RED,11);
    15ca:	80040413          	addi	s0,s0,-2048
C:\Users\admin\OneDrive - stu.cdu.edu.cn\2024FPGA\fpga_pds_project\cpu\picorv32+dds+osp+logic_alz_underclocking\software\HBird-workspace\pico_spi\Debug/../src/main.c:156
						if(clear_flag != 4){
    15ce:	4b11                	li	s6,4
C:\Users\admin\OneDrive - stu.cdu.edu.cn\2024FPGA\fpga_pds_project\cpu\picorv32+dds+osp+logic_alz_underclocking\software\HBird-workspace\pico_spi\Debug/../src/main.c:40
		switch(INSTRUMENT_MODE)
    15d0:	48bc                	lw	a5,80(s1)
    15d2:	8b8d                	andi	a5,a5,3
    15d4:	1f278a63          	beq	a5,s2,17c8 <main+0x26e>
    15d8:	470d                	li	a4,3
    15da:	56e78b63          	beq	a5,a4,1b50 <main+0x5f6>
    15de:	4d378663          	beq	a5,s3,1aaa <main+0x550>
C:\Users\admin\OneDrive - stu.cdu.edu.cn\2024FPGA\fpga_pds_project\cpu\picorv32+dds+osp+logic_alz_underclocking\software\HBird-workspace\pico_spi\Debug/../src/main.c:43
				if(clear_flag != 0){
    15e2:	d6fd                	beqz	a3,15d0 <main+0x76>
C:\Users\admin\OneDrive - stu.cdu.edu.cn\2024FPGA\fpga_pds_project\cpu\picorv32+dds+osp+logic_alz_underclocking\software\HBird-workspace\pico_spi\Debug/../src/main.c:44
					TFT_full(WHITE);
    15e4:	8552                	mv	a0,s4
    15e6:	36d5                	jal	11ca <TFT_full>
C:\Users\admin\OneDrive - stu.cdu.edu.cn\2024FPGA\fpga_pds_project\cpu\picorv32+dds+osp+logic_alz_underclocking\software\HBird-workspace\pico_spi\Debug/../src/main.c:46
					display_char16_16(100+16*0,212-16*0 ,RED,0);
    15e8:	4681                	li	a3,0
    15ea:	8622                	mv	a2,s0
    15ec:	0d400593          	li	a1,212
    15f0:	06400513          	li	a0,100
    15f4:	33f1                	jal	13c0 <display_char16_16>
C:\Users\admin\OneDrive - stu.cdu.edu.cn\2024FPGA\fpga_pds_project\cpu\picorv32+dds+osp+logic_alz_underclocking\software\HBird-workspace\pico_spi\Debug/../src/main.c:47
					display_char16_16(100+16*0,212-16*1 ,RED,1);
    15f6:	4685                	li	a3,1
    15f8:	8622                	mv	a2,s0
    15fa:	0c400593          	li	a1,196
    15fe:	06400513          	li	a0,100
    1602:	3b7d                	jal	13c0 <display_char16_16>
C:\Users\admin\OneDrive - stu.cdu.edu.cn\2024FPGA\fpga_pds_project\cpu\picorv32+dds+osp+logic_alz_underclocking\software\HBird-workspace\pico_spi\Debug/../src/main.c:48
					display_char16_16(100+16*0,212-16*2 ,RED,2);
    1604:	4689                	li	a3,2
    1606:	8622                	mv	a2,s0
    1608:	0b400593          	li	a1,180
    160c:	06400513          	li	a0,100
    1610:	3b45                	jal	13c0 <display_char16_16>
C:\Users\admin\OneDrive - stu.cdu.edu.cn\2024FPGA\fpga_pds_project\cpu\picorv32+dds+osp+logic_alz_underclocking\software\HBird-workspace\pico_spi\Debug/../src/main.c:49
					display_char16_16(100+16*0,212-16*3 ,RED,3);
    1612:	468d                	li	a3,3
    1614:	8622                	mv	a2,s0
    1616:	0a400593          	li	a1,164
    161a:	06400513          	li	a0,100
    161e:	334d                	jal	13c0 <display_char16_16>
C:\Users\admin\OneDrive - stu.cdu.edu.cn\2024FPGA\fpga_pds_project\cpu\picorv32+dds+osp+logic_alz_underclocking\software\HBird-workspace\pico_spi\Debug/../src/main.c:50
					display_char16_16(100+16*0,212-16*4 ,RED,4);
    1620:	4691                	li	a3,4
    1622:	8622                	mv	a2,s0
    1624:	09400593          	li	a1,148
    1628:	06400513          	li	a0,100
    162c:	3b51                	jal	13c0 <display_char16_16>
C:\Users\admin\OneDrive - stu.cdu.edu.cn\2024FPGA\fpga_pds_project\cpu\picorv32+dds+osp+logic_alz_underclocking\software\HBird-workspace\pico_spi\Debug/../src/main.c:51
					display_char16_16(100+16*0,212-16*5 ,RED,5);
    162e:	4695                	li	a3,5
    1630:	8622                	mv	a2,s0
    1632:	08400593          	li	a1,132
    1636:	06400513          	li	a0,100
    163a:	3359                	jal	13c0 <display_char16_16>
C:\Users\admin\OneDrive - stu.cdu.edu.cn\2024FPGA\fpga_pds_project\cpu\picorv32+dds+osp+logic_alz_underclocking\software\HBird-workspace\pico_spi\Debug/../src/main.c:52
					display_char16_16(100+16*0,212-16*6 ,RED,6);
    163c:	4699                	li	a3,6
    163e:	8622                	mv	a2,s0
    1640:	07400593          	li	a1,116
    1644:	06400513          	li	a0,100
    1648:	3ba5                	jal	13c0 <display_char16_16>
C:\Users\admin\OneDrive - stu.cdu.edu.cn\2024FPGA\fpga_pds_project\cpu\picorv32+dds+osp+logic_alz_underclocking\software\HBird-workspace\pico_spi\Debug/../src/main.c:53
					display_char16_16(100+16*0,212-16*7 ,RED,7);
    164a:	469d                	li	a3,7
    164c:	8622                	mv	a2,s0
    164e:	06400593          	li	a1,100
    1652:	06400513          	li	a0,100
    1656:	33ad                	jal	13c0 <display_char16_16>
C:\Users\admin\OneDrive - stu.cdu.edu.cn\2024FPGA\fpga_pds_project\cpu\picorv32+dds+osp+logic_alz_underclocking\software\HBird-workspace\pico_spi\Debug/../src/main.c:55
					display_char16_16(100+16*1,260-16*0 ,RED,8 );
    1658:	46a1                	li	a3,8
    165a:	8622                	mv	a2,s0
    165c:	10400593          	li	a1,260
    1660:	07400513          	li	a0,116
    1664:	3bb1                	jal	13c0 <display_char16_16>
C:\Users\admin\OneDrive - stu.cdu.edu.cn\2024FPGA\fpga_pds_project\cpu\picorv32+dds+osp+logic_alz_underclocking\software\HBird-workspace\pico_spi\Debug/../src/main.c:56
					display_char16_16(100+16*1,260-16*1 ,RED,9 );
    1666:	46a5                	li	a3,9
    1668:	8622                	mv	a2,s0
    166a:	0f400593          	li	a1,244
    166e:	07400513          	li	a0,116
    1672:	33b9                	jal	13c0 <display_char16_16>
C:\Users\admin\OneDrive - stu.cdu.edu.cn\2024FPGA\fpga_pds_project\cpu\picorv32+dds+osp+logic_alz_underclocking\software\HBird-workspace\pico_spi\Debug/../src/main.c:57
					display_char16_16(100+16*1,260-16*2 ,RED,10);
    1674:	46a9                	li	a3,10
    1676:	8622                	mv	a2,s0
    1678:	0e400593          	li	a1,228
    167c:	07400513          	li	a0,116
    1680:	3381                	jal	13c0 <display_char16_16>
C:\Users\admin\OneDrive - stu.cdu.edu.cn\2024FPGA\fpga_pds_project\cpu\picorv32+dds+osp+logic_alz_underclocking\software\HBird-workspace\pico_spi\Debug/../src/main.c:58
					display_char16_16(100+16*1,260-16*3 ,RED,23);//:
    1682:	46dd                	li	a3,23
    1684:	8622                	mv	a2,s0
    1686:	0d400593          	li	a1,212
    168a:	07400513          	li	a0,116
    168e:	3b0d                	jal	13c0 <display_char16_16>
C:\Users\admin\OneDrive - stu.cdu.edu.cn\2024FPGA\fpga_pds_project\cpu\picorv32+dds+osp+logic_alz_underclocking\software\HBird-workspace\pico_spi\Debug/../src/main.c:59
					display_char16_16(100+16*1,260-16*4 ,RED,11);
    1690:	46ad                	li	a3,11
    1692:	8622                	mv	a2,s0
    1694:	0c400593          	li	a1,196
    1698:	07400513          	li	a0,116
    169c:	3315                	jal	13c0 <display_char16_16>
C:\Users\admin\OneDrive - stu.cdu.edu.cn\2024FPGA\fpga_pds_project\cpu\picorv32+dds+osp+logic_alz_underclocking\software\HBird-workspace\pico_spi\Debug/../src/main.c:60
					display_char16_16(100+16*1,260-16*5 ,RED,12);
    169e:	46b1                	li	a3,12
    16a0:	8622                	mv	a2,s0
    16a2:	0b400593          	li	a1,180
    16a6:	07400513          	li	a0,116
    16aa:	3b19                	jal	13c0 <display_char16_16>
C:\Users\admin\OneDrive - stu.cdu.edu.cn\2024FPGA\fpga_pds_project\cpu\picorv32+dds+osp+logic_alz_underclocking\software\HBird-workspace\pico_spi\Debug/../src/main.c:61
					display_char16_16(100+16*1,260-16*6 ,RED,13);
    16ac:	46b5                	li	a3,13
    16ae:	8622                	mv	a2,s0
    16b0:	0a400593          	li	a1,164
    16b4:	07400513          	li	a0,116
    16b8:	3321                	jal	13c0 <display_char16_16>
C:\Users\admin\OneDrive - stu.cdu.edu.cn\2024FPGA\fpga_pds_project\cpu\picorv32+dds+osp+logic_alz_underclocking\software\HBird-workspace\pico_spi\Debug/../src/main.c:62
					display_char16_16(100+16*1,260-16*7 ,RED,14);
    16ba:	46b9                	li	a3,14
    16bc:	8622                	mv	a2,s0
    16be:	09400593          	li	a1,148
    16c2:	07400513          	li	a0,116
    16c6:	39ed                	jal	13c0 <display_char16_16>
C:\Users\admin\OneDrive - stu.cdu.edu.cn\2024FPGA\fpga_pds_project\cpu\picorv32+dds+osp+logic_alz_underclocking\software\HBird-workspace\pico_spi\Debug/../src/main.c:63
					display_char16_16(100+16*1,260-16*8 ,RED,15);
    16c8:	46bd                	li	a3,15
    16ca:	8622                	mv	a2,s0
    16cc:	08400593          	li	a1,132
    16d0:	07400513          	li	a0,116
    16d4:	31f5                	jal	13c0 <display_char16_16>
C:\Users\admin\OneDrive - stu.cdu.edu.cn\2024FPGA\fpga_pds_project\cpu\picorv32+dds+osp+logic_alz_underclocking\software\HBird-workspace\pico_spi\Debug/../src/main.c:64
					display_char16_16(100+16*1,260-16*9 ,RED,23);//:
    16d6:	46dd                	li	a3,23
    16d8:	8622                	mv	a2,s0
    16da:	07400593          	li	a1,116
    16de:	07400513          	li	a0,116
    16e2:	39f9                	jal	13c0 <display_char16_16>
C:\Users\admin\OneDrive - stu.cdu.edu.cn\2024FPGA\fpga_pds_project\cpu\picorv32+dds+osp+logic_alz_underclocking\software\HBird-workspace\pico_spi\Debug/../src/main.c:65
					display_char16_16(100+16*1,260-16*10,RED,16);
    16e4:	46c1                	li	a3,16
    16e6:	8622                	mv	a2,s0
    16e8:	06400593          	li	a1,100
    16ec:	07400513          	li	a0,116
    16f0:	39c1                	jal	13c0 <display_char16_16>
C:\Users\admin\OneDrive - stu.cdu.edu.cn\2024FPGA\fpga_pds_project\cpu\picorv32+dds+osp+logic_alz_underclocking\software\HBird-workspace\pico_spi\Debug/../src/main.c:66
					display_char16_16(100+16*1,260-16*11,RED,17);
    16f2:	46c5                	li	a3,17
    16f4:	8622                	mv	a2,s0
    16f6:	05400593          	li	a1,84
    16fa:	07400513          	li	a0,116
    16fe:	31c9                	jal	13c0 <display_char16_16>
C:\Users\admin\OneDrive - stu.cdu.edu.cn\2024FPGA\fpga_pds_project\cpu\picorv32+dds+osp+logic_alz_underclocking\software\HBird-workspace\pico_spi\Debug/../src/main.c:67
					display_char16_16(100+16*1,260-16*12,RED,18);
    1700:	46c9                	li	a3,18
    1702:	8622                	mv	a2,s0
    1704:	04400593          	li	a1,68
    1708:	07400513          	li	a0,116
    170c:	3955                	jal	13c0 <display_char16_16>
C:\Users\admin\OneDrive - stu.cdu.edu.cn\2024FPGA\fpga_pds_project\cpu\picorv32+dds+osp+logic_alz_underclocking\software\HBird-workspace\pico_spi\Debug/../src/main.c:68
					display_char16_16(100+16*1,260-16*13,RED,19);
    170e:	46cd                	li	a3,19
    1710:	8622                	mv	a2,s0
    1712:	03400593          	li	a1,52
    1716:	07400513          	li	a0,116
    171a:	315d                	jal	13c0 <display_char16_16>
C:\Users\admin\OneDrive - stu.cdu.edu.cn\2024FPGA\fpga_pds_project\cpu\picorv32+dds+osp+logic_alz_underclocking\software\HBird-workspace\pico_spi\Debug/../src/main.c:69
					display_char16_16(100+16*1,260-16*14,RED,20);
    171c:	46d1                	li	a3,20
    171e:	8622                	mv	a2,s0
    1720:	02400593          	li	a1,36
    1724:	07400513          	li	a0,116
    1728:	3961                	jal	13c0 <display_char16_16>
C:\Users\admin\OneDrive - stu.cdu.edu.cn\2024FPGA\fpga_pds_project\cpu\picorv32+dds+osp+logic_alz_underclocking\software\HBird-workspace\pico_spi\Debug/../src/main.c:71
					display_char16_16(100+16*2,212-16*0 ,RED,21);
    172a:	46d5                	li	a3,21
    172c:	8622                	mv	a2,s0
    172e:	0d400593          	li	a1,212
    1732:	08400513          	li	a0,132
    1736:	3169                	jal	13c0 <display_char16_16>
C:\Users\admin\OneDrive - stu.cdu.edu.cn\2024FPGA\fpga_pds_project\cpu\picorv32+dds+osp+logic_alz_underclocking\software\HBird-workspace\pico_spi\Debug/../src/main.c:72
					display_char16_16(100+16*2,212-16*1 ,RED,22);
    1738:	46d9                	li	a3,22
    173a:	8622                	mv	a2,s0
    173c:	0c400593          	li	a1,196
    1740:	08400513          	li	a0,132
    1744:	39b5                	jal	13c0 <display_char16_16>
C:\Users\admin\OneDrive - stu.cdu.edu.cn\2024FPGA\fpga_pds_project\cpu\picorv32+dds+osp+logic_alz_underclocking\software\HBird-workspace\pico_spi\Debug/../src/main.c:73
					display_char16_16(100+16*2,212-16*2 ,RED,26);
    1746:	46e9                	li	a3,26
    1748:	8622                	mv	a2,s0
    174a:	0b400593          	li	a1,180
    174e:	08400513          	li	a0,132
    1752:	31bd                	jal	13c0 <display_char16_16>
C:\Users\admin\OneDrive - stu.cdu.edu.cn\2024FPGA\fpga_pds_project\cpu\picorv32+dds+osp+logic_alz_underclocking\software\HBird-workspace\pico_spi\Debug/../src/main.c:74
					display_char16_16(100+16*2,212-16*3 ,RED,23);//:
    1754:	46dd                	li	a3,23
    1756:	8622                	mv	a2,s0
    1758:	0a400593          	li	a1,164
    175c:	08400513          	li	a0,132
    1760:	3185                	jal	13c0 <display_char16_16>
C:\Users\admin\OneDrive - stu.cdu.edu.cn\2024FPGA\fpga_pds_project\cpu\picorv32+dds+osp+logic_alz_underclocking\software\HBird-workspace\pico_spi\Debug/../src/main.c:75
					display_char16_16(100+16*2,212-16*4 ,RED,6 );
    1762:	4699                	li	a3,6
    1764:	8622                	mv	a2,s0
    1766:	09400593          	li	a1,148
    176a:	08400513          	li	a0,132
    176e:	3989                	jal	13c0 <display_char16_16>
C:\Users\admin\OneDrive - stu.cdu.edu.cn\2024FPGA\fpga_pds_project\cpu\picorv32+dds+osp+logic_alz_underclocking\software\HBird-workspace\pico_spi\Debug/../src/main.c:76
					display_char16_16(100+16*2,212-16*5 ,RED,7 );
    1770:	469d                	li	a3,7
    1772:	8622                	mv	a2,s0
    1774:	08400593          	li	a1,132
    1778:	08400513          	li	a0,132
    177c:	3191                	jal	13c0 <display_char16_16>
C:\Users\admin\OneDrive - stu.cdu.edu.cn\2024FPGA\fpga_pds_project\cpu\picorv32+dds+osp+logic_alz_underclocking\software\HBird-workspace\pico_spi\Debug/../src/main.c:77
					display_char16_16(100+16*2,212-16*6 ,RED,75);
    177e:	04b00693          	li	a3,75
    1782:	8622                	mv	a2,s0
    1784:	07400593          	li	a1,116
    1788:	08400513          	li	a0,132
    178c:	3915                	jal	13c0 <display_char16_16>
C:\Users\admin\OneDrive - stu.cdu.edu.cn\2024FPGA\fpga_pds_project\cpu\picorv32+dds+osp+logic_alz_underclocking\software\HBird-workspace\pico_spi\Debug/../src/main.c:78
					display_char16_16(100+16*2,212-16*7 ,RED,76);
    178e:	04c00693          	li	a3,76
    1792:	8622                	mv	a2,s0
    1794:	06400593          	li	a1,100
    1798:	08400513          	li	a0,132
    179c:	3115                	jal	13c0 <display_char16_16>
C:\Users\admin\OneDrive - stu.cdu.edu.cn\2024FPGA\fpga_pds_project\cpu\picorv32+dds+osp+logic_alz_underclocking\software\HBird-workspace\pico_spi\Debug/../src/main.c:79
					display_char16_16(100+16*2,212-16*8 ,RED,77);
    179e:	04d00693          	li	a3,77
    17a2:	8622                	mv	a2,s0
    17a4:	05400593          	li	a1,84
    17a8:	08400513          	li	a0,132
    17ac:	3911                	jal	13c0 <display_char16_16>
C:\Users\admin\OneDrive - stu.cdu.edu.cn\2024FPGA\fpga_pds_project\cpu\picorv32+dds+osp+logic_alz_underclocking\software\HBird-workspace\pico_spi\Debug/../src/main.c:80
					display_char16_16(100+16*2,212-16*9 ,RED,78);
    17ae:	04e00693          	li	a3,78
    17b2:	8622                	mv	a2,s0
    17b4:	04400593          	li	a1,68
    17b8:	08400513          	li	a0,132
    17bc:	3111                	jal	13c0 <display_char16_16>
C:\Users\admin\OneDrive - stu.cdu.edu.cn\2024FPGA\fpga_pds_project\cpu\picorv32+dds+osp+logic_alz_underclocking\software\HBird-workspace\pico_spi\Debug/../src/main.c:40
		switch(INSTRUMENT_MODE)
    17be:	48bc                	lw	a5,80(s1)
C:\Users\admin\OneDrive - stu.cdu.edu.cn\2024FPGA\fpga_pds_project\cpu\picorv32+dds+osp+logic_alz_underclocking\software\HBird-workspace\pico_spi\Debug/../src/main.c:81
					clear_flag = 0;
    17c0:	4681                	li	a3,0
C:\Users\admin\OneDrive - stu.cdu.edu.cn\2024FPGA\fpga_pds_project\cpu\picorv32+dds+osp+logic_alz_underclocking\software\HBird-workspace\pico_spi\Debug/../src/main.c:40
		switch(INSTRUMENT_MODE)
    17c2:	8b8d                	andi	a5,a5,3
    17c4:	e1279ae3          	bne	a5,s2,15d8 <main+0x7e>
C:\Users\admin\OneDrive - stu.cdu.edu.cn\2024FPGA\fpga_pds_project\cpu\picorv32+dds+osp+logic_alz_underclocking\software\HBird-workspace\pico_spi\Debug/../src/main.c:149
				switch(LOGIC_DISPLAY_MODE)
    17c8:	48bc                	lw	a5,80(s1)
    17ca:	83b1                	srli	a5,a5,0xc
    17cc:	8b8d                	andi	a5,a5,3
    17ce:	e13781e3          	beq	a5,s3,15d0 <main+0x76>
    17d2:	79279a63          	bne	a5,s2,1f66 <main+0xa0c>
C:\Users\admin\OneDrive - stu.cdu.edu.cn\2024FPGA\fpga_pds_project\cpu\picorv32+dds+osp+logic_alz_underclocking\software\HBird-workspace\pico_spi\Debug/../src/main.c:156
						if(clear_flag != 4){
    17d6:	29668763          	beq	a3,s6,1a64 <main+0x50a>
C:\Users\admin\OneDrive - stu.cdu.edu.cn\2024FPGA\fpga_pds_project\cpu\picorv32+dds+osp+logic_alz_underclocking\software\HBird-workspace\pico_spi\Debug/../src/main.c:157
							TFT_full(WHITE);
    17da:	8552                	mv	a0,s4
    17dc:	9efff0ef          	jal	ra,11ca <TFT_full>
C:\Users\admin\OneDrive - stu.cdu.edu.cn\2024FPGA\fpga_pds_project\cpu\picorv32+dds+osp+logic_alz_underclocking\software\HBird-workspace\pico_spi\Debug/../src/main.c:159
							display_char16_16(20+16*0,200-16*0 ,RED,11);
    17e0:	46ad                	li	a3,11
    17e2:	8622                	mv	a2,s0
    17e4:	0c800593          	li	a1,200
    17e8:	4551                	li	a0,20
    17ea:	3ed9                	jal	13c0 <display_char16_16>
C:\Users\admin\OneDrive - stu.cdu.edu.cn\2024FPGA\fpga_pds_project\cpu\picorv32+dds+osp+logic_alz_underclocking\software\HBird-workspace\pico_spi\Debug/../src/main.c:160
							display_char16_16(20+16*0,200-16*1 ,RED,12);
    17ec:	46b1                	li	a3,12
    17ee:	8622                	mv	a2,s0
    17f0:	0b800593          	li	a1,184
    17f4:	4551                	li	a0,20
    17f6:	36e9                	jal	13c0 <display_char16_16>
C:\Users\admin\OneDrive - stu.cdu.edu.cn\2024FPGA\fpga_pds_project\cpu\picorv32+dds+osp+logic_alz_underclocking\software\HBird-workspace\pico_spi\Debug/../src/main.c:161
							display_char16_16(20+16*0,200-16*2 ,RED,13);
    17f8:	46b5                	li	a3,13
    17fa:	8622                	mv	a2,s0
    17fc:	0a800593          	li	a1,168
    1800:	4551                	li	a0,20
    1802:	3e7d                	jal	13c0 <display_char16_16>
C:\Users\admin\OneDrive - stu.cdu.edu.cn\2024FPGA\fpga_pds_project\cpu\picorv32+dds+osp+logic_alz_underclocking\software\HBird-workspace\pico_spi\Debug/../src/main.c:162
							display_char16_16(20+16*0,200-16*3 ,RED,14);
    1804:	46b9                	li	a3,14
    1806:	8622                	mv	a2,s0
    1808:	09800593          	li	a1,152
    180c:	4551                	li	a0,20
    180e:	3e4d                	jal	13c0 <display_char16_16>
C:\Users\admin\OneDrive - stu.cdu.edu.cn\2024FPGA\fpga_pds_project\cpu\picorv32+dds+osp+logic_alz_underclocking\software\HBird-workspace\pico_spi\Debug/../src/main.c:163
							display_char16_16(20+16*0,200-16*4 ,RED,15);
    1810:	46bd                	li	a3,15
    1812:	8622                	mv	a2,s0
    1814:	08800593          	li	a1,136
    1818:	4551                	li	a0,20
    181a:	365d                	jal	13c0 <display_char16_16>
C:\Users\admin\OneDrive - stu.cdu.edu.cn\2024FPGA\fpga_pds_project\cpu\picorv32+dds+osp+logic_alz_underclocking\software\HBird-workspace\pico_spi\Debug/../src/main.c:165
							display_char16_16(20+16*1,200-16*0 ,RED,37);
    181c:	02500693          	li	a3,37
    1820:	8622                	mv	a2,s0
    1822:	0c800593          	li	a1,200
    1826:	02400513          	li	a0,36
    182a:	3e59                	jal	13c0 <display_char16_16>
C:\Users\admin\OneDrive - stu.cdu.edu.cn\2024FPGA\fpga_pds_project\cpu\picorv32+dds+osp+logic_alz_underclocking\software\HBird-workspace\pico_spi\Debug/../src/main.c:166
							display_char16_16(20+16*1,200-16*1 ,RED,38);
    182c:	02600693          	li	a3,38
    1830:	8622                	mv	a2,s0
    1832:	0b800593          	li	a1,184
    1836:	02400513          	li	a0,36
    183a:	3659                	jal	13c0 <display_char16_16>
C:\Users\admin\OneDrive - stu.cdu.edu.cn\2024FPGA\fpga_pds_project\cpu\picorv32+dds+osp+logic_alz_underclocking\software\HBird-workspace\pico_spi\Debug/../src/main.c:167
							display_char16_16(20+16*1,200-16*2 ,RED,39);
    183c:	02700693          	li	a3,39
    1840:	8622                	mv	a2,s0
    1842:	0a800593          	li	a1,168
    1846:	02400513          	li	a0,36
    184a:	3e9d                	jal	13c0 <display_char16_16>
C:\Users\admin\OneDrive - stu.cdu.edu.cn\2024FPGA\fpga_pds_project\cpu\picorv32+dds+osp+logic_alz_underclocking\software\HBird-workspace\pico_spi\Debug/../src/main.c:168
							display_char16_16(20+16*1,200-16*3 ,RED,75);
    184c:	04b00693          	li	a3,75
    1850:	8622                	mv	a2,s0
    1852:	09800593          	li	a1,152
    1856:	02400513          	li	a0,36
    185a:	369d                	jal	13c0 <display_char16_16>
C:\Users\admin\OneDrive - stu.cdu.edu.cn\2024FPGA\fpga_pds_project\cpu\picorv32+dds+osp+logic_alz_underclocking\software\HBird-workspace\pico_spi\Debug/../src/main.c:169
							display_char16_16(20+16*1,200-16*4 ,RED,76);
    185c:	04c00693          	li	a3,76
    1860:	8622                	mv	a2,s0
    1862:	08800593          	li	a1,136
    1866:	02400513          	li	a0,36
    186a:	3e99                	jal	13c0 <display_char16_16>
C:\Users\admin\OneDrive - stu.cdu.edu.cn\2024FPGA\fpga_pds_project\cpu\picorv32+dds+osp+logic_alz_underclocking\software\HBird-workspace\pico_spi\Debug/../src/main.c:171
							display_char16_16(20+16*2,200-16*0 ,RED,21);
    186c:	46d5                	li	a3,21
    186e:	8622                	mv	a2,s0
    1870:	0c800593          	li	a1,200
    1874:	03400513          	li	a0,52
    1878:	36a1                	jal	13c0 <display_char16_16>
C:\Users\admin\OneDrive - stu.cdu.edu.cn\2024FPGA\fpga_pds_project\cpu\picorv32+dds+osp+logic_alz_underclocking\software\HBird-workspace\pico_spi\Debug/../src/main.c:172
							display_char16_16(20+16*2,200-16*1 ,RED,22);
    187a:	46d9                	li	a3,22
    187c:	8622                	mv	a2,s0
    187e:	0b800593          	li	a1,184
    1882:	03400513          	li	a0,52
    1886:	3e2d                	jal	13c0 <display_char16_16>
C:\Users\admin\OneDrive - stu.cdu.edu.cn\2024FPGA\fpga_pds_project\cpu\picorv32+dds+osp+logic_alz_underclocking\software\HBird-workspace\pico_spi\Debug/../src/main.c:173
							display_char16_16(20+16*2,200-16*2 ,RED,28);
    1888:	46f1                	li	a3,28
    188a:	8622                	mv	a2,s0
    188c:	0a800593          	li	a1,168
    1890:	03400513          	li	a0,52
    1894:	3635                	jal	13c0 <display_char16_16>
C:\Users\admin\OneDrive - stu.cdu.edu.cn\2024FPGA\fpga_pds_project\cpu\picorv32+dds+osp+logic_alz_underclocking\software\HBird-workspace\pico_spi\Debug/../src/main.c:174
							display_char16_16(20+16*2,200-16*3 ,RED,23);//:
    1896:	46dd                	li	a3,23
    1898:	8622                	mv	a2,s0
    189a:	09800593          	li	a1,152
    189e:	03400513          	li	a0,52
    18a2:	3e39                	jal	13c0 <display_char16_16>
C:\Users\admin\OneDrive - stu.cdu.edu.cn\2024FPGA\fpga_pds_project\cpu\picorv32+dds+osp+logic_alz_underclocking\software\HBird-workspace\pico_spi\Debug/../src/main.c:175
							display_char16_16(20+16*2,200-16*4 ,RED,44);
    18a4:	02c00693          	li	a3,44
    18a8:	8622                	mv	a2,s0
    18aa:	08800593          	li	a1,136
    18ae:	03400513          	li	a0,52
    18b2:	3639                	jal	13c0 <display_char16_16>
C:\Users\admin\OneDrive - stu.cdu.edu.cn\2024FPGA\fpga_pds_project\cpu\picorv32+dds+osp+logic_alz_underclocking\software\HBird-workspace\pico_spi\Debug/../src/main.c:176
							display_char16_16(20+16*2,200-16*5 ,RED,45);
    18b4:	02d00693          	li	a3,45
    18b8:	8622                	mv	a2,s0
    18ba:	07800593          	li	a1,120
    18be:	03400513          	li	a0,52
    18c2:	3cfd                	jal	13c0 <display_char16_16>
C:\Users\admin\OneDrive - stu.cdu.edu.cn\2024FPGA\fpga_pds_project\cpu\picorv32+dds+osp+logic_alz_underclocking\software\HBird-workspace\pico_spi\Debug/../src/main.c:177
							display_char16_16(20+16*2,200-16*6 ,RED,75);
    18c4:	04b00693          	li	a3,75
    18c8:	8622                	mv	a2,s0
    18ca:	06800593          	li	a1,104
    18ce:	03400513          	li	a0,52
    18d2:	aefff0ef          	jal	ra,13c0 <display_char16_16>
C:\Users\admin\OneDrive - stu.cdu.edu.cn\2024FPGA\fpga_pds_project\cpu\picorv32+dds+osp+logic_alz_underclocking\software\HBird-workspace\pico_spi\Debug/../src/main.c:178
							display_char16_16(20+16*2,200-16*7 ,RED,76);
    18d6:	04c00693          	li	a3,76
    18da:	8622                	mv	a2,s0
    18dc:	05800593          	li	a1,88
    18e0:	03400513          	li	a0,52
    18e4:	addff0ef          	jal	ra,13c0 <display_char16_16>
C:\Users\admin\OneDrive - stu.cdu.edu.cn\2024FPGA\fpga_pds_project\cpu\picorv32+dds+osp+logic_alz_underclocking\software\HBird-workspace\pico_spi\Debug/../src/main.c:179
							display_char16_16(20+16*2,200-16*8 ,RED,77);
    18e8:	04d00693          	li	a3,77
    18ec:	8622                	mv	a2,s0
    18ee:	04800593          	li	a1,72
    18f2:	03400513          	li	a0,52
    18f6:	acbff0ef          	jal	ra,13c0 <display_char16_16>
C:\Users\admin\OneDrive - stu.cdu.edu.cn\2024FPGA\fpga_pds_project\cpu\picorv32+dds+osp+logic_alz_underclocking\software\HBird-workspace\pico_spi\Debug/../src/main.c:180
							display_char16_16(20+16*2,200-16*9 ,RED,78);
    18fa:	04e00693          	li	a3,78
    18fe:	8622                	mv	a2,s0
    1900:	03800593          	li	a1,56
    1904:	03400513          	li	a0,52
    1908:	ab9ff0ef          	jal	ra,13c0 <display_char16_16>
C:\Users\admin\OneDrive - stu.cdu.edu.cn\2024FPGA\fpga_pds_project\cpu\picorv32+dds+osp+logic_alz_underclocking\software\HBird-workspace\pico_spi\Debug/../src/main.c:183
							display_char16_16(20+16*4,200-16*0 ,RED,21);
    190c:	46d5                	li	a3,21
    190e:	8622                	mv	a2,s0
    1910:	0c800593          	li	a1,200
    1914:	05400513          	li	a0,84
    1918:	aa9ff0ef          	jal	ra,13c0 <display_char16_16>
C:\Users\admin\OneDrive - stu.cdu.edu.cn\2024FPGA\fpga_pds_project\cpu\picorv32+dds+osp+logic_alz_underclocking\software\HBird-workspace\pico_spi\Debug/../src/main.c:184
							display_char16_16(20+16*4,200-16*1 ,RED,22);
    191c:	46d9                	li	a3,22
    191e:	8622                	mv	a2,s0
    1920:	0b800593          	li	a1,184
    1924:	05400513          	li	a0,84
    1928:	a99ff0ef          	jal	ra,13c0 <display_char16_16>
C:\Users\admin\OneDrive - stu.cdu.edu.cn\2024FPGA\fpga_pds_project\cpu\picorv32+dds+osp+logic_alz_underclocking\software\HBird-workspace\pico_spi\Debug/../src/main.c:185
							display_char16_16(20+16*4,200-16*2 ,RED,29);
    192c:	46f5                	li	a3,29
    192e:	8622                	mv	a2,s0
    1930:	0a800593          	li	a1,168
    1934:	05400513          	li	a0,84
    1938:	a89ff0ef          	jal	ra,13c0 <display_char16_16>
C:\Users\admin\OneDrive - stu.cdu.edu.cn\2024FPGA\fpga_pds_project\cpu\picorv32+dds+osp+logic_alz_underclocking\software\HBird-workspace\pico_spi\Debug/../src/main.c:186
							display_char16_16(20+16*4,200-16*3 ,RED,23);//:
    193c:	46dd                	li	a3,23
    193e:	8622                	mv	a2,s0
    1940:	09800593          	li	a1,152
    1944:	05400513          	li	a0,84
    1948:	a79ff0ef          	jal	ra,13c0 <display_char16_16>
C:\Users\admin\OneDrive - stu.cdu.edu.cn\2024FPGA\fpga_pds_project\cpu\picorv32+dds+osp+logic_alz_underclocking\software\HBird-workspace\pico_spi\Debug/../src/main.c:187
							display_char16_16(20+16*4,200-16*4 ,RED,44);
    194c:	02c00693          	li	a3,44
    1950:	8622                	mv	a2,s0
    1952:	08800593          	li	a1,136
    1956:	05400513          	li	a0,84
    195a:	a67ff0ef          	jal	ra,13c0 <display_char16_16>
C:\Users\admin\OneDrive - stu.cdu.edu.cn\2024FPGA\fpga_pds_project\cpu\picorv32+dds+osp+logic_alz_underclocking\software\HBird-workspace\pico_spi\Debug/../src/main.c:188
							display_char16_16(20+16*4,200-16*5 ,RED,45);
    195e:	02d00693          	li	a3,45
    1962:	8622                	mv	a2,s0
    1964:	07800593          	li	a1,120
    1968:	05400513          	li	a0,84
    196c:	a55ff0ef          	jal	ra,13c0 <display_char16_16>
C:\Users\admin\OneDrive - stu.cdu.edu.cn\2024FPGA\fpga_pds_project\cpu\picorv32+dds+osp+logic_alz_underclocking\software\HBird-workspace\pico_spi\Debug/../src/main.c:189
							display_char16_16(20+16*4,200-16*6 ,RED,55);
    1970:	03700693          	li	a3,55
    1974:	8622                	mv	a2,s0
    1976:	06800593          	li	a1,104
    197a:	05400513          	li	a0,84
    197e:	a43ff0ef          	jal	ra,13c0 <display_char16_16>
C:\Users\admin\OneDrive - stu.cdu.edu.cn\2024FPGA\fpga_pds_project\cpu\picorv32+dds+osp+logic_alz_underclocking\software\HBird-workspace\pico_spi\Debug/../src/main.c:190
							display_char16_16(20+16*4,200-16*7 ,RED,56);
    1982:	03800693          	li	a3,56
    1986:	8622                	mv	a2,s0
    1988:	05800593          	li	a1,88
    198c:	05400513          	li	a0,84
    1990:	a31ff0ef          	jal	ra,13c0 <display_char16_16>
C:\Users\admin\OneDrive - stu.cdu.edu.cn\2024FPGA\fpga_pds_project\cpu\picorv32+dds+osp+logic_alz_underclocking\software\HBird-workspace\pico_spi\Debug/../src/main.c:191
							display_char16_16(20+16*4,200-16*8 ,RED,77);
    1994:	04d00693          	li	a3,77
    1998:	8622                	mv	a2,s0
    199a:	04800593          	li	a1,72
    199e:	05400513          	li	a0,84
    19a2:	a1fff0ef          	jal	ra,13c0 <display_char16_16>
C:\Users\admin\OneDrive - stu.cdu.edu.cn\2024FPGA\fpga_pds_project\cpu\picorv32+dds+osp+logic_alz_underclocking\software\HBird-workspace\pico_spi\Debug/../src/main.c:192
							display_char16_16(20+16*4,200-16*9 ,RED,78);
    19a6:	04e00693          	li	a3,78
    19aa:	8622                	mv	a2,s0
    19ac:	03800593          	li	a1,56
    19b0:	05400513          	li	a0,84
    19b4:	a0dff0ef          	jal	ra,13c0 <display_char16_16>
C:\Users\admin\OneDrive - stu.cdu.edu.cn\2024FPGA\fpga_pds_project\cpu\picorv32+dds+osp+logic_alz_underclocking\software\HBird-workspace\pico_spi\Debug/../src/main.c:195
							display_char16_16(20+16*6,200-16*0 ,RED,21);
    19b8:	46d5                	li	a3,21
    19ba:	8622                	mv	a2,s0
    19bc:	0c800593          	li	a1,200
    19c0:	07400513          	li	a0,116
    19c4:	9fdff0ef          	jal	ra,13c0 <display_char16_16>
C:\Users\admin\OneDrive - stu.cdu.edu.cn\2024FPGA\fpga_pds_project\cpu\picorv32+dds+osp+logic_alz_underclocking\software\HBird-workspace\pico_spi\Debug/../src/main.c:196
							display_char16_16(20+16*6,200-16*1 ,RED,22);
    19c8:	46d9                	li	a3,22
    19ca:	8622                	mv	a2,s0
    19cc:	0b800593          	li	a1,184
    19d0:	07400513          	li	a0,116
    19d4:	9edff0ef          	jal	ra,13c0 <display_char16_16>
C:\Users\admin\OneDrive - stu.cdu.edu.cn\2024FPGA\fpga_pds_project\cpu\picorv32+dds+osp+logic_alz_underclocking\software\HBird-workspace\pico_spi\Debug/../src/main.c:197
							display_char16_16(20+16*6,200-16*2 ,RED,30);
    19d8:	46f9                	li	a3,30
    19da:	8622                	mv	a2,s0
    19dc:	0a800593          	li	a1,168
    19e0:	07400513          	li	a0,116
    19e4:	9ddff0ef          	jal	ra,13c0 <display_char16_16>
C:\Users\admin\OneDrive - stu.cdu.edu.cn\2024FPGA\fpga_pds_project\cpu\picorv32+dds+osp+logic_alz_underclocking\software\HBird-workspace\pico_spi\Debug/../src/main.c:198
							display_char16_16(20+16*6,200-16*3 ,RED,23);//:
    19e8:	46dd                	li	a3,23
    19ea:	8622                	mv	a2,s0
    19ec:	09800593          	li	a1,152
    19f0:	07400513          	li	a0,116
    19f4:	9cdff0ef          	jal	ra,13c0 <display_char16_16>
C:\Users\admin\OneDrive - stu.cdu.edu.cn\2024FPGA\fpga_pds_project\cpu\picorv32+dds+osp+logic_alz_underclocking\software\HBird-workspace\pico_spi\Debug/../src/main.c:199
							display_char16_16(20+16*6,200-16*4 ,RED,57);
    19f8:	03900693          	li	a3,57
    19fc:	8622                	mv	a2,s0
    19fe:	08800593          	li	a1,136
    1a02:	07400513          	li	a0,116
    1a06:	9bbff0ef          	jal	ra,13c0 <display_char16_16>
C:\Users\admin\OneDrive - stu.cdu.edu.cn\2024FPGA\fpga_pds_project\cpu\picorv32+dds+osp+logic_alz_underclocking\software\HBird-workspace\pico_spi\Debug/../src/main.c:200
							display_char16_16(20+16*6,200-16*5 ,RED,58);
    1a0a:	03a00693          	li	a3,58
    1a0e:	8622                	mv	a2,s0
    1a10:	07800593          	li	a1,120
    1a14:	07400513          	li	a0,116
    1a18:	9a9ff0ef          	jal	ra,13c0 <display_char16_16>
C:\Users\admin\OneDrive - stu.cdu.edu.cn\2024FPGA\fpga_pds_project\cpu\picorv32+dds+osp+logic_alz_underclocking\software\HBird-workspace\pico_spi\Debug/../src/main.c:201
							display_char16_16(20+16*6,200-16*6 ,RED,59);
    1a1c:	03b00693          	li	a3,59
    1a20:	8622                	mv	a2,s0
    1a22:	06800593          	li	a1,104
    1a26:	07400513          	li	a0,116
    1a2a:	997ff0ef          	jal	ra,13c0 <display_char16_16>
C:\Users\admin\OneDrive - stu.cdu.edu.cn\2024FPGA\fpga_pds_project\cpu\picorv32+dds+osp+logic_alz_underclocking\software\HBird-workspace\pico_spi\Debug/../src/main.c:202
							display_char16_16(20+16*6,200-16*7 ,RED,60);
    1a2e:	03c00693          	li	a3,60
    1a32:	8622                	mv	a2,s0
    1a34:	05800593          	li	a1,88
    1a38:	07400513          	li	a0,116
    1a3c:	985ff0ef          	jal	ra,13c0 <display_char16_16>
C:\Users\admin\OneDrive - stu.cdu.edu.cn\2024FPGA\fpga_pds_project\cpu\picorv32+dds+osp+logic_alz_underclocking\software\HBird-workspace\pico_spi\Debug/../src/main.c:203
							display_char16_16(20+16*6,200-16*8 ,RED,44);
    1a40:	02c00693          	li	a3,44
    1a44:	8622                	mv	a2,s0
    1a46:	04800593          	li	a1,72
    1a4a:	07400513          	li	a0,116
    1a4e:	973ff0ef          	jal	ra,13c0 <display_char16_16>
C:\Users\admin\OneDrive - stu.cdu.edu.cn\2024FPGA\fpga_pds_project\cpu\picorv32+dds+osp+logic_alz_underclocking\software\HBird-workspace\pico_spi\Debug/../src/main.c:204
							display_char16_16(20+16*6,200-16*9 ,RED,45);
    1a52:	02d00693          	li	a3,45
    1a56:	8622                	mv	a2,s0
    1a58:	03800593          	li	a1,56
    1a5c:	07400513          	li	a0,116
    1a60:	961ff0ef          	jal	ra,13c0 <display_char16_16>
C:\Users\admin\OneDrive - stu.cdu.edu.cn\2024FPGA\fpga_pds_project\cpu\picorv32+dds+osp+logic_alz_underclocking\software\HBird-workspace\pico_spi\Debug/../src/main.c:208
							display_char16_16(20+16*3,250-16*0 ,RED,82);
    1a64:	05200693          	li	a3,82
    1a68:	8622                	mv	a2,s0
    1a6a:	0fa00593          	li	a1,250
    1a6e:	04400513          	li	a0,68
    1a72:	94fff0ef          	jal	ra,13c0 <display_char16_16>
C:\Users\admin\OneDrive - stu.cdu.edu.cn\2024FPGA\fpga_pds_project\cpu\picorv32+dds+osp+logic_alz_underclocking\software\HBird-workspace\pico_spi\Debug/../src/main.c:209
							display_char16_16(20+16*3,250-16*1 ,RED,83);
    1a76:	05300693          	li	a3,83
    1a7a:	8622                	mv	a2,s0
    1a7c:	0ea00593          	li	a1,234
    1a80:	04400513          	li	a0,68
    1a84:	93dff0ef          	jal	ra,13c0 <display_char16_16>
C:\Users\admin\OneDrive - stu.cdu.edu.cn\2024FPGA\fpga_pds_project\cpu\picorv32+dds+osp+logic_alz_underclocking\software\HBird-workspace\pico_spi\Debug/../src/main.c:210
							display_char16_16(20+16*3,250-16*2 ,RED,23);//:
    1a88:	46dd                	li	a3,23
    1a8a:	8622                	mv	a2,s0
    1a8c:	0da00593          	li	a1,218
    1a90:	04400513          	li	a0,68
    1a94:	92dff0ef          	jal	ra,13c0 <display_char16_16>
C:\Users\admin\OneDrive - stu.cdu.edu.cn\2024FPGA\fpga_pds_project\cpu\picorv32+dds+osp+logic_alz_underclocking\software\HBird-workspace\pico_spi\Debug/../src/main.c:211
							switch(LOGIC_TRIGGER_MODE)
    1a98:	48bc                	lw	a5,80(s1)
    1a9a:	83b9                	srli	a5,a5,0xe
    1a9c:	8b9d                	andi	a5,a5,7
    1a9e:	2efae163          	bltu	s5,a5,1d80 <main+0x826>
    1aa2:	078a                	slli	a5,a5,0x2
    1aa4:	97e2                	add	a5,a5,s8
    1aa6:	439c                	lw	a5,0(a5)
    1aa8:	8782                	jr	a5
C:\Users\admin\OneDrive - stu.cdu.edu.cn\2024FPGA\fpga_pds_project\cpu\picorv32+dds+osp+logic_alz_underclocking\software\HBird-workspace\pico_spi\Debug/../src/main.c:85
				switch(OSP_DISPLAY_MODE)
    1aaa:	48bc                	lw	a5,80(s1)
    1aac:	8389                	srli	a5,a5,0x2
    1aae:	8b8d                	andi	a5,a5,3
    1ab0:	33378ce3          	beq	a5,s3,25e8 <main+0x108e>
    1ab4:	17279fe3          	bne	a5,s2,2432 <main+0xed8>
C:\Users\admin\OneDrive - stu.cdu.edu.cn\2024FPGA\fpga_pds_project\cpu\picorv32+dds+osp+logic_alz_underclocking\software\HBird-workspace\pico_spi\Debug/../src/main.c:95
						if(clear_flag != 2){
    1ab8:	b1268ce3          	beq	a3,s2,15d0 <main+0x76>
C:\Users\admin\OneDrive - stu.cdu.edu.cn\2024FPGA\fpga_pds_project\cpu\picorv32+dds+osp+logic_alz_underclocking\software\HBird-workspace\pico_spi\Debug/../src/main.c:96
							TFT_full(WHITE);
    1abc:	8552                	mv	a0,s4
    1abe:	f0cff0ef          	jal	ra,11ca <TFT_full>
C:\Users\admin\OneDrive - stu.cdu.edu.cn\2024FPGA\fpga_pds_project\cpu\picorv32+dds+osp+logic_alz_underclocking\software\HBird-workspace\pico_spi\Debug/../src/main.c:98
							display_char16_16(80+16*0,200-16*0 ,RED,8 );
    1ac2:	46a1                	li	a3,8
    1ac4:	8622                	mv	a2,s0
    1ac6:	0c800593          	li	a1,200
    1aca:	05000513          	li	a0,80
    1ace:	8f3ff0ef          	jal	ra,13c0 <display_char16_16>
C:\Users\admin\OneDrive - stu.cdu.edu.cn\2024FPGA\fpga_pds_project\cpu\picorv32+dds+osp+logic_alz_underclocking\software\HBird-workspace\pico_spi\Debug/../src/main.c:99
							display_char16_16(80+16*0,200-16*1 ,RED,9 );
    1ad2:	46a5                	li	a3,9
    1ad4:	8622                	mv	a2,s0
    1ad6:	0b800593          	li	a1,184
    1ada:	05000513          	li	a0,80
    1ade:	8e3ff0ef          	jal	ra,13c0 <display_char16_16>
C:\Users\admin\OneDrive - stu.cdu.edu.cn\2024FPGA\fpga_pds_project\cpu\picorv32+dds+osp+logic_alz_underclocking\software\HBird-workspace\pico_spi\Debug/../src/main.c:100
							display_char16_16(80+16*0,200-16*2 ,RED,10);
    1ae2:	46a9                	li	a3,10
    1ae4:	8622                	mv	a2,s0
    1ae6:	0a800593          	li	a1,168
    1aea:	05000513          	li	a0,80
    1aee:	8d3ff0ef          	jal	ra,13c0 <display_char16_16>
C:\Users\admin\OneDrive - stu.cdu.edu.cn\2024FPGA\fpga_pds_project\cpu\picorv32+dds+osp+logic_alz_underclocking\software\HBird-workspace\pico_spi\Debug/../src/main.c:102
							display_char16_16(80+16*1,200-16*0 ,RED,37);
    1af2:	02500693          	li	a3,37
    1af6:	8622                	mv	a2,s0
    1af8:	0c800593          	li	a1,200
    1afc:	06000513          	li	a0,96
    1b00:	8c1ff0ef          	jal	ra,13c0 <display_char16_16>
C:\Users\admin\OneDrive - stu.cdu.edu.cn\2024FPGA\fpga_pds_project\cpu\picorv32+dds+osp+logic_alz_underclocking\software\HBird-workspace\pico_spi\Debug/../src/main.c:103
							display_char16_16(80+16*1,200-16*1 ,RED,38);
    1b04:	02600693          	li	a3,38
    1b08:	8622                	mv	a2,s0
    1b0a:	0b800593          	li	a1,184
    1b0e:	06000513          	li	a0,96
    1b12:	8afff0ef          	jal	ra,13c0 <display_char16_16>
C:\Users\admin\OneDrive - stu.cdu.edu.cn\2024FPGA\fpga_pds_project\cpu\picorv32+dds+osp+logic_alz_underclocking\software\HBird-workspace\pico_spi\Debug/../src/main.c:104
							display_char16_16(80+16*1,200-16*2 ,RED,39);
    1b16:	02700693          	li	a3,39
    1b1a:	8622                	mv	a2,s0
    1b1c:	0a800593          	li	a1,168
    1b20:	06000513          	li	a0,96
    1b24:	89dff0ef          	jal	ra,13c0 <display_char16_16>
C:\Users\admin\OneDrive - stu.cdu.edu.cn\2024FPGA\fpga_pds_project\cpu\picorv32+dds+osp+logic_alz_underclocking\software\HBird-workspace\pico_spi\Debug/../src/main.c:105
							display_char16_16(80+16*1,200-16*3 ,RED,75);
    1b28:	04b00693          	li	a3,75
    1b2c:	8622                	mv	a2,s0
    1b2e:	09800593          	li	a1,152
    1b32:	06000513          	li	a0,96
    1b36:	88bff0ef          	jal	ra,13c0 <display_char16_16>
C:\Users\admin\OneDrive - stu.cdu.edu.cn\2024FPGA\fpga_pds_project\cpu\picorv32+dds+osp+logic_alz_underclocking\software\HBird-workspace\pico_spi\Debug/../src/main.c:106
							display_char16_16(80+16*1,200-16*4 ,RED,76);
    1b3a:	04c00693          	li	a3,76
    1b3e:	8622                	mv	a2,s0
    1b40:	08800593          	li	a1,136
    1b44:	06000513          	li	a0,96
    1b48:	879ff0ef          	jal	ra,13c0 <display_char16_16>
C:\Users\admin\OneDrive - stu.cdu.edu.cn\2024FPGA\fpga_pds_project\cpu\picorv32+dds+osp+logic_alz_underclocking\software\HBird-workspace\pico_spi\Debug/../src/main.c:107
							clear_flag = 2;
    1b4c:	4689                	li	a3,2
    1b4e:	b449                	j	15d0 <main+0x76>
C:\Users\admin\OneDrive - stu.cdu.edu.cn\2024FPGA\fpga_pds_project\cpu\picorv32+dds+osp+logic_alz_underclocking\software\HBird-workspace\pico_spi\Debug/../src/main.c:380
						}
						break;
				}
				break;
			case 3://DDS
				if(clear_flag != 6){
    1b50:	4799                	li	a5,6
    1b52:	a6f68fe3          	beq	a3,a5,15d0 <main+0x76>
C:\Users\admin\OneDrive - stu.cdu.edu.cn\2024FPGA\fpga_pds_project\cpu\picorv32+dds+osp+logic_alz_underclocking\software\HBird-workspace\pico_spi\Debug/../src/main.c:381
					TFT_full(WHITE);
    1b56:	8552                	mv	a0,s4
    1b58:	e72ff0ef          	jal	ra,11ca <TFT_full>
C:\Users\admin\OneDrive - stu.cdu.edu.cn\2024FPGA\fpga_pds_project\cpu\picorv32+dds+osp+logic_alz_underclocking\software\HBird-workspace\pico_spi\Debug/../src/main.c:383
					//DDS
					display_char16_16(80+16*0,200-16*0 ,RED,16);
    1b5c:	46c1                	li	a3,16
    1b5e:	8622                	mv	a2,s0
    1b60:	0c800593          	li	a1,200
    1b64:	05000513          	li	a0,80
    1b68:	859ff0ef          	jal	ra,13c0 <display_char16_16>
C:\Users\admin\OneDrive - stu.cdu.edu.cn\2024FPGA\fpga_pds_project\cpu\picorv32+dds+osp+logic_alz_underclocking\software\HBird-workspace\pico_spi\Debug/../src/main.c:384
					display_char16_16(80+16*0,200-16*1 ,RED,17);
    1b6c:	46c5                	li	a3,17
    1b6e:	8622                	mv	a2,s0
    1b70:	0b800593          	li	a1,184
    1b74:	05000513          	li	a0,80
    1b78:	849ff0ef          	jal	ra,13c0 <display_char16_16>
C:\Users\admin\OneDrive - stu.cdu.edu.cn\2024FPGA\fpga_pds_project\cpu\picorv32+dds+osp+logic_alz_underclocking\software\HBird-workspace\pico_spi\Debug/../src/main.c:385
					display_char16_16(80+16*0,200-16*2 ,RED,18);
    1b7c:	46c9                	li	a3,18
    1b7e:	8622                	mv	a2,s0
    1b80:	0a800593          	li	a1,168
    1b84:	05000513          	li	a0,80
    1b88:	839ff0ef          	jal	ra,13c0 <display_char16_16>
C:\Users\admin\OneDrive - stu.cdu.edu.cn\2024FPGA\fpga_pds_project\cpu\picorv32+dds+osp+logic_alz_underclocking\software\HBird-workspace\pico_spi\Debug/../src/main.c:386
					display_char16_16(80+16*0,200-16*3 ,RED,19);
    1b8c:	46cd                	li	a3,19
    1b8e:	8622                	mv	a2,s0
    1b90:	09800593          	li	a1,152
    1b94:	05000513          	li	a0,80
    1b98:	829ff0ef          	jal	ra,13c0 <display_char16_16>
C:\Users\admin\OneDrive - stu.cdu.edu.cn\2024FPGA\fpga_pds_project\cpu\picorv32+dds+osp+logic_alz_underclocking\software\HBird-workspace\pico_spi\Debug/../src/main.c:387
					display_char16_16(80+16*0,200-16*4 ,RED,20);
    1b9c:	46d1                	li	a3,20
    1b9e:	8622                	mv	a2,s0
    1ba0:	08800593          	li	a1,136
    1ba4:	05000513          	li	a0,80
    1ba8:	819ff0ef          	jal	ra,13c0 <display_char16_16>
C:\Users\admin\OneDrive - stu.cdu.edu.cn\2024FPGA\fpga_pds_project\cpu\picorv32+dds+osp+logic_alz_underclocking\software\HBird-workspace\pico_spi\Debug/../src/main.c:389
					//3
					display_char16_16(80+16*1,200-16*0 ,RED,21);
    1bac:	46d5                	li	a3,21
    1bae:	8622                	mv	a2,s0
    1bb0:	0c800593          	li	a1,200
    1bb4:	06000513          	li	a0,96
    1bb8:	809ff0ef          	jal	ra,13c0 <display_char16_16>
C:\Users\admin\OneDrive - stu.cdu.edu.cn\2024FPGA\fpga_pds_project\cpu\picorv32+dds+osp+logic_alz_underclocking\software\HBird-workspace\pico_spi\Debug/../src/main.c:390
					display_char16_16(80+16*1,200-16*1 ,RED,22);
    1bbc:	46d9                	li	a3,22
    1bbe:	8622                	mv	a2,s0
    1bc0:	0b800593          	li	a1,184
    1bc4:	06000513          	li	a0,96
    1bc8:	ff8ff0ef          	jal	ra,13c0 <display_char16_16>
C:\Users\admin\OneDrive - stu.cdu.edu.cn\2024FPGA\fpga_pds_project\cpu\picorv32+dds+osp+logic_alz_underclocking\software\HBird-workspace\pico_spi\Debug/../src/main.c:391
					display_char16_16(80+16*1,200-16*2 ,RED,27);
    1bcc:	46ed                	li	a3,27
    1bce:	8622                	mv	a2,s0
    1bd0:	0a800593          	li	a1,168
    1bd4:	06000513          	li	a0,96
    1bd8:	fe8ff0ef          	jal	ra,13c0 <display_char16_16>
C:\Users\admin\OneDrive - stu.cdu.edu.cn\2024FPGA\fpga_pds_project\cpu\picorv32+dds+osp+logic_alz_underclocking\software\HBird-workspace\pico_spi\Debug/../src/main.c:392
					display_char16_16(80+16*1,200-16*3 ,RED,23);//:
    1bdc:	46dd                	li	a3,23
    1bde:	8622                	mv	a2,s0
    1be0:	09800593          	li	a1,152
    1be4:	06000513          	li	a0,96
    1be8:	fd8ff0ef          	jal	ra,13c0 <display_char16_16>
C:\Users\admin\OneDrive - stu.cdu.edu.cn\2024FPGA\fpga_pds_project\cpu\picorv32+dds+osp+logic_alz_underclocking\software\HBird-workspace\pico_spi\Debug/../src/main.c:393
					display_char16_16(80+16*1,200-16*4 ,RED,77);
    1bec:	04d00693          	li	a3,77
    1bf0:	8622                	mv	a2,s0
    1bf2:	08800593          	li	a1,136
    1bf6:	06000513          	li	a0,96
    1bfa:	fc6ff0ef          	jal	ra,13c0 <display_char16_16>
C:\Users\admin\OneDrive - stu.cdu.edu.cn\2024FPGA\fpga_pds_project\cpu\picorv32+dds+osp+logic_alz_underclocking\software\HBird-workspace\pico_spi\Debug/../src/main.c:394
					display_char16_16(80+16*1,200-16*5 ,RED,78);
    1bfe:	04e00693          	li	a3,78
    1c02:	8622                	mv	a2,s0
    1c04:	07800593          	li	a1,120
    1c08:	06000513          	li	a0,96
    1c0c:	fb4ff0ef          	jal	ra,13c0 <display_char16_16>
C:\Users\admin\OneDrive - stu.cdu.edu.cn\2024FPGA\fpga_pds_project\cpu\picorv32+dds+osp+logic_alz_underclocking\software\HBird-workspace\pico_spi\Debug/../src/main.c:395
					display_char16_16(80+16*1,200-16*6 ,RED,68);
    1c10:	04400693          	li	a3,68
    1c14:	8622                	mv	a2,s0
    1c16:	06800593          	li	a1,104
    1c1a:	06000513          	li	a0,96
    1c1e:	fa2ff0ef          	jal	ra,13c0 <display_char16_16>
C:\Users\admin\OneDrive - stu.cdu.edu.cn\2024FPGA\fpga_pds_project\cpu\picorv32+dds+osp+logic_alz_underclocking\software\HBird-workspace\pico_spi\Debug/../src/main.c:396
					display_char16_16(80+16*1,200-16*7 ,RED,79);
    1c22:	04f00693          	li	a3,79
    1c26:	8622                	mv	a2,s0
    1c28:	05800593          	li	a1,88
    1c2c:	06000513          	li	a0,96
    1c30:	f90ff0ef          	jal	ra,13c0 <display_char16_16>
C:\Users\admin\OneDrive - stu.cdu.edu.cn\2024FPGA\fpga_pds_project\cpu\picorv32+dds+osp+logic_alz_underclocking\software\HBird-workspace\pico_spi\Debug/../src/main.c:398
					//4
					display_char16_16(80+16*2,200-16*0 ,RED,21);
    1c34:	46d5                	li	a3,21
    1c36:	8622                	mv	a2,s0
    1c38:	0c800593          	li	a1,200
    1c3c:	07000513          	li	a0,112
    1c40:	f80ff0ef          	jal	ra,13c0 <display_char16_16>
C:\Users\admin\OneDrive - stu.cdu.edu.cn\2024FPGA\fpga_pds_project\cpu\picorv32+dds+osp+logic_alz_underclocking\software\HBird-workspace\pico_spi\Debug/../src/main.c:399
					display_char16_16(80+16*2,200-16*1 ,RED,22);
    1c44:	46d9                	li	a3,22
    1c46:	8622                	mv	a2,s0
    1c48:	0b800593          	li	a1,184
    1c4c:	07000513          	li	a0,112
    1c50:	f70ff0ef          	jal	ra,13c0 <display_char16_16>
C:\Users\admin\OneDrive - stu.cdu.edu.cn\2024FPGA\fpga_pds_project\cpu\picorv32+dds+osp+logic_alz_underclocking\software\HBird-workspace\pico_spi\Debug/../src/main.c:400
					display_char16_16(80+16*2,200-16*2 ,RED,28);
    1c54:	46f1                	li	a3,28
    1c56:	8622                	mv	a2,s0
    1c58:	0a800593          	li	a1,168
    1c5c:	07000513          	li	a0,112
    1c60:	f60ff0ef          	jal	ra,13c0 <display_char16_16>
C:\Users\admin\OneDrive - stu.cdu.edu.cn\2024FPGA\fpga_pds_project\cpu\picorv32+dds+osp+logic_alz_underclocking\software\HBird-workspace\pico_spi\Debug/../src/main.c:401
					display_char16_16(80+16*2,200-16*3 ,RED,23);//:
    1c64:	46dd                	li	a3,23
    1c66:	8622                	mv	a2,s0
    1c68:	09800593          	li	a1,152
    1c6c:	07000513          	li	a0,112
    1c70:	f50ff0ef          	jal	ra,13c0 <display_char16_16>
C:\Users\admin\OneDrive - stu.cdu.edu.cn\2024FPGA\fpga_pds_project\cpu\picorv32+dds+osp+logic_alz_underclocking\software\HBird-workspace\pico_spi\Debug/../src/main.c:402
					display_char16_16(80+16*2,200-16*4 ,RED,77);
    1c74:	04d00693          	li	a3,77
    1c78:	8622                	mv	a2,s0
    1c7a:	08800593          	li	a1,136
    1c7e:	07000513          	li	a0,112
    1c82:	f3eff0ef          	jal	ra,13c0 <display_char16_16>
C:\Users\admin\OneDrive - stu.cdu.edu.cn\2024FPGA\fpga_pds_project\cpu\picorv32+dds+osp+logic_alz_underclocking\software\HBird-workspace\pico_spi\Debug/../src/main.c:403
					display_char16_16(80+16*2,200-16*5 ,RED,78);
    1c86:	04e00693          	li	a3,78
    1c8a:	8622                	mv	a2,s0
    1c8c:	07800593          	li	a1,120
    1c90:	07000513          	li	a0,112
    1c94:	f2cff0ef          	jal	ra,13c0 <display_char16_16>
C:\Users\admin\OneDrive - stu.cdu.edu.cn\2024FPGA\fpga_pds_project\cpu\picorv32+dds+osp+logic_alz_underclocking\software\HBird-workspace\pico_spi\Debug/../src/main.c:404
					display_char16_16(80+16*2,200-16*6 ,RED,42);
    1c98:	02a00693          	li	a3,42
    1c9c:	8622                	mv	a2,s0
    1c9e:	06800593          	li	a1,104
    1ca2:	07000513          	li	a0,112
    1ca6:	f1aff0ef          	jal	ra,13c0 <display_char16_16>
C:\Users\admin\OneDrive - stu.cdu.edu.cn\2024FPGA\fpga_pds_project\cpu\picorv32+dds+osp+logic_alz_underclocking\software\HBird-workspace\pico_spi\Debug/../src/main.c:405
					display_char16_16(80+16*2,200-16*7 ,RED,43);
    1caa:	02b00693          	li	a3,43
    1cae:	8622                	mv	a2,s0
    1cb0:	05800593          	li	a1,88
    1cb4:	07000513          	li	a0,112
    1cb8:	f08ff0ef          	jal	ra,13c0 <display_char16_16>
C:\Users\admin\OneDrive - stu.cdu.edu.cn\2024FPGA\fpga_pds_project\cpu\picorv32+dds+osp+logic_alz_underclocking\software\HBird-workspace\pico_spi\Debug/../src/main.c:407
					//5
					display_char16_16(80+16*3,200-16*0 ,RED,21);
    1cbc:	46d5                	li	a3,21
    1cbe:	8622                	mv	a2,s0
    1cc0:	0c800593          	li	a1,200
    1cc4:	08000513          	li	a0,128
    1cc8:	ef8ff0ef          	jal	ra,13c0 <display_char16_16>
C:\Users\admin\OneDrive - stu.cdu.edu.cn\2024FPGA\fpga_pds_project\cpu\picorv32+dds+osp+logic_alz_underclocking\software\HBird-workspace\pico_spi\Debug/../src/main.c:408
					display_char16_16(80+16*3,200-16*1 ,RED,22);
    1ccc:	46d9                	li	a3,22
    1cce:	8622                	mv	a2,s0
    1cd0:	0b800593          	li	a1,184
    1cd4:	08000513          	li	a0,128
    1cd8:	ee8ff0ef          	jal	ra,13c0 <display_char16_16>
C:\Users\admin\OneDrive - stu.cdu.edu.cn\2024FPGA\fpga_pds_project\cpu\picorv32+dds+osp+logic_alz_underclocking\software\HBird-workspace\pico_spi\Debug/../src/main.c:409
					display_char16_16(80+16*3,200-16*2 ,RED,29);
    1cdc:	46f5                	li	a3,29
    1cde:	8622                	mv	a2,s0
    1ce0:	0a800593          	li	a1,168
    1ce4:	08000513          	li	a0,128
    1ce8:	ed8ff0ef          	jal	ra,13c0 <display_char16_16>
C:\Users\admin\OneDrive - stu.cdu.edu.cn\2024FPGA\fpga_pds_project\cpu\picorv32+dds+osp+logic_alz_underclocking\software\HBird-workspace\pico_spi\Debug/../src/main.c:410
					display_char16_16(80+16*3,200-16*3 ,RED,23);//:
    1cec:	46dd                	li	a3,23
    1cee:	8622                	mv	a2,s0
    1cf0:	09800593          	li	a1,152
    1cf4:	08000513          	li	a0,128
    1cf8:	ec8ff0ef          	jal	ra,13c0 <display_char16_16>
C:\Users\admin\OneDrive - stu.cdu.edu.cn\2024FPGA\fpga_pds_project\cpu\picorv32+dds+osp+logic_alz_underclocking\software\HBird-workspace\pico_spi\Debug/../src/main.c:411
					display_char16_16(80+16*3,200-16*4 ,RED,77);
    1cfc:	04d00693          	li	a3,77
    1d00:	8622                	mv	a2,s0
    1d02:	08800593          	li	a1,136
    1d06:	08000513          	li	a0,128
    1d0a:	eb6ff0ef          	jal	ra,13c0 <display_char16_16>
C:\Users\admin\OneDrive - stu.cdu.edu.cn\2024FPGA\fpga_pds_project\cpu\picorv32+dds+osp+logic_alz_underclocking\software\HBird-workspace\pico_spi\Debug/../src/main.c:412
					display_char16_16(80+16*3,200-16*5 ,RED,78);
    1d0e:	04e00693          	li	a3,78
    1d12:	8622                	mv	a2,s0
    1d14:	07800593          	li	a1,120
    1d18:	08000513          	li	a0,128
    1d1c:	ea4ff0ef          	jal	ra,13c0 <display_char16_16>
C:\Users\admin\OneDrive - stu.cdu.edu.cn\2024FPGA\fpga_pds_project\cpu\picorv32+dds+osp+logic_alz_underclocking\software\HBird-workspace\pico_spi\Debug/../src/main.c:413
					display_char16_16(80+16*3,200-16*6 ,RED,40);
    1d20:	02800693          	li	a3,40
    1d24:	8622                	mv	a2,s0
    1d26:	06800593          	li	a1,104
    1d2a:	08000513          	li	a0,128
    1d2e:	e92ff0ef          	jal	ra,13c0 <display_char16_16>
C:\Users\admin\OneDrive - stu.cdu.edu.cn\2024FPGA\fpga_pds_project\cpu\picorv32+dds+osp+logic_alz_underclocking\software\HBird-workspace\pico_spi\Debug/../src/main.c:414
					display_char16_16(80+16*3,200-16*7 ,RED,41);
    1d32:	02900693          	li	a3,41
    1d36:	8622                	mv	a2,s0
    1d38:	05800593          	li	a1,88
    1d3c:	08000513          	li	a0,128
    1d40:	e80ff0ef          	jal	ra,13c0 <display_char16_16>
C:\Users\admin\OneDrive - stu.cdu.edu.cn\2024FPGA\fpga_pds_project\cpu\picorv32+dds+osp+logic_alz_underclocking\software\HBird-workspace\pico_spi\Debug/../src/main.c:415
					clear_flag = 6;
    1d44:	4699                	li	a3,6
    1d46:	88bff06f          	j	15d0 <main+0x76>
C:\Users\admin\OneDrive - stu.cdu.edu.cn\2024FPGA\fpga_pds_project\cpu\picorv32+dds+osp+logic_alz_underclocking\software\HBird-workspace\pico_spi\Debug/../src/main.c:234
									display_char16_16(20+16*3,250-16*3 ,RED,50);
    1d4a:	8622                	mv	a2,s0
    1d4c:	03200693          	li	a3,50
    1d50:	0ca00593          	li	a1,202
    1d54:	04400513          	li	a0,68
    1d58:	e68ff0ef          	jal	ra,13c0 <display_char16_16>
C:\Users\admin\OneDrive - stu.cdu.edu.cn\2024FPGA\fpga_pds_project\cpu\picorv32+dds+osp+logic_alz_underclocking\software\HBird-workspace\pico_spi\Debug/../src/main.c:235
									display_char16_16(20+16*3,250-16*4 ,RED,52);
    1d5c:	8622                	mv	a2,s0
    1d5e:	03400693          	li	a3,52
    1d62:	0ba00593          	li	a1,186
    1d66:	04400513          	li	a0,68
    1d6a:	e56ff0ef          	jal	ra,13c0 <display_char16_16>
C:\Users\admin\OneDrive - stu.cdu.edu.cn\2024FPGA\fpga_pds_project\cpu\picorv32+dds+osp+logic_alz_underclocking\software\HBird-workspace\pico_spi\Debug/../src/main.c:236
									display_char16_16(20+16*3,250-16*5 ,RED,54);
    1d6e:	03600693          	li	a3,54
    1d72:	8622                	mv	a2,s0
    1d74:	0aa00593          	li	a1,170
    1d78:	04400513          	li	a0,68
    1d7c:	e44ff0ef          	jal	ra,13c0 <display_char16_16>
C:\Users\admin\OneDrive - stu.cdu.edu.cn\2024FPGA\fpga_pds_project\cpu\picorv32+dds+osp+logic_alz_underclocking\software\HBird-workspace\pico_spi\Debug/../src/main.c:245
							display_char16_16(20+16*5,250-16*0 ,RED,82);
    1d80:	05200693          	li	a3,82
    1d84:	8622                	mv	a2,s0
    1d86:	0fa00593          	li	a1,250
    1d8a:	06400513          	li	a0,100
    1d8e:	e32ff0ef          	jal	ra,13c0 <display_char16_16>
C:\Users\admin\OneDrive - stu.cdu.edu.cn\2024FPGA\fpga_pds_project\cpu\picorv32+dds+osp+logic_alz_underclocking\software\HBird-workspace\pico_spi\Debug/../src/main.c:246
							display_char16_16(20+16*5,250-16*1 ,RED,83);
    1d92:	05300693          	li	a3,83
    1d96:	8622                	mv	a2,s0
    1d98:	0ea00593          	li	a1,234
    1d9c:	06400513          	li	a0,100
    1da0:	e20ff0ef          	jal	ra,13c0 <display_char16_16>
C:\Users\admin\OneDrive - stu.cdu.edu.cn\2024FPGA\fpga_pds_project\cpu\picorv32+dds+osp+logic_alz_underclocking\software\HBird-workspace\pico_spi\Debug/../src/main.c:247
							display_char16_16(20+16*5,250-16*2 ,RED,23);//:
    1da4:	46dd                	li	a3,23
    1da6:	8622                	mv	a2,s0
    1da8:	0da00593          	li	a1,218
    1dac:	06400513          	li	a0,100
    1db0:	e10ff0ef          	jal	ra,13c0 <display_char16_16>
C:\Users\admin\OneDrive - stu.cdu.edu.cn\2024FPGA\fpga_pds_project\cpu\picorv32+dds+osp+logic_alz_underclocking\software\HBird-workspace\pico_spi\Debug/../src/main.c:248
							switch(LOGIC_TRIGGER_CHANNEL)
    1db4:	48bc                	lw	a5,80(s1)
    1db6:	471d                	li	a4,7
    1db8:	83c5                	srli	a5,a5,0x11
    1dba:	8bbd                	andi	a5,a5,15
    1dbc:	04f762e3          	bltu	a4,a5,2600 <main+0x10a6>
    1dc0:	078a                	slli	a5,a5,0x2
    1dc2:	97de                	add	a5,a5,s7
    1dc4:	439c                	lw	a5,0(a5)
C:\Users\admin\OneDrive - stu.cdu.edu.cn\2024FPGA\fpga_pds_project\cpu\picorv32+dds+osp+logic_alz_underclocking\software\HBird-workspace\pico_spi\Debug/../src/main.c:286
									display_char16_16(20+16*5,250-16*3 ,RED,55);
    1dc6:	03700693          	li	a3,55
    1dca:	8622                	mv	a2,s0
    1dcc:	0ca00593          	li	a1,202
    1dd0:	06400513          	li	a0,100
C:\Users\admin\OneDrive - stu.cdu.edu.cn\2024FPGA\fpga_pds_project\cpu\picorv32+dds+osp+logic_alz_underclocking\software\HBird-workspace\pico_spi\Debug/../src/main.c:248
							switch(LOGIC_TRIGGER_CHANNEL)
    1dd4:	8782                	jr	a5
C:\Users\admin\OneDrive - stu.cdu.edu.cn\2024FPGA\fpga_pds_project\cpu\picorv32+dds+osp+logic_alz_underclocking\software\HBird-workspace\pico_spi\Debug/../src/main.c:224
									display_char16_16(20+16*3,250-16*3 ,RED,50);
    1dd6:	8622                	mv	a2,s0
    1dd8:	03200693          	li	a3,50
    1ddc:	0ca00593          	li	a1,202
    1de0:	04400513          	li	a0,68
    1de4:	ddcff0ef          	jal	ra,13c0 <display_char16_16>
C:\Users\admin\OneDrive - stu.cdu.edu.cn\2024FPGA\fpga_pds_project\cpu\picorv32+dds+osp+logic_alz_underclocking\software\HBird-workspace\pico_spi\Debug/../src/main.c:225
									display_char16_16(20+16*3,250-16*4 ,RED,51);
    1de8:	8622                	mv	a2,s0
    1dea:	03300693          	li	a3,51
    1dee:	bf95                	j	1d62 <main+0x808>
C:\Users\admin\OneDrive - stu.cdu.edu.cn\2024FPGA\fpga_pds_project\cpu\picorv32+dds+osp+logic_alz_underclocking\software\HBird-workspace\pico_spi\Debug/../src/main.c:229
									display_char16_16(20+16*3,250-16*3 ,RED,52);
    1df0:	8622                	mv	a2,s0
    1df2:	03400693          	li	a3,52
    1df6:	0ca00593          	li	a1,202
    1dfa:	04400513          	li	a0,68
    1dfe:	dc2ff0ef          	jal	ra,13c0 <display_char16_16>
C:\Users\admin\OneDrive - stu.cdu.edu.cn\2024FPGA\fpga_pds_project\cpu\picorv32+dds+osp+logic_alz_underclocking\software\HBird-workspace\pico_spi\Debug/../src/main.c:230
									display_char16_16(20+16*3,250-16*4 ,RED,53);
    1e02:	8622                	mv	a2,s0
    1e04:	03500693          	li	a3,53
    1e08:	bfa9                	j	1d62 <main+0x808>
C:\Users\admin\OneDrive - stu.cdu.edu.cn\2024FPGA\fpga_pds_project\cpu\picorv32+dds+osp+logic_alz_underclocking\software\HBird-workspace\pico_spi\Debug/../src/main.c:214
									display_char16_16(20+16*3,250-16*3 ,RED,47);
    1e0a:	8622                	mv	a2,s0
    1e0c:	02f00693          	li	a3,47
C:\Users\admin\OneDrive - stu.cdu.edu.cn\2024FPGA\fpga_pds_project\cpu\picorv32+dds+osp+logic_alz_underclocking\software\HBird-workspace\pico_spi\Debug/../src/main.c:219
									display_char16_16(20+16*3,250-16*3 ,RED,46);
    1e10:	0ca00593          	li	a1,202
    1e14:	04400513          	li	a0,68
    1e18:	da8ff0ef          	jal	ra,13c0 <display_char16_16>
C:\Users\admin\OneDrive - stu.cdu.edu.cn\2024FPGA\fpga_pds_project\cpu\picorv32+dds+osp+logic_alz_underclocking\software\HBird-workspace\pico_spi\Debug/../src/main.c:220
									display_char16_16(20+16*3,250-16*4 ,RED,48);
    1e1c:	8622                	mv	a2,s0
    1e1e:	03000693          	li	a3,48
    1e22:	0ba00593          	li	a1,186
    1e26:	04400513          	li	a0,68
    1e2a:	d96ff0ef          	jal	ra,13c0 <display_char16_16>
C:\Users\admin\OneDrive - stu.cdu.edu.cn\2024FPGA\fpga_pds_project\cpu\picorv32+dds+osp+logic_alz_underclocking\software\HBird-workspace\pico_spi\Debug/../src/main.c:221
									display_char16_16(20+16*3,250-16*5 ,RED,49);
    1e2e:	03100693          	li	a3,49
    1e32:	8622                	mv	a2,s0
    1e34:	0aa00593          	li	a1,170
    1e38:	04400513          	li	a0,68
    1e3c:	d84ff0ef          	jal	ra,13c0 <display_char16_16>
C:\Users\admin\OneDrive - stu.cdu.edu.cn\2024FPGA\fpga_pds_project\cpu\picorv32+dds+osp+logic_alz_underclocking\software\HBird-workspace\pico_spi\Debug/../src/main.c:222
									break;
    1e40:	b781                	j	1d80 <main+0x826>
C:\Users\admin\OneDrive - stu.cdu.edu.cn\2024FPGA\fpga_pds_project\cpu\picorv32+dds+osp+logic_alz_underclocking\software\HBird-workspace\pico_spi\Debug/../src/main.c:239
									display_char16_16(20+16*3,250-16*3 ,RED,80);
    1e42:	8622                	mv	a2,s0
    1e44:	05000693          	li	a3,80
    1e48:	0ca00593          	li	a1,202
    1e4c:	04400513          	li	a0,68
    1e50:	d70ff0ef          	jal	ra,13c0 <display_char16_16>
C:\Users\admin\OneDrive - stu.cdu.edu.cn\2024FPGA\fpga_pds_project\cpu\picorv32+dds+osp+logic_alz_underclocking\software\HBird-workspace\pico_spi\Debug/../src/main.c:240
									display_char16_16(20+16*3,250-16*4 ,RED,81);
    1e54:	8622                	mv	a2,s0
    1e56:	05100693          	li	a3,81
    1e5a:	0ba00593          	li	a1,186
    1e5e:	04400513          	li	a0,68
    1e62:	d5eff0ef          	jal	ra,13c0 <display_char16_16>
C:\Users\admin\OneDrive - stu.cdu.edu.cn\2024FPGA\fpga_pds_project\cpu\picorv32+dds+osp+logic_alz_underclocking\software\HBird-workspace\pico_spi\Debug/../src/main.c:241
									display_char16_16(20+16*3,250-16*5 ,RED,44);
    1e66:	02c00693          	li	a3,44
    1e6a:	8622                	mv	a2,s0
    1e6c:	0aa00593          	li	a1,170
    1e70:	04400513          	li	a0,68
    1e74:	d4cff0ef          	jal	ra,13c0 <display_char16_16>
C:\Users\admin\OneDrive - stu.cdu.edu.cn\2024FPGA\fpga_pds_project\cpu\picorv32+dds+osp+logic_alz_underclocking\software\HBird-workspace\pico_spi\Debug/../src/main.c:242
									break;
    1e78:	b721                	j	1d80 <main+0x826>
C:\Users\admin\OneDrive - stu.cdu.edu.cn\2024FPGA\fpga_pds_project\cpu\picorv32+dds+osp+logic_alz_underclocking\software\HBird-workspace\pico_spi\Debug/../src/main.c:219
									display_char16_16(20+16*3,250-16*3 ,RED,46);
    1e7a:	8622                	mv	a2,s0
    1e7c:	02e00693          	li	a3,46
    1e80:	bf41                	j	1e10 <main+0x8b6>
C:\Users\admin\OneDrive - stu.cdu.edu.cn\2024FPGA\fpga_pds_project\cpu\picorv32+dds+osp+logic_alz_underclocking\software\HBird-workspace\pico_spi\Debug/../src/main.c:281
									display_char16_16(20+16*5,250-16*3 ,RED,55);
    1e82:	d3eff0ef          	jal	ra,13c0 <display_char16_16>
C:\Users\admin\OneDrive - stu.cdu.edu.cn\2024FPGA\fpga_pds_project\cpu\picorv32+dds+osp+logic_alz_underclocking\software\HBird-workspace\pico_spi\Debug/../src/main.c:282
									display_char16_16(20+16*5,250-16*4 ,RED,56);
    1e86:	03800693          	li	a3,56
    1e8a:	8622                	mv	a2,s0
    1e8c:	0ba00593          	li	a1,186
    1e90:	06400513          	li	a0,100
    1e94:	d2cff0ef          	jal	ra,13c0 <display_char16_16>
C:\Users\admin\OneDrive - stu.cdu.edu.cn\2024FPGA\fpga_pds_project\cpu\picorv32+dds+osp+logic_alz_underclocking\software\HBird-workspace\pico_spi\Debug/../src/main.c:283
									display_char16_16(20+16*5,250-16*5 ,RED,31);
    1e98:	46fd                	li	a3,31
C:\Users\admin\OneDrive - stu.cdu.edu.cn\2024FPGA\fpga_pds_project\cpu\picorv32+dds+osp+logic_alz_underclocking\software\HBird-workspace\pico_spi\Debug/../src/main.c:258
									display_char16_16(20+16*5,250-16*5 ,RED,26);
    1e9a:	8622                	mv	a2,s0
    1e9c:	0aa00593          	li	a1,170
    1ea0:	06400513          	li	a0,100
    1ea4:	d1cff0ef          	jal	ra,13c0 <display_char16_16>
C:\Users\admin\OneDrive - stu.cdu.edu.cn\2024FPGA\fpga_pds_project\cpu\picorv32+dds+osp+logic_alz_underclocking\software\HBird-workspace\pico_spi\Debug/../src/main.c:259
									break;
    1ea8:	4691                	li	a3,4
    1eaa:	f26ff06f          	j	15d0 <main+0x76>
C:\Users\admin\OneDrive - stu.cdu.edu.cn\2024FPGA\fpga_pds_project\cpu\picorv32+dds+osp+logic_alz_underclocking\software\HBird-workspace\pico_spi\Debug/../src/main.c:276
									display_char16_16(20+16*5,250-16*3 ,RED,55);
    1eae:	d12ff0ef          	jal	ra,13c0 <display_char16_16>
C:\Users\admin\OneDrive - stu.cdu.edu.cn\2024FPGA\fpga_pds_project\cpu\picorv32+dds+osp+logic_alz_underclocking\software\HBird-workspace\pico_spi\Debug/../src/main.c:277
									display_char16_16(20+16*5,250-16*4 ,RED,56);
    1eb2:	03800693          	li	a3,56
    1eb6:	8622                	mv	a2,s0
    1eb8:	0ba00593          	li	a1,186
    1ebc:	06400513          	li	a0,100
    1ec0:	d00ff0ef          	jal	ra,13c0 <display_char16_16>
C:\Users\admin\OneDrive - stu.cdu.edu.cn\2024FPGA\fpga_pds_project\cpu\picorv32+dds+osp+logic_alz_underclocking\software\HBird-workspace\pico_spi\Debug/../src/main.c:278
									display_char16_16(20+16*5,250-16*5 ,RED,30);
    1ec4:	46f9                	li	a3,30
    1ec6:	bfd1                	j	1e9a <main+0x940>
C:\Users\admin\OneDrive - stu.cdu.edu.cn\2024FPGA\fpga_pds_project\cpu\picorv32+dds+osp+logic_alz_underclocking\software\HBird-workspace\pico_spi\Debug/../src/main.c:271
									display_char16_16(20+16*5,250-16*3 ,RED,55);
    1ec8:	cf8ff0ef          	jal	ra,13c0 <display_char16_16>
C:\Users\admin\OneDrive - stu.cdu.edu.cn\2024FPGA\fpga_pds_project\cpu\picorv32+dds+osp+logic_alz_underclocking\software\HBird-workspace\pico_spi\Debug/../src/main.c:272
									display_char16_16(20+16*5,250-16*4 ,RED,56);
    1ecc:	03800693          	li	a3,56
    1ed0:	8622                	mv	a2,s0
    1ed2:	0ba00593          	li	a1,186
    1ed6:	06400513          	li	a0,100
    1eda:	ce6ff0ef          	jal	ra,13c0 <display_char16_16>
C:\Users\admin\OneDrive - stu.cdu.edu.cn\2024FPGA\fpga_pds_project\cpu\picorv32+dds+osp+logic_alz_underclocking\software\HBird-workspace\pico_spi\Debug/../src/main.c:273
									display_char16_16(20+16*5,250-16*5 ,RED,29);
    1ede:	46f5                	li	a3,29
    1ee0:	bf6d                	j	1e9a <main+0x940>
C:\Users\admin\OneDrive - stu.cdu.edu.cn\2024FPGA\fpga_pds_project\cpu\picorv32+dds+osp+logic_alz_underclocking\software\HBird-workspace\pico_spi\Debug/../src/main.c:266
									display_char16_16(20+16*5,250-16*3 ,RED,55);
    1ee2:	cdeff0ef          	jal	ra,13c0 <display_char16_16>
C:\Users\admin\OneDrive - stu.cdu.edu.cn\2024FPGA\fpga_pds_project\cpu\picorv32+dds+osp+logic_alz_underclocking\software\HBird-workspace\pico_spi\Debug/../src/main.c:267
									display_char16_16(20+16*5,250-16*4 ,RED,56);
    1ee6:	03800693          	li	a3,56
    1eea:	8622                	mv	a2,s0
    1eec:	0ba00593          	li	a1,186
    1ef0:	06400513          	li	a0,100
    1ef4:	cccff0ef          	jal	ra,13c0 <display_char16_16>
C:\Users\admin\OneDrive - stu.cdu.edu.cn\2024FPGA\fpga_pds_project\cpu\picorv32+dds+osp+logic_alz_underclocking\software\HBird-workspace\pico_spi\Debug/../src/main.c:268
									display_char16_16(20+16*5,250-16*5 ,RED,28);
    1ef8:	46f1                	li	a3,28
    1efa:	b745                	j	1e9a <main+0x940>
C:\Users\admin\OneDrive - stu.cdu.edu.cn\2024FPGA\fpga_pds_project\cpu\picorv32+dds+osp+logic_alz_underclocking\software\HBird-workspace\pico_spi\Debug/../src/main.c:261
									display_char16_16(20+16*5,250-16*3 ,RED,55);
    1efc:	cc4ff0ef          	jal	ra,13c0 <display_char16_16>
C:\Users\admin\OneDrive - stu.cdu.edu.cn\2024FPGA\fpga_pds_project\cpu\picorv32+dds+osp+logic_alz_underclocking\software\HBird-workspace\pico_spi\Debug/../src/main.c:262
									display_char16_16(20+16*5,250-16*4 ,RED,56);
    1f00:	03800693          	li	a3,56
    1f04:	8622                	mv	a2,s0
    1f06:	0ba00593          	li	a1,186
    1f0a:	06400513          	li	a0,100
    1f0e:	cb2ff0ef          	jal	ra,13c0 <display_char16_16>
C:\Users\admin\OneDrive - stu.cdu.edu.cn\2024FPGA\fpga_pds_project\cpu\picorv32+dds+osp+logic_alz_underclocking\software\HBird-workspace\pico_spi\Debug/../src/main.c:263
									display_char16_16(20+16*5,250-16*5 ,RED,27);
    1f12:	46ed                	li	a3,27
    1f14:	b759                	j	1e9a <main+0x940>
C:\Users\admin\OneDrive - stu.cdu.edu.cn\2024FPGA\fpga_pds_project\cpu\picorv32+dds+osp+logic_alz_underclocking\software\HBird-workspace\pico_spi\Debug/../src/main.c:256
									display_char16_16(20+16*5,250-16*3 ,RED,55);
    1f16:	caaff0ef          	jal	ra,13c0 <display_char16_16>
C:\Users\admin\OneDrive - stu.cdu.edu.cn\2024FPGA\fpga_pds_project\cpu\picorv32+dds+osp+logic_alz_underclocking\software\HBird-workspace\pico_spi\Debug/../src/main.c:257
									display_char16_16(20+16*5,250-16*4 ,RED,56);
    1f1a:	03800693          	li	a3,56
    1f1e:	8622                	mv	a2,s0
    1f20:	0ba00593          	li	a1,186
    1f24:	06400513          	li	a0,100
    1f28:	c98ff0ef          	jal	ra,13c0 <display_char16_16>
C:\Users\admin\OneDrive - stu.cdu.edu.cn\2024FPGA\fpga_pds_project\cpu\picorv32+dds+osp+logic_alz_underclocking\software\HBird-workspace\pico_spi\Debug/../src/main.c:258
									display_char16_16(20+16*5,250-16*5 ,RED,26);
    1f2c:	46e9                	li	a3,26
    1f2e:	b7b5                	j	1e9a <main+0x940>
C:\Users\admin\OneDrive - stu.cdu.edu.cn\2024FPGA\fpga_pds_project\cpu\picorv32+dds+osp+logic_alz_underclocking\software\HBird-workspace\pico_spi\Debug/../src/main.c:251
									display_char16_16(20+16*5,250-16*3 ,RED,55);
    1f30:	c90ff0ef          	jal	ra,13c0 <display_char16_16>
C:\Users\admin\OneDrive - stu.cdu.edu.cn\2024FPGA\fpga_pds_project\cpu\picorv32+dds+osp+logic_alz_underclocking\software\HBird-workspace\pico_spi\Debug/../src/main.c:252
									display_char16_16(20+16*5,250-16*4 ,RED,56);
    1f34:	03800693          	li	a3,56
    1f38:	8622                	mv	a2,s0
    1f3a:	0ba00593          	li	a1,186
    1f3e:	06400513          	li	a0,100
    1f42:	c7eff0ef          	jal	ra,13c0 <display_char16_16>
C:\Users\admin\OneDrive - stu.cdu.edu.cn\2024FPGA\fpga_pds_project\cpu\picorv32+dds+osp+logic_alz_underclocking\software\HBird-workspace\pico_spi\Debug/../src/main.c:253
									display_char16_16(20+16*5,250-16*5 ,RED,25);
    1f46:	46e5                	li	a3,25
    1f48:	bf89                	j	1e9a <main+0x940>
C:\Users\admin\OneDrive - stu.cdu.edu.cn\2024FPGA\fpga_pds_project\cpu\picorv32+dds+osp+logic_alz_underclocking\software\HBird-workspace\pico_spi\Debug/../src/main.c:286
									display_char16_16(20+16*5,250-16*3 ,RED,55);
    1f4a:	c76ff0ef          	jal	ra,13c0 <display_char16_16>
C:\Users\admin\OneDrive - stu.cdu.edu.cn\2024FPGA\fpga_pds_project\cpu\picorv32+dds+osp+logic_alz_underclocking\software\HBird-workspace\pico_spi\Debug/../src/main.c:287
									display_char16_16(20+16*5,250-16*4 ,RED,56);
    1f4e:	03800693          	li	a3,56
    1f52:	8622                	mv	a2,s0
    1f54:	0ba00593          	li	a1,186
    1f58:	06400513          	li	a0,100
    1f5c:	c64ff0ef          	jal	ra,13c0 <display_char16_16>
C:\Users\admin\OneDrive - stu.cdu.edu.cn\2024FPGA\fpga_pds_project\cpu\picorv32+dds+osp+logic_alz_underclocking\software\HBird-workspace\pico_spi\Debug/../src/main.c:288
									display_char16_16(20+16*5,250-16*5 ,RED,32);
    1f60:	02000693          	li	a3,32
    1f64:	bf1d                	j	1e9a <main+0x940>
C:\Users\admin\OneDrive - stu.cdu.edu.cn\2024FPGA\fpga_pds_project\cpu\picorv32+dds+osp+logic_alz_underclocking\software\HBird-workspace\pico_spi\Debug/../src/main.c:293
						if(clear_flag != 5){
    1f66:	e7568563          	beq	a3,s5,15d0 <main+0x76>
C:\Users\admin\OneDrive - stu.cdu.edu.cn\2024FPGA\fpga_pds_project\cpu\picorv32+dds+osp+logic_alz_underclocking\software\HBird-workspace\pico_spi\Debug/../src/main.c:294
							TFT_full(WHITE);
    1f6a:	8552                	mv	a0,s4
    1f6c:	a5eff0ef          	jal	ra,11ca <TFT_full>
C:\Users\admin\OneDrive - stu.cdu.edu.cn\2024FPGA\fpga_pds_project\cpu\picorv32+dds+osp+logic_alz_underclocking\software\HBird-workspace\pico_spi\Debug/../src/main.c:296
							display_char16_16(20+16*0,200-16*0 ,RED,11);
    1f70:	46ad                	li	a3,11
    1f72:	8622                	mv	a2,s0
    1f74:	0c800593          	li	a1,200
    1f78:	4551                	li	a0,20
    1f7a:	c46ff0ef          	jal	ra,13c0 <display_char16_16>
C:\Users\admin\OneDrive - stu.cdu.edu.cn\2024FPGA\fpga_pds_project\cpu\picorv32+dds+osp+logic_alz_underclocking\software\HBird-workspace\pico_spi\Debug/../src/main.c:297
							display_char16_16(20+16*0,200-16*1 ,RED,12);
    1f7e:	46b1                	li	a3,12
    1f80:	8622                	mv	a2,s0
    1f82:	0b800593          	li	a1,184
    1f86:	4551                	li	a0,20
    1f88:	c38ff0ef          	jal	ra,13c0 <display_char16_16>
C:\Users\admin\OneDrive - stu.cdu.edu.cn\2024FPGA\fpga_pds_project\cpu\picorv32+dds+osp+logic_alz_underclocking\software\HBird-workspace\pico_spi\Debug/../src/main.c:298
							display_char16_16(20+16*0,200-16*2 ,RED,13);
    1f8c:	46b5                	li	a3,13
    1f8e:	8622                	mv	a2,s0
    1f90:	0a800593          	li	a1,168
    1f94:	4551                	li	a0,20
    1f96:	c2aff0ef          	jal	ra,13c0 <display_char16_16>
C:\Users\admin\OneDrive - stu.cdu.edu.cn\2024FPGA\fpga_pds_project\cpu\picorv32+dds+osp+logic_alz_underclocking\software\HBird-workspace\pico_spi\Debug/../src/main.c:299
							display_char16_16(20+16*0,200-16*3 ,RED,14);
    1f9a:	46b9                	li	a3,14
    1f9c:	8622                	mv	a2,s0
    1f9e:	09800593          	li	a1,152
    1fa2:	4551                	li	a0,20
    1fa4:	c1cff0ef          	jal	ra,13c0 <display_char16_16>
C:\Users\admin\OneDrive - stu.cdu.edu.cn\2024FPGA\fpga_pds_project\cpu\picorv32+dds+osp+logic_alz_underclocking\software\HBird-workspace\pico_spi\Debug/../src/main.c:300
							display_char16_16(20+16*0,200-16*4 ,RED,15);
    1fa8:	46bd                	li	a3,15
    1faa:	8622                	mv	a2,s0
    1fac:	08800593          	li	a1,136
    1fb0:	4551                	li	a0,20
    1fb2:	c0eff0ef          	jal	ra,13c0 <display_char16_16>
C:\Users\admin\OneDrive - stu.cdu.edu.cn\2024FPGA\fpga_pds_project\cpu\picorv32+dds+osp+logic_alz_underclocking\software\HBird-workspace\pico_spi\Debug/../src/main.c:302
							display_char16_16(20+16*1,200-16*0 ,RED,21);
    1fb6:	46d5                	li	a3,21
    1fb8:	8622                	mv	a2,s0
    1fba:	0c800593          	li	a1,200
    1fbe:	02400513          	li	a0,36
    1fc2:	bfeff0ef          	jal	ra,13c0 <display_char16_16>
C:\Users\admin\OneDrive - stu.cdu.edu.cn\2024FPGA\fpga_pds_project\cpu\picorv32+dds+osp+logic_alz_underclocking\software\HBird-workspace\pico_spi\Debug/../src/main.c:303
							display_char16_16(20+16*1,200-16*1 ,RED,22);
    1fc6:	46d9                	li	a3,22
    1fc8:	8622                	mv	a2,s0
    1fca:	0b800593          	li	a1,184
    1fce:	02400513          	li	a0,36
    1fd2:	beeff0ef          	jal	ra,13c0 <display_char16_16>
C:\Users\admin\OneDrive - stu.cdu.edu.cn\2024FPGA\fpga_pds_project\cpu\picorv32+dds+osp+logic_alz_underclocking\software\HBird-workspace\pico_spi\Debug/../src/main.c:304
							display_char16_16(20+16*1,200-16*2 ,RED,27);
    1fd6:	46ed                	li	a3,27
    1fd8:	8622                	mv	a2,s0
    1fda:	0a800593          	li	a1,168
    1fde:	02400513          	li	a0,36
    1fe2:	bdeff0ef          	jal	ra,13c0 <display_char16_16>
C:\Users\admin\OneDrive - stu.cdu.edu.cn\2024FPGA\fpga_pds_project\cpu\picorv32+dds+osp+logic_alz_underclocking\software\HBird-workspace\pico_spi\Debug/../src/main.c:305
							display_char16_16(20+16*1,200-16*3 ,RED,23);//:
    1fe6:	46dd                	li	a3,23
    1fe8:	8622                	mv	a2,s0
    1fea:	09800593          	li	a1,152
    1fee:	02400513          	li	a0,36
    1ff2:	bceff0ef          	jal	ra,13c0 <display_char16_16>
C:\Users\admin\OneDrive - stu.cdu.edu.cn\2024FPGA\fpga_pds_project\cpu\picorv32+dds+osp+logic_alz_underclocking\software\HBird-workspace\pico_spi\Debug/../src/main.c:306
							display_char16_16(20+16*1,200-16*4 ,RED,35);
    1ff6:	02300693          	li	a3,35
    1ffa:	8622                	mv	a2,s0
    1ffc:	08800593          	li	a1,136
    2000:	02400513          	li	a0,36
    2004:	bbcff0ef          	jal	ra,13c0 <display_char16_16>
C:\Users\admin\OneDrive - stu.cdu.edu.cn\2024FPGA\fpga_pds_project\cpu\picorv32+dds+osp+logic_alz_underclocking\software\HBird-workspace\pico_spi\Debug/../src/main.c:307
							display_char16_16(20+16*1,200-16*5 ,RED,36);
    2008:	02400693          	li	a3,36
    200c:	8622                	mv	a2,s0
    200e:	07800593          	li	a1,120
    2012:	02400513          	li	a0,36
    2016:	baaff0ef          	jal	ra,13c0 <display_char16_16>
C:\Users\admin\OneDrive - stu.cdu.edu.cn\2024FPGA\fpga_pds_project\cpu\picorv32+dds+osp+logic_alz_underclocking\software\HBird-workspace\pico_spi\Debug/../src/main.c:308
							display_char16_16(20+16*1,200-16*6 ,RED,23);
    201a:	46dd                	li	a3,23
    201c:	8622                	mv	a2,s0
    201e:	06800593          	li	a1,104
    2022:	02400513          	li	a0,36
    2026:	b9aff0ef          	jal	ra,13c0 <display_char16_16>
C:\Users\admin\OneDrive - stu.cdu.edu.cn\2024FPGA\fpga_pds_project\cpu\picorv32+dds+osp+logic_alz_underclocking\software\HBird-workspace\pico_spi\Debug/../src/main.c:309
							display_char16_16(20+16*1,200-16*7 ,RED,37);
    202a:	02500693          	li	a3,37
    202e:	8622                	mv	a2,s0
    2030:	05800593          	li	a1,88
    2034:	02400513          	li	a0,36
    2038:	b88ff0ef          	jal	ra,13c0 <display_char16_16>
C:\Users\admin\OneDrive - stu.cdu.edu.cn\2024FPGA\fpga_pds_project\cpu\picorv32+dds+osp+logic_alz_underclocking\software\HBird-workspace\pico_spi\Debug/../src/main.c:310
							display_char16_16(20+16*1,200-16*8 ,RED,38);
    203c:	02600693          	li	a3,38
    2040:	8622                	mv	a2,s0
    2042:	04800593          	li	a1,72
    2046:	02400513          	li	a0,36
    204a:	b76ff0ef          	jal	ra,13c0 <display_char16_16>
C:\Users\admin\OneDrive - stu.cdu.edu.cn\2024FPGA\fpga_pds_project\cpu\picorv32+dds+osp+logic_alz_underclocking\software\HBird-workspace\pico_spi\Debug/../src/main.c:311
							display_char16_16(20+16*1,200-16*9 ,RED,39);
    204e:	02700693          	li	a3,39
    2052:	8622                	mv	a2,s0
    2054:	03800593          	li	a1,56
    2058:	02400513          	li	a0,36
    205c:	b64ff0ef          	jal	ra,13c0 <display_char16_16>
C:\Users\admin\OneDrive - stu.cdu.edu.cn\2024FPGA\fpga_pds_project\cpu\picorv32+dds+osp+logic_alz_underclocking\software\HBird-workspace\pico_spi\Debug/../src/main.c:313
							display_char16_16(20+16*2,200-16*0 ,RED,21);
    2060:	46d5                	li	a3,21
    2062:	8622                	mv	a2,s0
    2064:	0c800593          	li	a1,200
    2068:	03400513          	li	a0,52
    206c:	b54ff0ef          	jal	ra,13c0 <display_char16_16>
C:\Users\admin\OneDrive - stu.cdu.edu.cn\2024FPGA\fpga_pds_project\cpu\picorv32+dds+osp+logic_alz_underclocking\software\HBird-workspace\pico_spi\Debug/../src/main.c:314
							display_char16_16(20+16*2,200-16*1 ,RED,22);
    2070:	46d9                	li	a3,22
    2072:	8622                	mv	a2,s0
    2074:	0b800593          	li	a1,184
    2078:	03400513          	li	a0,52
    207c:	b44ff0ef          	jal	ra,13c0 <display_char16_16>
C:\Users\admin\OneDrive - stu.cdu.edu.cn\2024FPGA\fpga_pds_project\cpu\picorv32+dds+osp+logic_alz_underclocking\software\HBird-workspace\pico_spi\Debug/../src/main.c:315
							display_char16_16(20+16*2,200-16*2 ,RED,28);
    2080:	46f1                	li	a3,28
    2082:	8622                	mv	a2,s0
    2084:	0a800593          	li	a1,168
    2088:	03400513          	li	a0,52
    208c:	b34ff0ef          	jal	ra,13c0 <display_char16_16>
C:\Users\admin\OneDrive - stu.cdu.edu.cn\2024FPGA\fpga_pds_project\cpu\picorv32+dds+osp+logic_alz_underclocking\software\HBird-workspace\pico_spi\Debug/../src/main.c:316
							display_char16_16(20+16*2,200-16*3 ,RED,23);//:
    2090:	46dd                	li	a3,23
    2092:	8622                	mv	a2,s0
    2094:	09800593          	li	a1,152
    2098:	03400513          	li	a0,52
    209c:	b24ff0ef          	jal	ra,13c0 <display_char16_16>
C:\Users\admin\OneDrive - stu.cdu.edu.cn\2024FPGA\fpga_pds_project\cpu\picorv32+dds+osp+logic_alz_underclocking\software\HBird-workspace\pico_spi\Debug/../src/main.c:317
							display_char16_16(20+16*2,200-16*4 ,RED,44);
    20a0:	02c00693          	li	a3,44
    20a4:	8622                	mv	a2,s0
    20a6:	08800593          	li	a1,136
    20aa:	03400513          	li	a0,52
    20ae:	b12ff0ef          	jal	ra,13c0 <display_char16_16>
C:\Users\admin\OneDrive - stu.cdu.edu.cn\2024FPGA\fpga_pds_project\cpu\picorv32+dds+osp+logic_alz_underclocking\software\HBird-workspace\pico_spi\Debug/../src/main.c:318
							display_char16_16(20+16*2,200-16*5 ,RED,45);
    20b2:	02d00693          	li	a3,45
    20b6:	8622                	mv	a2,s0
    20b8:	07800593          	li	a1,120
    20bc:	03400513          	li	a0,52
    20c0:	b00ff0ef          	jal	ra,13c0 <display_char16_16>
C:\Users\admin\OneDrive - stu.cdu.edu.cn\2024FPGA\fpga_pds_project\cpu\picorv32+dds+osp+logic_alz_underclocking\software\HBird-workspace\pico_spi\Debug/../src/main.c:319
							display_char16_16(20+16*2,200-16*6 ,RED,75);
    20c4:	04b00693          	li	a3,75
    20c8:	8622                	mv	a2,s0
    20ca:	06800593          	li	a1,104
    20ce:	03400513          	li	a0,52
    20d2:	aeeff0ef          	jal	ra,13c0 <display_char16_16>
C:\Users\admin\OneDrive - stu.cdu.edu.cn\2024FPGA\fpga_pds_project\cpu\picorv32+dds+osp+logic_alz_underclocking\software\HBird-workspace\pico_spi\Debug/../src/main.c:320
							display_char16_16(20+16*2,200-16*7 ,RED,76);
    20d6:	04c00693          	li	a3,76
    20da:	8622                	mv	a2,s0
    20dc:	05800593          	li	a1,88
    20e0:	03400513          	li	a0,52
    20e4:	adcff0ef          	jal	ra,13c0 <display_char16_16>
C:\Users\admin\OneDrive - stu.cdu.edu.cn\2024FPGA\fpga_pds_project\cpu\picorv32+dds+osp+logic_alz_underclocking\software\HBird-workspace\pico_spi\Debug/../src/main.c:321
							display_char16_16(20+16*2,200-16*8 ,RED,77);
    20e8:	04d00693          	li	a3,77
    20ec:	8622                	mv	a2,s0
    20ee:	04800593          	li	a1,72
    20f2:	03400513          	li	a0,52
    20f6:	acaff0ef          	jal	ra,13c0 <display_char16_16>
C:\Users\admin\OneDrive - stu.cdu.edu.cn\2024FPGA\fpga_pds_project\cpu\picorv32+dds+osp+logic_alz_underclocking\software\HBird-workspace\pico_spi\Debug/../src/main.c:322
							display_char16_16(20+16*2,200-16*9 ,RED,78);
    20fa:	04e00693          	li	a3,78
    20fe:	8622                	mv	a2,s0
    2100:	03800593          	li	a1,56
    2104:	03400513          	li	a0,52
    2108:	ab8ff0ef          	jal	ra,13c0 <display_char16_16>
C:\Users\admin\OneDrive - stu.cdu.edu.cn\2024FPGA\fpga_pds_project\cpu\picorv32+dds+osp+logic_alz_underclocking\software\HBird-workspace\pico_spi\Debug/../src/main.c:324
							display_char16_16(20+16*3,250-16*0 ,RED,47);
    210c:	02f00693          	li	a3,47
    2110:	8622                	mv	a2,s0
    2112:	0fa00593          	li	a1,250
    2116:	04400513          	li	a0,68
    211a:	aa6ff0ef          	jal	ra,13c0 <display_char16_16>
C:\Users\admin\OneDrive - stu.cdu.edu.cn\2024FPGA\fpga_pds_project\cpu\picorv32+dds+osp+logic_alz_underclocking\software\HBird-workspace\pico_spi\Debug/../src/main.c:325
							display_char16_16(20+16*3,250-16*1 ,RED,48);
    211e:	03000693          	li	a3,48
    2122:	8622                	mv	a2,s0
    2124:	0ea00593          	li	a1,234
    2128:	04400513          	li	a0,68
    212c:	a94ff0ef          	jal	ra,13c0 <display_char16_16>
C:\Users\admin\OneDrive - stu.cdu.edu.cn\2024FPGA\fpga_pds_project\cpu\picorv32+dds+osp+logic_alz_underclocking\software\HBird-workspace\pico_spi\Debug/../src/main.c:326
							display_char16_16(20+16*3,250-16*2 ,RED,49);
    2130:	03100693          	li	a3,49
    2134:	8622                	mv	a2,s0
    2136:	0da00593          	li	a1,218
    213a:	04400513          	li	a0,68
    213e:	a82ff0ef          	jal	ra,13c0 <display_char16_16>
C:\Users\admin\OneDrive - stu.cdu.edu.cn\2024FPGA\fpga_pds_project\cpu\picorv32+dds+osp+logic_alz_underclocking\software\HBird-workspace\pico_spi\Debug/../src/main.c:327
							display_char16_16(20+16*3,250-16*3 ,RED,23);//:
    2142:	46dd                	li	a3,23
    2144:	8622                	mv	a2,s0
    2146:	0ca00593          	li	a1,202
    214a:	04400513          	li	a0,68
    214e:	a72ff0ef          	jal	ra,13c0 <display_char16_16>
C:\Users\admin\OneDrive - stu.cdu.edu.cn\2024FPGA\fpga_pds_project\cpu\picorv32+dds+osp+logic_alz_underclocking\software\HBird-workspace\pico_spi\Debug/../src/main.c:328
							display_char16_16(20+16*3,250-16*4 ,RED,46);
    2152:	02e00693          	li	a3,46
    2156:	8622                	mv	a2,s0
    2158:	0ba00593          	li	a1,186
    215c:	04400513          	li	a0,68
    2160:	a60ff0ef          	jal	ra,13c0 <display_char16_16>
C:\Users\admin\OneDrive - stu.cdu.edu.cn\2024FPGA\fpga_pds_project\cpu\picorv32+dds+osp+logic_alz_underclocking\software\HBird-workspace\pico_spi\Debug/../src/main.c:329
							display_char16_16(20+16*3,250-16*5 ,RED,48);
    2164:	03000693          	li	a3,48
    2168:	8622                	mv	a2,s0
    216a:	0aa00593          	li	a1,170
    216e:	04400513          	li	a0,68
    2172:	a4eff0ef          	jal	ra,13c0 <display_char16_16>
C:\Users\admin\OneDrive - stu.cdu.edu.cn\2024FPGA\fpga_pds_project\cpu\picorv32+dds+osp+logic_alz_underclocking\software\HBird-workspace\pico_spi\Debug/../src/main.c:330
							display_char16_16(20+16*3,250-16*6 ,RED,49);
    2176:	03100693          	li	a3,49
    217a:	8622                	mv	a2,s0
    217c:	09a00593          	li	a1,154
    2180:	04400513          	li	a0,68
    2184:	a3cff0ef          	jal	ra,13c0 <display_char16_16>
C:\Users\admin\OneDrive - stu.cdu.edu.cn\2024FPGA\fpga_pds_project\cpu\picorv32+dds+osp+logic_alz_underclocking\software\HBird-workspace\pico_spi\Debug/../src/main.c:331
							display_char16_16(20+16*3,250-16*7 ,RED,23);//:
    2188:	46dd                	li	a3,23
    218a:	8622                	mv	a2,s0
    218c:	08a00593          	li	a1,138
    2190:	04400513          	li	a0,68
    2194:	a2cff0ef          	jal	ra,13c0 <display_char16_16>
C:\Users\admin\OneDrive - stu.cdu.edu.cn\2024FPGA\fpga_pds_project\cpu\picorv32+dds+osp+logic_alz_underclocking\software\HBird-workspace\pico_spi\Debug/../src/main.c:332
							display_char16_16(20+16*3,250-16*8 ,RED,50);
    2198:	03200693          	li	a3,50
    219c:	8622                	mv	a2,s0
    219e:	07a00593          	li	a1,122
    21a2:	04400513          	li	a0,68
    21a6:	a1aff0ef          	jal	ra,13c0 <display_char16_16>
C:\Users\admin\OneDrive - stu.cdu.edu.cn\2024FPGA\fpga_pds_project\cpu\picorv32+dds+osp+logic_alz_underclocking\software\HBird-workspace\pico_spi\Debug/../src/main.c:333
							display_char16_16(20+16*3,250-16*9 ,RED,51);
    21aa:	03300693          	li	a3,51
    21ae:	8622                	mv	a2,s0
    21b0:	06a00593          	li	a1,106
    21b4:	04400513          	li	a0,68
    21b8:	a08ff0ef          	jal	ra,13c0 <display_char16_16>
C:\Users\admin\OneDrive - stu.cdu.edu.cn\2024FPGA\fpga_pds_project\cpu\picorv32+dds+osp+logic_alz_underclocking\software\HBird-workspace\pico_spi\Debug/../src/main.c:334
							display_char16_16(20+16*3,250-16*10,RED,54);
    21bc:	03600693          	li	a3,54
    21c0:	8622                	mv	a2,s0
    21c2:	05a00593          	li	a1,90
    21c6:	04400513          	li	a0,68
    21ca:	9f6ff0ef          	jal	ra,13c0 <display_char16_16>
C:\Users\admin\OneDrive - stu.cdu.edu.cn\2024FPGA\fpga_pds_project\cpu\picorv32+dds+osp+logic_alz_underclocking\software\HBird-workspace\pico_spi\Debug/../src/main.c:336
							display_char16_16(20+16*4,220-16*0 ,RED,52);
    21ce:	03400693          	li	a3,52
    21d2:	8622                	mv	a2,s0
    21d4:	0dc00593          	li	a1,220
    21d8:	05400513          	li	a0,84
    21dc:	9e4ff0ef          	jal	ra,13c0 <display_char16_16>
C:\Users\admin\OneDrive - stu.cdu.edu.cn\2024FPGA\fpga_pds_project\cpu\picorv32+dds+osp+logic_alz_underclocking\software\HBird-workspace\pico_spi\Debug/../src/main.c:337
							display_char16_16(20+16*4,220-16*1 ,RED,53);
    21e0:	03500693          	li	a3,53
    21e4:	8622                	mv	a2,s0
    21e6:	0cc00593          	li	a1,204
    21ea:	05400513          	li	a0,84
    21ee:	9d2ff0ef          	jal	ra,13c0 <display_char16_16>
C:\Users\admin\OneDrive - stu.cdu.edu.cn\2024FPGA\fpga_pds_project\cpu\picorv32+dds+osp+logic_alz_underclocking\software\HBird-workspace\pico_spi\Debug/../src/main.c:338
							display_char16_16(20+16*4,220-16*2 ,RED,54);
    21f2:	03600693          	li	a3,54
    21f6:	8622                	mv	a2,s0
    21f8:	0bc00593          	li	a1,188
    21fc:	05400513          	li	a0,84
    2200:	9c0ff0ef          	jal	ra,13c0 <display_char16_16>
C:\Users\admin\OneDrive - stu.cdu.edu.cn\2024FPGA\fpga_pds_project\cpu\picorv32+dds+osp+logic_alz_underclocking\software\HBird-workspace\pico_spi\Debug/../src/main.c:339
							display_char16_16(20+16*4,220-16*3 ,RED,23);//:
    2204:	46dd                	li	a3,23
    2206:	8622                	mv	a2,s0
    2208:	0ac00593          	li	a1,172
    220c:	05400513          	li	a0,84
    2210:	9b0ff0ef          	jal	ra,13c0 <display_char16_16>
C:\Users\admin\OneDrive - stu.cdu.edu.cn\2024FPGA\fpga_pds_project\cpu\picorv32+dds+osp+logic_alz_underclocking\software\HBird-workspace\pico_spi\Debug/../src/main.c:340
							display_char16_16(20+16*4,220-16*4 ,RED,50);
    2214:	03200693          	li	a3,50
    2218:	8622                	mv	a2,s0
    221a:	09c00593          	li	a1,156
    221e:	05400513          	li	a0,84
    2222:	99eff0ef          	jal	ra,13c0 <display_char16_16>
C:\Users\admin\OneDrive - stu.cdu.edu.cn\2024FPGA\fpga_pds_project\cpu\picorv32+dds+osp+logic_alz_underclocking\software\HBird-workspace\pico_spi\Debug/../src/main.c:341
							display_char16_16(20+16*4,220-16*5 ,RED,52);
    2226:	03400693          	li	a3,52
    222a:	8622                	mv	a2,s0
    222c:	08c00593          	li	a1,140
    2230:	05400513          	li	a0,84
    2234:	98cff0ef          	jal	ra,13c0 <display_char16_16>
C:\Users\admin\OneDrive - stu.cdu.edu.cn\2024FPGA\fpga_pds_project\cpu\picorv32+dds+osp+logic_alz_underclocking\software\HBird-workspace\pico_spi\Debug/../src/main.c:342
							display_char16_16(20+16*4,220-16*6 ,RED,54);
    2238:	03600693          	li	a3,54
    223c:	8622                	mv	a2,s0
    223e:	07c00593          	li	a1,124
    2242:	05400513          	li	a0,84
    2246:	97aff0ef          	jal	ra,13c0 <display_char16_16>
C:\Users\admin\OneDrive - stu.cdu.edu.cn\2024FPGA\fpga_pds_project\cpu\picorv32+dds+osp+logic_alz_underclocking\software\HBird-workspace\pico_spi\Debug/../src/main.c:343
							display_char16_16(20+16*4,220-16*7 ,RED,23);//:
    224a:	46dd                	li	a3,23
    224c:	8622                	mv	a2,s0
    224e:	06c00593          	li	a1,108
    2252:	05400513          	li	a0,84
    2256:	96aff0ef          	jal	ra,13c0 <display_char16_16>
C:\Users\admin\OneDrive - stu.cdu.edu.cn\2024FPGA\fpga_pds_project\cpu\picorv32+dds+osp+logic_alz_underclocking\software\HBird-workspace\pico_spi\Debug/../src/main.c:344
							display_char16_16(20+16*4,220-16*8 ,RED,80);
    225a:	05000693          	li	a3,80
    225e:	8622                	mv	a2,s0
    2260:	05c00593          	li	a1,92
    2264:	05400513          	li	a0,84
    2268:	958ff0ef          	jal	ra,13c0 <display_char16_16>
C:\Users\admin\OneDrive - stu.cdu.edu.cn\2024FPGA\fpga_pds_project\cpu\picorv32+dds+osp+logic_alz_underclocking\software\HBird-workspace\pico_spi\Debug/../src/main.c:345
							display_char16_16(20+16*4,220-16*9 ,RED,81);
    226c:	05100693          	li	a3,81
    2270:	8622                	mv	a2,s0
    2272:	04c00593          	li	a1,76
    2276:	05400513          	li	a0,84
    227a:	946ff0ef          	jal	ra,13c0 <display_char16_16>
C:\Users\admin\OneDrive - stu.cdu.edu.cn\2024FPGA\fpga_pds_project\cpu\picorv32+dds+osp+logic_alz_underclocking\software\HBird-workspace\pico_spi\Debug/../src/main.c:347
							display_char16_16(20+16*5,200-16*0 ,RED,21);
    227e:	46d5                	li	a3,21
    2280:	8622                	mv	a2,s0
    2282:	0c800593          	li	a1,200
    2286:	06400513          	li	a0,100
    228a:	936ff0ef          	jal	ra,13c0 <display_char16_16>
C:\Users\admin\OneDrive - stu.cdu.edu.cn\2024FPGA\fpga_pds_project\cpu\picorv32+dds+osp+logic_alz_underclocking\software\HBird-workspace\pico_spi\Debug/../src/main.c:348
							display_char16_16(20+16*5,200-16*1 ,RED,22);
    228e:	46d9                	li	a3,22
    2290:	8622                	mv	a2,s0
    2292:	0b800593          	li	a1,184
    2296:	06400513          	li	a0,100
    229a:	926ff0ef          	jal	ra,13c0 <display_char16_16>
C:\Users\admin\OneDrive - stu.cdu.edu.cn\2024FPGA\fpga_pds_project\cpu\picorv32+dds+osp+logic_alz_underclocking\software\HBird-workspace\pico_spi\Debug/../src/main.c:349
							display_char16_16(20+16*5,200-16*2 ,RED,29);
    229e:	46f5                	li	a3,29
    22a0:	8622                	mv	a2,s0
    22a2:	0a800593          	li	a1,168
    22a6:	06400513          	li	a0,100
    22aa:	916ff0ef          	jal	ra,13c0 <display_char16_16>
C:\Users\admin\OneDrive - stu.cdu.edu.cn\2024FPGA\fpga_pds_project\cpu\picorv32+dds+osp+logic_alz_underclocking\software\HBird-workspace\pico_spi\Debug/../src/main.c:350
							display_char16_16(20+16*5,200-16*3 ,RED,23);//:
    22ae:	46dd                	li	a3,23
    22b0:	8622                	mv	a2,s0
    22b2:	09800593          	li	a1,152
    22b6:	06400513          	li	a0,100
    22ba:	906ff0ef          	jal	ra,13c0 <display_char16_16>
C:\Users\admin\OneDrive - stu.cdu.edu.cn\2024FPGA\fpga_pds_project\cpu\picorv32+dds+osp+logic_alz_underclocking\software\HBird-workspace\pico_spi\Debug/../src/main.c:351
							display_char16_16(20+16*5,200-16*4 ,RED,44);
    22be:	02c00693          	li	a3,44
    22c2:	8622                	mv	a2,s0
    22c4:	08800593          	li	a1,136
    22c8:	06400513          	li	a0,100
    22cc:	8f4ff0ef          	jal	ra,13c0 <display_char16_16>
C:\Users\admin\OneDrive - stu.cdu.edu.cn\2024FPGA\fpga_pds_project\cpu\picorv32+dds+osp+logic_alz_underclocking\software\HBird-workspace\pico_spi\Debug/../src/main.c:352
							display_char16_16(20+16*5,200-16*5 ,RED,45);
    22d0:	02d00693          	li	a3,45
    22d4:	8622                	mv	a2,s0
    22d6:	07800593          	li	a1,120
    22da:	06400513          	li	a0,100
    22de:	8e2ff0ef          	jal	ra,13c0 <display_char16_16>
C:\Users\admin\OneDrive - stu.cdu.edu.cn\2024FPGA\fpga_pds_project\cpu\picorv32+dds+osp+logic_alz_underclocking\software\HBird-workspace\pico_spi\Debug/../src/main.c:353
							display_char16_16(20+16*5,200-16*6 ,RED,55);
    22e2:	03700693          	li	a3,55
    22e6:	8622                	mv	a2,s0
    22e8:	06800593          	li	a1,104
    22ec:	06400513          	li	a0,100
    22f0:	8d0ff0ef          	jal	ra,13c0 <display_char16_16>
C:\Users\admin\OneDrive - stu.cdu.edu.cn\2024FPGA\fpga_pds_project\cpu\picorv32+dds+osp+logic_alz_underclocking\software\HBird-workspace\pico_spi\Debug/../src/main.c:354
							display_char16_16(20+16*5,200-16*7 ,RED,56);
    22f4:	03800693          	li	a3,56
    22f8:	8622                	mv	a2,s0
    22fa:	05800593          	li	a1,88
    22fe:	06400513          	li	a0,100
    2302:	8beff0ef          	jal	ra,13c0 <display_char16_16>
C:\Users\admin\OneDrive - stu.cdu.edu.cn\2024FPGA\fpga_pds_project\cpu\picorv32+dds+osp+logic_alz_underclocking\software\HBird-workspace\pico_spi\Debug/../src/main.c:355
							display_char16_16(20+16*5,200-16*8 ,RED,77);
    2306:	04d00693          	li	a3,77
    230a:	8622                	mv	a2,s0
    230c:	04800593          	li	a1,72
    2310:	06400513          	li	a0,100
    2314:	8acff0ef          	jal	ra,13c0 <display_char16_16>
C:\Users\admin\OneDrive - stu.cdu.edu.cn\2024FPGA\fpga_pds_project\cpu\picorv32+dds+osp+logic_alz_underclocking\software\HBird-workspace\pico_spi\Debug/../src/main.c:356
							display_char16_16(20+16*5,200-16*9 ,RED,78);
    2318:	04e00693          	li	a3,78
    231c:	8622                	mv	a2,s0
    231e:	03800593          	li	a1,56
    2322:	06400513          	li	a0,100
    2326:	89aff0ef          	jal	ra,13c0 <display_char16_16>
C:\Users\admin\OneDrive - stu.cdu.edu.cn\2024FPGA\fpga_pds_project\cpu\picorv32+dds+osp+logic_alz_underclocking\software\HBird-workspace\pico_spi\Debug/../src/main.c:358
							display_char16_16(20+16*6,200-16*0 ,RED,55);
    232a:	03700693          	li	a3,55
    232e:	8622                	mv	a2,s0
    2330:	0c800593          	li	a1,200
    2334:	07400513          	li	a0,116
    2338:	888ff0ef          	jal	ra,13c0 <display_char16_16>
C:\Users\admin\OneDrive - stu.cdu.edu.cn\2024FPGA\fpga_pds_project\cpu\picorv32+dds+osp+logic_alz_underclocking\software\HBird-workspace\pico_spi\Debug/../src/main.c:359
							display_char16_16(20+16*6,200-16*1 ,RED,56);
    233c:	03800693          	li	a3,56
    2340:	8622                	mv	a2,s0
    2342:	0b800593          	li	a1,184
    2346:	07400513          	li	a0,116
    234a:	876ff0ef          	jal	ra,13c0 <display_char16_16>
C:\Users\admin\OneDrive - stu.cdu.edu.cn\2024FPGA\fpga_pds_project\cpu\picorv32+dds+osp+logic_alz_underclocking\software\HBird-workspace\pico_spi\Debug/../src/main.c:360
							display_char16_16(20+16*6,200-16*2 ,RED,25);
    234e:	46e5                	li	a3,25
    2350:	8622                	mv	a2,s0
    2352:	0a800593          	li	a1,168
    2356:	07400513          	li	a0,116
    235a:	866ff0ef          	jal	ra,13c0 <display_char16_16>
C:\Users\admin\OneDrive - stu.cdu.edu.cn\2024FPGA\fpga_pds_project\cpu\picorv32+dds+osp+logic_alz_underclocking\software\HBird-workspace\pico_spi\Debug/../src/main.c:361
							display_char16_16(20+16*6,200-16*3 ,RED,23);//:
    235e:	46dd                	li	a3,23
    2360:	8622                	mv	a2,s0
    2362:	09800593          	li	a1,152
    2366:	07400513          	li	a0,116
    236a:	856ff0ef          	jal	ra,13c0 <display_char16_16>
C:\Users\admin\OneDrive - stu.cdu.edu.cn\2024FPGA\fpga_pds_project\cpu\picorv32+dds+osp+logic_alz_underclocking\software\HBird-workspace\pico_spi\Debug/../src/main.c:362
							display_char16_16(20+16*6,200-16*4 ,RED,32);
    236e:	02000693          	li	a3,32
    2372:	8622                	mv	a2,s0
    2374:	08800593          	li	a1,136
    2378:	07400513          	li	a0,116
    237c:	844ff0ef          	jal	ra,13c0 <display_char16_16>
C:\Users\admin\OneDrive - stu.cdu.edu.cn\2024FPGA\fpga_pds_project\cpu\picorv32+dds+osp+logic_alz_underclocking\software\HBird-workspace\pico_spi\Debug/../src/main.c:364
							display_char16_16(20+16*7,200-16*0 ,RED,21);
    2380:	46d5                	li	a3,21
    2382:	8622                	mv	a2,s0
    2384:	0c800593          	li	a1,200
    2388:	08400513          	li	a0,132
    238c:	834ff0ef          	jal	ra,13c0 <display_char16_16>
C:\Users\admin\OneDrive - stu.cdu.edu.cn\2024FPGA\fpga_pds_project\cpu\picorv32+dds+osp+logic_alz_underclocking\software\HBird-workspace\pico_spi\Debug/../src/main.c:365
							display_char16_16(20+16*7,200-16*1 ,RED,22);
    2390:	46d9                	li	a3,22
    2392:	8622                	mv	a2,s0
    2394:	0b800593          	li	a1,184
    2398:	08400513          	li	a0,132
    239c:	824ff0ef          	jal	ra,13c0 <display_char16_16>
C:\Users\admin\OneDrive - stu.cdu.edu.cn\2024FPGA\fpga_pds_project\cpu\picorv32+dds+osp+logic_alz_underclocking\software\HBird-workspace\pico_spi\Debug/../src/main.c:366
							display_char16_16(20+16*7,200-16*2 ,RED,30);
    23a0:	46f9                	li	a3,30
    23a2:	8622                	mv	a2,s0
    23a4:	0a800593          	li	a1,168
    23a8:	08400513          	li	a0,132
    23ac:	814ff0ef          	jal	ra,13c0 <display_char16_16>
C:\Users\admin\OneDrive - stu.cdu.edu.cn\2024FPGA\fpga_pds_project\cpu\picorv32+dds+osp+logic_alz_underclocking\software\HBird-workspace\pico_spi\Debug/../src/main.c:367
							display_char16_16(20+16*7,200-16*3 ,RED,23);//:
    23b0:	46dd                	li	a3,23
    23b2:	8622                	mv	a2,s0
    23b4:	09800593          	li	a1,152
    23b8:	08400513          	li	a0,132
    23bc:	804ff0ef          	jal	ra,13c0 <display_char16_16>
C:\Users\admin\OneDrive - stu.cdu.edu.cn\2024FPGA\fpga_pds_project\cpu\picorv32+dds+osp+logic_alz_underclocking\software\HBird-workspace\pico_spi\Debug/../src/main.c:368
							display_char16_16(20+16*7,200-16*4 ,RED,57);
    23c0:	03900693          	li	a3,57
    23c4:	8622                	mv	a2,s0
    23c6:	08800593          	li	a1,136
    23ca:	08400513          	li	a0,132
    23ce:	ff3fe0ef          	jal	ra,13c0 <display_char16_16>
C:\Users\admin\OneDrive - stu.cdu.edu.cn\2024FPGA\fpga_pds_project\cpu\picorv32+dds+osp+logic_alz_underclocking\software\HBird-workspace\pico_spi\Debug/../src/main.c:369
							display_char16_16(20+16*7,200-16*5 ,RED,58);
    23d2:	03a00693          	li	a3,58
    23d6:	8622                	mv	a2,s0
    23d8:	07800593          	li	a1,120
    23dc:	08400513          	li	a0,132
    23e0:	fe1fe0ef          	jal	ra,13c0 <display_char16_16>
C:\Users\admin\OneDrive - stu.cdu.edu.cn\2024FPGA\fpga_pds_project\cpu\picorv32+dds+osp+logic_alz_underclocking\software\HBird-workspace\pico_spi\Debug/../src/main.c:370
							display_char16_16(20+16*7,200-16*6 ,RED,59);
    23e4:	03b00693          	li	a3,59
    23e8:	8622                	mv	a2,s0
    23ea:	06800593          	li	a1,104
    23ee:	08400513          	li	a0,132
    23f2:	fcffe0ef          	jal	ra,13c0 <display_char16_16>
C:\Users\admin\OneDrive - stu.cdu.edu.cn\2024FPGA\fpga_pds_project\cpu\picorv32+dds+osp+logic_alz_underclocking\software\HBird-workspace\pico_spi\Debug/../src/main.c:371
							display_char16_16(20+16*7,200-16*7 ,RED,60);
    23f6:	03c00693          	li	a3,60
    23fa:	8622                	mv	a2,s0
    23fc:	05800593          	li	a1,88
    2400:	08400513          	li	a0,132
    2404:	fbdfe0ef          	jal	ra,13c0 <display_char16_16>
C:\Users\admin\OneDrive - stu.cdu.edu.cn\2024FPGA\fpga_pds_project\cpu\picorv32+dds+osp+logic_alz_underclocking\software\HBird-workspace\pico_spi\Debug/../src/main.c:372
							display_char16_16(20+16*7,200-16*8 ,RED,44);
    2408:	02c00693          	li	a3,44
    240c:	8622                	mv	a2,s0
    240e:	04800593          	li	a1,72
    2412:	08400513          	li	a0,132
    2416:	fabfe0ef          	jal	ra,13c0 <display_char16_16>
C:\Users\admin\OneDrive - stu.cdu.edu.cn\2024FPGA\fpga_pds_project\cpu\picorv32+dds+osp+logic_alz_underclocking\software\HBird-workspace\pico_spi\Debug/../src/main.c:373
							display_char16_16(20+16*7,200-16*9 ,RED,45);
    241a:	02d00693          	li	a3,45
    241e:	8622                	mv	a2,s0
    2420:	03800593          	li	a1,56
    2424:	08400513          	li	a0,132
    2428:	f99fe0ef          	jal	ra,13c0 <display_char16_16>
C:\Users\admin\OneDrive - stu.cdu.edu.cn\2024FPGA\fpga_pds_project\cpu\picorv32+dds+osp+logic_alz_underclocking\software\HBird-workspace\pico_spi\Debug/../src/main.c:374
							clear_flag = 5;
    242c:	4695                	li	a3,5
    242e:	9a2ff06f          	j	15d0 <main+0x76>
C:\Users\admin\OneDrive - stu.cdu.edu.cn\2024FPGA\fpga_pds_project\cpu\picorv32+dds+osp+logic_alz_underclocking\software\HBird-workspace\pico_spi\Debug/../src/main.c:112
						if(clear_flag != 3){
    2432:	00e69463          	bne	a3,a4,243a <main+0xee0>
    2436:	99aff06f          	j	15d0 <main+0x76>
C:\Users\admin\OneDrive - stu.cdu.edu.cn\2024FPGA\fpga_pds_project\cpu\picorv32+dds+osp+logic_alz_underclocking\software\HBird-workspace\pico_spi\Debug/../src/main.c:113
							TFT_full(WHITE);
    243a:	8552                	mv	a0,s4
    243c:	d8ffe0ef          	jal	ra,11ca <TFT_full>
C:\Users\admin\OneDrive - stu.cdu.edu.cn\2024FPGA\fpga_pds_project\cpu\picorv32+dds+osp+logic_alz_underclocking\software\HBird-workspace\pico_spi\Debug/../src/main.c:115
							display_char16_16(80+16*0,200-16*0 ,RED,8 );
    2440:	46a1                	li	a3,8
    2442:	8622                	mv	a2,s0
    2444:	0c800593          	li	a1,200
    2448:	05000513          	li	a0,80
    244c:	f75fe0ef          	jal	ra,13c0 <display_char16_16>
C:\Users\admin\OneDrive - stu.cdu.edu.cn\2024FPGA\fpga_pds_project\cpu\picorv32+dds+osp+logic_alz_underclocking\software\HBird-workspace\pico_spi\Debug/../src/main.c:116
							display_char16_16(80+16*0,200-16*1 ,RED,9 );
    2450:	46a5                	li	a3,9
    2452:	8622                	mv	a2,s0
    2454:	0b800593          	li	a1,184
    2458:	05000513          	li	a0,80
    245c:	f65fe0ef          	jal	ra,13c0 <display_char16_16>
C:\Users\admin\OneDrive - stu.cdu.edu.cn\2024FPGA\fpga_pds_project\cpu\picorv32+dds+osp+logic_alz_underclocking\software\HBird-workspace\pico_spi\Debug/../src/main.c:117
							display_char16_16(80+16*0,200-16*2 ,RED,10);
    2460:	46a9                	li	a3,10
    2462:	8622                	mv	a2,s0
    2464:	0a800593          	li	a1,168
    2468:	05000513          	li	a0,80
    246c:	f55fe0ef          	jal	ra,13c0 <display_char16_16>
C:\Users\admin\OneDrive - stu.cdu.edu.cn\2024FPGA\fpga_pds_project\cpu\picorv32+dds+osp+logic_alz_underclocking\software\HBird-workspace\pico_spi\Debug/../src/main.c:119
							display_char16_16(80+16*1,200-16*0 ,RED,21);
    2470:	46d5                	li	a3,21
    2472:	8622                	mv	a2,s0
    2474:	0c800593          	li	a1,200
    2478:	06000513          	li	a0,96
    247c:	f45fe0ef          	jal	ra,13c0 <display_char16_16>
C:\Users\admin\OneDrive - stu.cdu.edu.cn\2024FPGA\fpga_pds_project\cpu\picorv32+dds+osp+logic_alz_underclocking\software\HBird-workspace\pico_spi\Debug/../src/main.c:120
							display_char16_16(80+16*1,200-16*1 ,RED,22);
    2480:	46d9                	li	a3,22
    2482:	8622                	mv	a2,s0
    2484:	0b800593          	li	a1,184
    2488:	06000513          	li	a0,96
    248c:	f35fe0ef          	jal	ra,13c0 <display_char16_16>
C:\Users\admin\OneDrive - stu.cdu.edu.cn\2024FPGA\fpga_pds_project\cpu\picorv32+dds+osp+logic_alz_underclocking\software\HBird-workspace\pico_spi\Debug/../src/main.c:121
							display_char16_16(80+16*1,200-16*2 ,RED,27);
    2490:	46ed                	li	a3,27
    2492:	8622                	mv	a2,s0
    2494:	0a800593          	li	a1,168
    2498:	06000513          	li	a0,96
    249c:	f25fe0ef          	jal	ra,13c0 <display_char16_16>
C:\Users\admin\OneDrive - stu.cdu.edu.cn\2024FPGA\fpga_pds_project\cpu\picorv32+dds+osp+logic_alz_underclocking\software\HBird-workspace\pico_spi\Debug/../src/main.c:122
							display_char16_16(80+16*1,200-16*3 ,RED,23);//:
    24a0:	46dd                	li	a3,23
    24a2:	8622                	mv	a2,s0
    24a4:	09800593          	li	a1,152
    24a8:	06000513          	li	a0,96
    24ac:	f15fe0ef          	jal	ra,13c0 <display_char16_16>
C:\Users\admin\OneDrive - stu.cdu.edu.cn\2024FPGA\fpga_pds_project\cpu\picorv32+dds+osp+logic_alz_underclocking\software\HBird-workspace\pico_spi\Debug/../src/main.c:123
							display_char16_16(80+16*1,200-16*4 ,RED,35);
    24b0:	02300693          	li	a3,35
    24b4:	8622                	mv	a2,s0
    24b6:	08800593          	li	a1,136
    24ba:	06000513          	li	a0,96
    24be:	f03fe0ef          	jal	ra,13c0 <display_char16_16>
C:\Users\admin\OneDrive - stu.cdu.edu.cn\2024FPGA\fpga_pds_project\cpu\picorv32+dds+osp+logic_alz_underclocking\software\HBird-workspace\pico_spi\Debug/../src/main.c:124
							display_char16_16(80+16*1,200-16*5 ,RED,36);
    24c2:	02400693          	li	a3,36
    24c6:	8622                	mv	a2,s0
    24c8:	07800593          	li	a1,120
    24cc:	06000513          	li	a0,96
    24d0:	ef1fe0ef          	jal	ra,13c0 <display_char16_16>
C:\Users\admin\OneDrive - stu.cdu.edu.cn\2024FPGA\fpga_pds_project\cpu\picorv32+dds+osp+logic_alz_underclocking\software\HBird-workspace\pico_spi\Debug/../src/main.c:125
							display_char16_16(80+16*1,200-16*6 ,RED,23);//:
    24d4:	46dd                	li	a3,23
    24d6:	8622                	mv	a2,s0
    24d8:	06800593          	li	a1,104
    24dc:	06000513          	li	a0,96
    24e0:	ee1fe0ef          	jal	ra,13c0 <display_char16_16>
C:\Users\admin\OneDrive - stu.cdu.edu.cn\2024FPGA\fpga_pds_project\cpu\picorv32+dds+osp+logic_alz_underclocking\software\HBird-workspace\pico_spi\Debug/../src/main.c:126
							display_char16_16(80+16*1,200-16*7 ,RED,37);
    24e4:	02500693          	li	a3,37
    24e8:	8622                	mv	a2,s0
    24ea:	05800593          	li	a1,88
    24ee:	06000513          	li	a0,96
    24f2:	ecffe0ef          	jal	ra,13c0 <display_char16_16>
C:\Users\admin\OneDrive - stu.cdu.edu.cn\2024FPGA\fpga_pds_project\cpu\picorv32+dds+osp+logic_alz_underclocking\software\HBird-workspace\pico_spi\Debug/../src/main.c:127
							display_char16_16(80+16*1,200-16*8 ,RED,38);
    24f6:	02600693          	li	a3,38
    24fa:	8622                	mv	a2,s0
    24fc:	04800593          	li	a1,72
    2500:	06000513          	li	a0,96
    2504:	ebdfe0ef          	jal	ra,13c0 <display_char16_16>
C:\Users\admin\OneDrive - stu.cdu.edu.cn\2024FPGA\fpga_pds_project\cpu\picorv32+dds+osp+logic_alz_underclocking\software\HBird-workspace\pico_spi\Debug/../src/main.c:128
							display_char16_16(80+16*1,200-16*9 ,RED,39);
    2508:	02700693          	li	a3,39
    250c:	8622                	mv	a2,s0
    250e:	03800593          	li	a1,56
    2512:	06000513          	li	a0,96
    2516:	eabfe0ef          	jal	ra,13c0 <display_char16_16>
C:\Users\admin\OneDrive - stu.cdu.edu.cn\2024FPGA\fpga_pds_project\cpu\picorv32+dds+osp+logic_alz_underclocking\software\HBird-workspace\pico_spi\Debug/../src/main.c:130
							display_char16_16(80+16*2,200-16*0 ,RED,21);
    251a:	46d5                	li	a3,21
    251c:	8622                	mv	a2,s0
    251e:	0c800593          	li	a1,200
    2522:	07000513          	li	a0,112
    2526:	e9bfe0ef          	jal	ra,13c0 <display_char16_16>
C:\Users\admin\OneDrive - stu.cdu.edu.cn\2024FPGA\fpga_pds_project\cpu\picorv32+dds+osp+logic_alz_underclocking\software\HBird-workspace\pico_spi\Debug/../src/main.c:131
							display_char16_16(80+16*2,200-16*1 ,RED,22);
    252a:	46d9                	li	a3,22
    252c:	8622                	mv	a2,s0
    252e:	0b800593          	li	a1,184
    2532:	07000513          	li	a0,112
    2536:	e8bfe0ef          	jal	ra,13c0 <display_char16_16>
C:\Users\admin\OneDrive - stu.cdu.edu.cn\2024FPGA\fpga_pds_project\cpu\picorv32+dds+osp+logic_alz_underclocking\software\HBird-workspace\pico_spi\Debug/../src/main.c:132
							display_char16_16(80+16*2,200-16*2 ,RED,28);
    253a:	46f1                	li	a3,28
    253c:	8622                	mv	a2,s0
    253e:	0a800593          	li	a1,168
    2542:	07000513          	li	a0,112
    2546:	e7bfe0ef          	jal	ra,13c0 <display_char16_16>
C:\Users\admin\OneDrive - stu.cdu.edu.cn\2024FPGA\fpga_pds_project\cpu\picorv32+dds+osp+logic_alz_underclocking\software\HBird-workspace\pico_spi\Debug/../src/main.c:133
							display_char16_16(80+16*2,200-16*3 ,RED,23);//:
    254a:	46dd                	li	a3,23
    254c:	8622                	mv	a2,s0
    254e:	09800593          	li	a1,152
    2552:	07000513          	li	a0,112
    2556:	e6bfe0ef          	jal	ra,13c0 <display_char16_16>
C:\Users\admin\OneDrive - stu.cdu.edu.cn\2024FPGA\fpga_pds_project\cpu\picorv32+dds+osp+logic_alz_underclocking\software\HBird-workspace\pico_spi\Debug/../src/main.c:134
							display_char16_16(80+16*2,200-16*4 ,RED,40);
    255a:	02800693          	li	a3,40
    255e:	8622                	mv	a2,s0
    2560:	08800593          	li	a1,136
    2564:	07000513          	li	a0,112
    2568:	e59fe0ef          	jal	ra,13c0 <display_char16_16>
C:\Users\admin\OneDrive - stu.cdu.edu.cn\2024FPGA\fpga_pds_project\cpu\picorv32+dds+osp+logic_alz_underclocking\software\HBird-workspace\pico_spi\Debug/../src/main.c:135
							display_char16_16(80+16*2,200-16*5 ,RED,41);
    256c:	02900693          	li	a3,41
    2570:	8622                	mv	a2,s0
    2572:	07800593          	li	a1,120
    2576:	07000513          	li	a0,112
    257a:	e47fe0ef          	jal	ra,13c0 <display_char16_16>
C:\Users\admin\OneDrive - stu.cdu.edu.cn\2024FPGA\fpga_pds_project\cpu\picorv32+dds+osp+logic_alz_underclocking\software\HBird-workspace\pico_spi\Debug/../src/main.c:137
							display_char16_16(80+16*3,200-16*0 ,RED,21);
    257e:	46d5                	li	a3,21
    2580:	8622                	mv	a2,s0
    2582:	0c800593          	li	a1,200
    2586:	08000513          	li	a0,128
    258a:	e37fe0ef          	jal	ra,13c0 <display_char16_16>
C:\Users\admin\OneDrive - stu.cdu.edu.cn\2024FPGA\fpga_pds_project\cpu\picorv32+dds+osp+logic_alz_underclocking\software\HBird-workspace\pico_spi\Debug/../src/main.c:138
							display_char16_16(80+16*3,200-16*1 ,RED,22);
    258e:	46d9                	li	a3,22
    2590:	8622                	mv	a2,s0
    2592:	0b800593          	li	a1,184
    2596:	08000513          	li	a0,128
    259a:	e27fe0ef          	jal	ra,13c0 <display_char16_16>
C:\Users\admin\OneDrive - stu.cdu.edu.cn\2024FPGA\fpga_pds_project\cpu\picorv32+dds+osp+logic_alz_underclocking\software\HBird-workspace\pico_spi\Debug/../src/main.c:139
							display_char16_16(80+16*3,200-16*2 ,RED,29);
    259e:	46f5                	li	a3,29
    25a0:	8622                	mv	a2,s0
    25a2:	0a800593          	li	a1,168
    25a6:	08000513          	li	a0,128
    25aa:	e17fe0ef          	jal	ra,13c0 <display_char16_16>
C:\Users\admin\OneDrive - stu.cdu.edu.cn\2024FPGA\fpga_pds_project\cpu\picorv32+dds+osp+logic_alz_underclocking\software\HBird-workspace\pico_spi\Debug/../src/main.c:140
							display_char16_16(80+16*3,200-16*3 ,RED,23);//:
    25ae:	46dd                	li	a3,23
    25b0:	8622                	mv	a2,s0
    25b2:	09800593          	li	a1,152
    25b6:	08000513          	li	a0,128
    25ba:	e07fe0ef          	jal	ra,13c0 <display_char16_16>
C:\Users\admin\OneDrive - stu.cdu.edu.cn\2024FPGA\fpga_pds_project\cpu\picorv32+dds+osp+logic_alz_underclocking\software\HBird-workspace\pico_spi\Debug/../src/main.c:141
							display_char16_16(80+16*3,200-16*4 ,RED,42);
    25be:	02a00693          	li	a3,42
    25c2:	8622                	mv	a2,s0
    25c4:	08800593          	li	a1,136
    25c8:	08000513          	li	a0,128
    25cc:	df5fe0ef          	jal	ra,13c0 <display_char16_16>
C:\Users\admin\OneDrive - stu.cdu.edu.cn\2024FPGA\fpga_pds_project\cpu\picorv32+dds+osp+logic_alz_underclocking\software\HBird-workspace\pico_spi\Debug/../src/main.c:142
							display_char16_16(80+16*3,200-16*5 ,RED,43);
    25d0:	02b00693          	li	a3,43
    25d4:	8622                	mv	a2,s0
    25d6:	07800593          	li	a1,120
    25da:	08000513          	li	a0,128
    25de:	de3fe0ef          	jal	ra,13c0 <display_char16_16>
C:\Users\admin\OneDrive - stu.cdu.edu.cn\2024FPGA\fpga_pds_project\cpu\picorv32+dds+osp+logic_alz_underclocking\software\HBird-workspace\pico_spi\Debug/../src/main.c:143
							clear_flag = 3;
    25e2:	468d                	li	a3,3
    25e4:	fedfe06f          	j	15d0 <main+0x76>
C:\Users\admin\OneDrive - stu.cdu.edu.cn\2024FPGA\fpga_pds_project\cpu\picorv32+dds+osp+logic_alz_underclocking\software\HBird-workspace\pico_spi\Debug/../src/main.c:88
						if(clear_flag != 1){
    25e8:	01368563          	beq	a3,s3,25f2 <main+0x1098>
C:\Users\admin\OneDrive - stu.cdu.edu.cn\2024FPGA\fpga_pds_project\cpu\picorv32+dds+osp+logic_alz_underclocking\software\HBird-workspace\pico_spi\Debug/../src/main.c:89
							TFT_full(WHITE);
    25ec:	8552                	mv	a0,s4
    25ee:	bddfe0ef          	jal	ra,11ca <TFT_full>
C:\Users\admin\OneDrive - stu.cdu.edu.cn\2024FPGA\fpga_pds_project\cpu\picorv32+dds+osp+logic_alz_underclocking\software\HBird-workspace\pico_spi\Debug/../src/main.c:92
						TFT_show(WHITE, RED);
    25f2:	85a2                	mv	a1,s0
    25f4:	8552                	mv	a0,s4
    25f6:	eb1fe0ef          	jal	ra,14a6 <TFT_show>
C:\Users\admin\OneDrive - stu.cdu.edu.cn\2024FPGA\fpga_pds_project\cpu\picorv32+dds+osp+logic_alz_underclocking\software\HBird-workspace\pico_spi\Debug/../src/main.c:93
						break;
    25fa:	4685                	li	a3,1
    25fc:	fd5fe06f          	j	15d0 <main+0x76>
C:\Users\admin\OneDrive - stu.cdu.edu.cn\2024FPGA\fpga_pds_project\cpu\picorv32+dds+osp+logic_alz_underclocking\software\HBird-workspace\pico_spi\Debug/../src/main.c:248
							switch(LOGIC_TRIGGER_CHANNEL)
    2600:	4691                	li	a3,4
    2602:	fcffe06f          	j	15d0 <main+0x76>

00002606 <OSP_READ>:
OSP_READ():
C:\Users\admin\OneDrive - stu.cdu.edu.cn\2024FPGA\fpga_pds_project\cpu\picorv32+dds+osp+logic_alz_underclocking\software\HBird-workspace\pico_spi\Debug/../src/osp.c:6
#include "osp.h"
#include "gpio.h"
unsigned char OSP_READ(){

	unsigned char temp_data;
	temp_data = gpio_in_0_address;
    2606:	67a1                	lui	a5,0x8
    2608:	5b88                	lw	a0,48(a5)
C:\Users\admin\OneDrive - stu.cdu.edu.cn\2024FPGA\fpga_pds_project\cpu\picorv32+dds+osp+logic_alz_underclocking\software\HBird-workspace\pico_spi\Debug/../src/osp.c:9


	FIFO_CLK_0;
    260a:	5398                	lw	a4,32(a5)
C:\Users\admin\OneDrive - stu.cdu.edu.cn\2024FPGA\fpga_pds_project\cpu\picorv32+dds+osp+logic_alz_underclocking\software\HBird-workspace\pico_spi\Debug/../src/osp.c:13
	FIFO_CLK_1;

	return temp_data;
}
    260c:	0ff57513          	andi	a0,a0,255
C:\Users\admin\OneDrive - stu.cdu.edu.cn\2024FPGA\fpga_pds_project\cpu\picorv32+dds+osp+logic_alz_underclocking\software\HBird-workspace\pico_spi\Debug/../src/osp.c:9
	FIFO_CLK_0;
    2610:	0bf77713          	andi	a4,a4,191
    2614:	d398                	sw	a4,32(a5)
C:\Users\admin\OneDrive - stu.cdu.edu.cn\2024FPGA\fpga_pds_project\cpu\picorv32+dds+osp+logic_alz_underclocking\software\HBird-workspace\pico_spi\Debug/../src/osp.c:10
	FIFO_CLK_1;
    2616:	5398                	lw	a4,32(a5)
    2618:	04076713          	ori	a4,a4,64
    261c:	d398                	sw	a4,32(a5)
C:\Users\admin\OneDrive - stu.cdu.edu.cn\2024FPGA\fpga_pds_project\cpu\picorv32+dds+osp+logic_alz_underclocking\software\HBird-workspace\pico_spi\Debug/../src/osp.c:13
}
    261e:	8082                	ret

00002620 <print_num>:
print_num():
C:\Users\admin\OneDrive - stu.cdu.edu.cn\2024FPGA\fpga_pds_project\cpu\picorv32+osp\software\HBird-workspace\pico_spi\Debug/../src/uart.c:14
 ** 杈哄帮
 ** 杩帮
 ********************************************************************/
void print_num(uint32_t num, int base)
{
	if(num == 0)
    2620:	e111                	bnez	a0,2624 <print_num+0x4>
C:\Users\admin\OneDrive - stu.cdu.edu.cn\2024FPGA\fpga_pds_project\cpu\picorv32+osp\software\HBird-workspace\pico_spi\Debug/../src/uart.c:20
	{
		return;
	}
	print_num(num/base, base);
	put_char("0123456789abcdef"[num%base]);							//搴扮
}
    2622:	8082                	ret
    2624:	a009                	j	2626 <print_num.part.0>

00002626 <print_num.part.0>:
C:\Users\admin\OneDrive - stu.cdu.edu.cn\2024FPGA\fpga_pds_project\cpu\picorv32+osp\software\HBird-workspace\pico_spi\Debug/../src/uart.c:12
void print_num(uint32_t num, int base)
    2626:	1141                	addi	sp,sp,-16
    2628:	c422                	sw	s0,8(sp)
    262a:	842a                	mv	s0,a0
C:\Users\admin\OneDrive - stu.cdu.edu.cn\2024FPGA\fpga_pds_project\cpu\picorv32+osp\software\HBird-workspace\pico_spi\Debug/../src/uart.c:18
	print_num(num/base, base);
    262c:	02b55533          	divu	a0,a0,a1
C:\Users\admin\OneDrive - stu.cdu.edu.cn\2024FPGA\fpga_pds_project\cpu\picorv32+osp\software\HBird-workspace\pico_spi\Debug/../src/uart.c:12
void print_num(uint32_t num, int base)
    2630:	c226                	sw	s1,4(sp)
    2632:	84ae                	mv	s1,a1
    2634:	c606                	sw	ra,12(sp)
C:\Users\admin\OneDrive - stu.cdu.edu.cn\2024FPGA\fpga_pds_project\cpu\picorv32+osp\software\HBird-workspace\pico_spi\Debug/../src/uart.c:18
	print_num(num/base, base);
    2636:	37ed                	jal	2620 <print_num>
C:\Users\admin\OneDrive - stu.cdu.edu.cn\2024FPGA\fpga_pds_project\cpu\picorv32+osp\software\HBird-workspace\pico_spi\Debug/../src/uart.c:19
	put_char("0123456789abcdef"[num%base]);							//搴扮
    2638:	02947433          	remu	s0,s0,s1
    263c:	000047b7          	lui	a5,0x4
    2640:	68878793          	addi	a5,a5,1672 # 4688 <chines_word+0xc14>
put_char():
C:\Users\admin\OneDrive - stu.cdu.edu.cn\2024FPGA\fpga_pds_project\cpu\picorv32+osp\software\HBird-workspace\pico_spi\Debug/../src/uart.c:31
 ** 杈哄帮
 ** 杩帮
 ********************************************************************/
void put_char(char c)
{
	if (c == '\n')
    2644:	4729                	li	a4,10
print_num():
C:\Users\admin\OneDrive - stu.cdu.edu.cn\2024FPGA\fpga_pds_project\cpu\picorv32+osp\software\HBird-workspace\pico_spi\Debug/../src/uart.c:19
	put_char("0123456789abcdef"[num%base]);							//搴扮
    2646:	943e                	add	s0,s0,a5
    2648:	00040783          	lb	a5,0(s0)
put_char():
C:\Users\admin\OneDrive - stu.cdu.edu.cn\2024FPGA\fpga_pds_project\cpu\picorv32+osp\software\HBird-workspace\pico_spi\Debug/../src/uart.c:31
	if (c == '\n')
    264c:	00e78963          	beq	a5,a4,265e <print_num.part.0+0x38>
print_num():
C:\Users\admin\OneDrive - stu.cdu.edu.cn\2024FPGA\fpga_pds_project\cpu\picorv32+osp\software\HBird-workspace\pico_spi\Debug/../src/uart.c:20
}
    2650:	40b2                	lw	ra,12(sp)
    2652:	4422                	lw	s0,8(sp)
put_char():
C:\Users\admin\OneDrive - stu.cdu.edu.cn\2024FPGA\fpga_pds_project\cpu\picorv32+osp\software\HBird-workspace\pico_spi\Debug/../src/uart.c:33
		put_char('\r');
	reg_uart_data = c;
    2654:	6721                	lui	a4,0x8
    2656:	cb1c                	sw	a5,16(a4)
print_num():
C:\Users\admin\OneDrive - stu.cdu.edu.cn\2024FPGA\fpga_pds_project\cpu\picorv32+osp\software\HBird-workspace\pico_spi\Debug/../src/uart.c:20
}
    2658:	4492                	lw	s1,4(sp)
    265a:	0141                	addi	sp,sp,16
    265c:	8082                	ret
put_char():
C:\Users\admin\OneDrive - stu.cdu.edu.cn\2024FPGA\fpga_pds_project\cpu\picorv32+osp\software\HBird-workspace\pico_spi\Debug/../src/uart.c:33
	reg_uart_data = c;
    265e:	6721                	lui	a4,0x8
print_num():
C:\Users\admin\OneDrive - stu.cdu.edu.cn\2024FPGA\fpga_pds_project\cpu\picorv32+osp\software\HBird-workspace\pico_spi\Debug/../src/uart.c:20
}
    2660:	40b2                	lw	ra,12(sp)
    2662:	4422                	lw	s0,8(sp)
put_char():
C:\Users\admin\OneDrive - stu.cdu.edu.cn\2024FPGA\fpga_pds_project\cpu\picorv32+osp\software\HBird-workspace\pico_spi\Debug/../src/uart.c:33
	reg_uart_data = c;
    2664:	46b5                	li	a3,13
    2666:	cb14                	sw	a3,16(a4)
    2668:	6721                	lui	a4,0x8
    266a:	cb1c                	sw	a5,16(a4)
print_num():
C:\Users\admin\OneDrive - stu.cdu.edu.cn\2024FPGA\fpga_pds_project\cpu\picorv32+osp\software\HBird-workspace\pico_spi\Debug/../src/uart.c:20
}
    266c:	4492                	lw	s1,4(sp)
    266e:	0141                	addi	sp,sp,16
    2670:	8082                	ret

00002672 <put_char>:
put_char():
C:\Users\admin\OneDrive - stu.cdu.edu.cn\2024FPGA\fpga_pds_project\cpu\picorv32+osp\software\HBird-workspace\pico_spi\Debug/../src/uart.c:30
{
    2672:	1141                	addi	sp,sp,-16
    2674:	c422                	sw	s0,8(sp)
    2676:	c606                	sw	ra,12(sp)
C:\Users\admin\OneDrive - stu.cdu.edu.cn\2024FPGA\fpga_pds_project\cpu\picorv32+osp\software\HBird-workspace\pico_spi\Debug/../src/uart.c:31
	if (c == '\n')
    2678:	47a9                	li	a5,10
C:\Users\admin\OneDrive - stu.cdu.edu.cn\2024FPGA\fpga_pds_project\cpu\picorv32+osp\software\HBird-workspace\pico_spi\Debug/../src/uart.c:30
{
    267a:	842a                	mv	s0,a0
C:\Users\admin\OneDrive - stu.cdu.edu.cn\2024FPGA\fpga_pds_project\cpu\picorv32+osp\software\HBird-workspace\pico_spi\Debug/../src/uart.c:31
	if (c == '\n')
    267c:	00f50863          	beq	a0,a5,268c <put_char+0x1a>
C:\Users\admin\OneDrive - stu.cdu.edu.cn\2024FPGA\fpga_pds_project\cpu\picorv32+osp\software\HBird-workspace\pico_spi\Debug/../src/uart.c:33
	reg_uart_data = c;
    2680:	67a1                	lui	a5,0x8
    2682:	cb80                	sw	s0,16(a5)
C:\Users\admin\OneDrive - stu.cdu.edu.cn\2024FPGA\fpga_pds_project\cpu\picorv32+osp\software\HBird-workspace\pico_spi\Debug/../src/uart.c:34
}
    2684:	40b2                	lw	ra,12(sp)
    2686:	4422                	lw	s0,8(sp)
    2688:	0141                	addi	sp,sp,16
    268a:	8082                	ret
C:\Users\admin\OneDrive - stu.cdu.edu.cn\2024FPGA\fpga_pds_project\cpu\picorv32+osp\software\HBird-workspace\pico_spi\Debug/../src/uart.c:32
		put_char('\r');
    268c:	4535                	li	a0,13
    268e:	37d5                	jal	2672 <put_char>
    2690:	bfc5                	j	2680 <put_char+0xe>

00002692 <print_str>:
print_str():
C:\Users\admin\OneDrive - stu.cdu.edu.cn\2024FPGA\fpga_pds_project\cpu\picorv32+osp\software\HBird-workspace\pico_spi\Debug/../src/uart.c:45
 ** 杈哄帮
 ** 杩帮
 ********************************************************************/
void print_str(const char *p)
{
	while (*p)
    2692:	00050783          	lb	a5,0(a0)
    2696:	c38d                	beqz	a5,26b8 <print_str+0x26>
put_char():
C:\Users\admin\OneDrive - stu.cdu.edu.cn\2024FPGA\fpga_pds_project\cpu\picorv32+osp\software\HBird-workspace\pico_spi\Debug/../src/uart.c:31
	if (c == '\n')
    2698:	46a9                	li	a3,10
C:\Users\admin\OneDrive - stu.cdu.edu.cn\2024FPGA\fpga_pds_project\cpu\picorv32+osp\software\HBird-workspace\pico_spi\Debug/../src/uart.c:33
	reg_uart_data = c;
    269a:	6721                	lui	a4,0x8
    269c:	4635                	li	a2,13
    269e:	a029                	j	26a8 <print_str+0x16>
    26a0:	cb1c                	sw	a5,16(a4)
print_str():
C:\Users\admin\OneDrive - stu.cdu.edu.cn\2024FPGA\fpga_pds_project\cpu\picorv32+osp\software\HBird-workspace\pico_spi\Debug/../src/uart.c:45
	while (*p)
    26a2:	00050783          	lb	a5,0(a0)
    26a6:	cb89                	beqz	a5,26b8 <print_str+0x26>
C:\Users\admin\OneDrive - stu.cdu.edu.cn\2024FPGA\fpga_pds_project\cpu\picorv32+osp\software\HBird-workspace\pico_spi\Debug/../src/uart.c:46
		put_char(*(p++));
    26a8:	0505                	addi	a0,a0,1
put_char():
C:\Users\admin\OneDrive - stu.cdu.edu.cn\2024FPGA\fpga_pds_project\cpu\picorv32+osp\software\HBird-workspace\pico_spi\Debug/../src/uart.c:31
	if (c == '\n')
    26aa:	fed79be3          	bne	a5,a3,26a0 <print_str+0xe>
C:\Users\admin\OneDrive - stu.cdu.edu.cn\2024FPGA\fpga_pds_project\cpu\picorv32+osp\software\HBird-workspace\pico_spi\Debug/../src/uart.c:33
	reg_uart_data = c;
    26ae:	cb10                	sw	a2,16(a4)
    26b0:	cb1c                	sw	a5,16(a4)
print_str():
C:\Users\admin\OneDrive - stu.cdu.edu.cn\2024FPGA\fpga_pds_project\cpu\picorv32+osp\software\HBird-workspace\pico_spi\Debug/../src/uart.c:45
	while (*p)
    26b2:	00050783          	lb	a5,0(a0)
    26b6:	fbed                	bnez	a5,26a8 <print_str+0x16>
C:\Users\admin\OneDrive - stu.cdu.edu.cn\2024FPGA\fpga_pds_project\cpu\picorv32+osp\software\HBird-workspace\pico_spi\Debug/../src/uart.c:47
}
    26b8:	8082                	ret

000026ba <print_hex>:
print_hex():
C:\Users\admin\OneDrive - stu.cdu.edu.cn\2024FPGA\fpga_pds_project\cpu\picorv32+osp\software\HBird-workspace\pico_spi\Debug/../src/uart.c:58
 ** 		digits锛版绫诲锛杩躲杩躲杩讹
 ** 杈哄帮
 ** 杩帮
 ********************************************************************/
void print_hex(uint32_t v, int digits)
{
    26ba:	000046b7          	lui	a3,0x4
C:\Users\admin\OneDrive - stu.cdu.edu.cn\2024FPGA\fpga_pds_project\cpu\picorv32+osp\software\HBird-workspace\pico_spi\Debug/../src/uart.c:59
	for (int i = 7; i >= 0; i--)
    26be:	471d                	li	a4,7
    26c0:	68868693          	addi	a3,a3,1672 # 4688 <chines_word+0xc14>
C:\Users\admin\OneDrive - stu.cdu.edu.cn\2024FPGA\fpga_pds_project\cpu\picorv32+osp\software\HBird-workspace\pico_spi\Debug/../src/uart.c:62
	{
		char c = "0123456789abcdef"[(v >> (4*i)) & 15];
		if (c == '0' && i >= digits)
    26c4:	03000893          	li	a7,48
put_char():
C:\Users\admin\OneDrive - stu.cdu.edu.cn\2024FPGA\fpga_pds_project\cpu\picorv32+osp\software\HBird-workspace\pico_spi\Debug/../src/uart.c:33
	reg_uart_data = c;
    26c8:	6621                	lui	a2,0x8
C:\Users\admin\OneDrive - stu.cdu.edu.cn\2024FPGA\fpga_pds_project\cpu\picorv32+osp\software\HBird-workspace\pico_spi\Debug/../src/uart.c:31
	if (c == '\n')
    26ca:	4329                	li	t1,10
C:\Users\admin\OneDrive - stu.cdu.edu.cn\2024FPGA\fpga_pds_project\cpu\picorv32+osp\software\HBird-workspace\pico_spi\Debug/../src/uart.c:33
	reg_uart_data = c;
    26cc:	4e35                	li	t3,13
print_hex():
C:\Users\admin\OneDrive - stu.cdu.edu.cn\2024FPGA\fpga_pds_project\cpu\picorv32+osp\software\HBird-workspace\pico_spi\Debug/../src/uart.c:59
	for (int i = 7; i >= 0; i--)
    26ce:	587d                	li	a6,-1
    26d0:	a801                	j	26e0 <print_hex+0x26>
put_char():
C:\Users\admin\OneDrive - stu.cdu.edu.cn\2024FPGA\fpga_pds_project\cpu\picorv32+osp\software\HBird-workspace\pico_spi\Debug/../src/uart.c:31
	if (c == '\n')
    26d2:	02678763          	beq	a5,t1,2700 <print_hex+0x46>
C:\Users\admin\OneDrive - stu.cdu.edu.cn\2024FPGA\fpga_pds_project\cpu\picorv32+osp\software\HBird-workspace\pico_spi\Debug/../src/uart.c:33
	reg_uart_data = c;
    26d6:	85ba                	mv	a1,a4
    26d8:	ca1c                	sw	a5,16(a2)
print_hex():
C:\Users\admin\OneDrive - stu.cdu.edu.cn\2024FPGA\fpga_pds_project\cpu\picorv32+osp\software\HBird-workspace\pico_spi\Debug/../src/uart.c:59
	for (int i = 7; i >= 0; i--)
    26da:	177d                	addi	a4,a4,-1
    26dc:	03070163          	beq	a4,a6,26fe <print_hex+0x44>
C:\Users\admin\OneDrive - stu.cdu.edu.cn\2024FPGA\fpga_pds_project\cpu\picorv32+osp\software\HBird-workspace\pico_spi\Debug/../src/uart.c:61
		char c = "0123456789abcdef"[(v >> (4*i)) & 15];
    26e0:	00271793          	slli	a5,a4,0x2
    26e4:	00f557b3          	srl	a5,a0,a5
    26e8:	8bbd                	andi	a5,a5,15
    26ea:	97b6                	add	a5,a5,a3
    26ec:	00078783          	lb	a5,0(a5) # 8000 <_etext+0x3824>
C:\Users\admin\OneDrive - stu.cdu.edu.cn\2024FPGA\fpga_pds_project\cpu\picorv32+osp\software\HBird-workspace\pico_spi\Debug/../src/uart.c:62
		if (c == '0' && i >= digits)
    26f0:	ff1791e3          	bne	a5,a7,26d2 <print_hex+0x18>
C:\Users\admin\OneDrive - stu.cdu.edu.cn\2024FPGA\fpga_pds_project\cpu\picorv32+osp\software\HBird-workspace\pico_spi\Debug/../src/uart.c:62 (discriminator 1)
    26f4:	feb741e3          	blt	a4,a1,26d6 <print_hex+0x1c>
C:\Users\admin\OneDrive - stu.cdu.edu.cn\2024FPGA\fpga_pds_project\cpu\picorv32+osp\software\HBird-workspace\pico_spi\Debug/../src/uart.c:59
	for (int i = 7; i >= 0; i--)
    26f8:	177d                	addi	a4,a4,-1
    26fa:	ff0713e3          	bne	a4,a6,26e0 <print_hex+0x26>
C:\Users\admin\OneDrive - stu.cdu.edu.cn\2024FPGA\fpga_pds_project\cpu\picorv32+osp\software\HBird-workspace\pico_spi\Debug/../src/uart.c:67
			continue;
		put_char(c);
		digits = i;
	}
}
    26fe:	8082                	ret
put_char():
C:\Users\admin\OneDrive - stu.cdu.edu.cn\2024FPGA\fpga_pds_project\cpu\picorv32+osp\software\HBird-workspace\pico_spi\Debug/../src/uart.c:33
	reg_uart_data = c;
    2700:	01c62823          	sw	t3,16(a2) # 8010 <_etext+0x3834>
    2704:	bfc9                	j	26d6 <print_hex+0x1c>

00002706 <print_hex2>:
print_hex2():
C:\Users\admin\OneDrive - stu.cdu.edu.cn\2024FPGA\fpga_pds_project\cpu\picorv32+osp\software\HBird-workspace\pico_spi\Debug/../src/uart.c:78
 ** 杈哄帮
 ** 杩帮
 ********************************************************************/
void print_hex2(uint32_t hex)
{
	if(0 == hex)
    2706:	e511                	bnez	a0,2712 <print_hex2+0xc>
put_char():
C:\Users\admin\OneDrive - stu.cdu.edu.cn\2024FPGA\fpga_pds_project\cpu\picorv32+osp\software\HBird-workspace\pico_spi\Debug/../src/uart.c:33
	reg_uart_data = c;
    2708:	67a1                	lui	a5,0x8
    270a:	03000713          	li	a4,48
    270e:	cb98                	sw	a4,16(a5)
print_hex2():
C:\Users\admin\OneDrive - stu.cdu.edu.cn\2024FPGA\fpga_pds_project\cpu\picorv32+osp\software\HBird-workspace\pico_spi\Debug/../src/uart.c:87
	}
	else
	{
		print_num(hex, 16);											//板杩舵
	}
}
    2710:	8082                	ret
print_num():
    2712:	45c1                	li	a1,16
    2714:	f13ff06f          	j	2626 <print_num.part.0>

00002718 <print_dec>:
print_dec():
C:\Users\admin\OneDrive - stu.cdu.edu.cn\2024FPGA\fpga_pds_project\cpu\picorv32+osp\software\HBird-workspace\pico_spi\Debug/../src/uart.c:97
 ** 杈哄帮
 ** 杩帮
 ********************************************************************/
void print_dec(uint32_t v)
{
	if(0 == v)
    2718:	e511                	bnez	a0,2724 <print_dec+0xc>
put_char():
C:\Users\admin\OneDrive - stu.cdu.edu.cn\2024FPGA\fpga_pds_project\cpu\picorv32+osp\software\HBird-workspace\pico_spi\Debug/../src/uart.c:33
	reg_uart_data = c;
    271a:	67a1                	lui	a5,0x8
    271c:	03000713          	li	a4,48
    2720:	cb98                	sw	a4,16(a5)
print_dec():
C:\Users\admin\OneDrive - stu.cdu.edu.cn\2024FPGA\fpga_pds_project\cpu\picorv32+osp\software\HBird-workspace\pico_spi\Debug/../src/uart.c:106
	}
	else
	{
		print_num(v, 10);											//板杩舵
	}
}
    2722:	8082                	ret
print_num():
    2724:	45a9                	li	a1,10
    2726:	f01ff06f          	j	2626 <print_num.part.0>

0000272a <print_flt>:
print_flt():
C:\Users\admin\OneDrive - stu.cdu.edu.cn\2024FPGA\fpga_pds_project\cpu\picorv32+osp\software\HBird-workspace\pico_spi\Debug/../src/uart.c:116
 ** 杈ュ帮flt:扮娴规
 ** 杈哄帮
 ** 杩帮
 ********************************************************************/
void print_flt(double flt)
{
    272a:	1101                	addi	sp,sp,-32
    272c:	cc22                	sw	s0,24(sp)
    272e:	c84a                	sw	s2,16(sp)
    2730:	c64e                	sw	s3,12(sp)
    2732:	ce06                	sw	ra,28(sp)
    2734:	ca26                	sw	s1,20(sp)
    2736:	892a                	mv	s2,a0
    2738:	89ae                	mv	s3,a1
C:\Users\admin\OneDrive - stu.cdu.edu.cn\2024FPGA\fpga_pds_project\cpu\picorv32+osp\software\HBird-workspace\pico_spi\Debug/../src/uart.c:120
	uint32_t icnt = 0;
	uint32_t tmpint = 0;

	tmpint = (int)(flt);
    273a:	162010ef          	jal	ra,389c <__fixdfsi>
    273e:	842a                	mv	s0,a0
print_dec():
C:\Users\admin\OneDrive - stu.cdu.edu.cn\2024FPGA\fpga_pds_project\cpu\picorv32+osp\software\HBird-workspace\pico_spi\Debug/../src/uart.c:97
	if(0 == v)
    2740:	ed39                	bnez	a0,279e <print_flt+0x74>
put_char():
C:\Users\admin\OneDrive - stu.cdu.edu.cn\2024FPGA\fpga_pds_project\cpu\picorv32+osp\software\HBird-workspace\pico_spi\Debug/../src/uart.c:33
	reg_uart_data = c;
    2742:	67a1                	lui	a5,0x8
    2744:	03000713          	li	a4,48
    2748:	cb98                	sw	a4,16(a5)
    274a:	02e00793          	li	a5,46
    274e:	64a1                	lui	s1,0x8
    2750:	c89c                	sw	a5,16(s1)
print_flt():
C:\Users\admin\OneDrive - stu.cdu.edu.cn\2024FPGA\fpga_pds_project\cpu\picorv32+osp\software\HBird-workspace\pico_spi\Debug/../src/uart.c:123
	print_dec(tmpint);
	put_char('.');
	flt = flt - tmpint;
    2752:	8522                	mv	a0,s0
    2754:	1cc010ef          	jal	ra,3920 <__floatunsidf>
    2758:	862a                	mv	a2,a0
    275a:	86ae                	mv	a3,a1
    275c:	854a                	mv	a0,s2
    275e:	85ce                	mv	a1,s3
    2760:	0bd000ef          	jal	ra,301c <__subdf3>
C:\Users\admin\OneDrive - stu.cdu.edu.cn\2024FPGA\fpga_pds_project\cpu\picorv32+osp\software\HBird-workspace\pico_spi\Debug/../src/uart.c:124
	tmpint = (int)(flt * 1000000);
    2764:	000047b7          	lui	a5,0x4
    2768:	6807a603          	lw	a2,1664(a5) # 4680 <chines_word+0xc0c>
    276c:	6847a683          	lw	a3,1668(a5)
    2770:	2405                	jal	2990 <__muldf3>
    2772:	12a010ef          	jal	ra,389c <__fixdfsi>
print_dec():
C:\Users\admin\OneDrive - stu.cdu.edu.cn\2024FPGA\fpga_pds_project\cpu\picorv32+osp\software\HBird-workspace\pico_spi\Debug/../src/uart.c:97
	if(0 == v)
    2776:	e919                	bnez	a0,278c <print_flt+0x62>
print_flt():
C:\Users\admin\OneDrive - stu.cdu.edu.cn\2024FPGA\fpga_pds_project\cpu\picorv32+osp\software\HBird-workspace\pico_spi\Debug/../src/uart.c:126
	print_dec(tmpint);
}
    2778:	40f2                	lw	ra,28(sp)
    277a:	4462                	lw	s0,24(sp)
put_char():
C:\Users\admin\OneDrive - stu.cdu.edu.cn\2024FPGA\fpga_pds_project\cpu\picorv32+osp\software\HBird-workspace\pico_spi\Debug/../src/uart.c:33
	reg_uart_data = c;
    277c:	03000793          	li	a5,48
    2780:	c89c                	sw	a5,16(s1)
print_flt():
C:\Users\admin\OneDrive - stu.cdu.edu.cn\2024FPGA\fpga_pds_project\cpu\picorv32+osp\software\HBird-workspace\pico_spi\Debug/../src/uart.c:126
}
    2782:	4942                	lw	s2,16(sp)
    2784:	44d2                	lw	s1,20(sp)
    2786:	49b2                	lw	s3,12(sp)
    2788:	6105                	addi	sp,sp,32
    278a:	8082                	ret
    278c:	4462                	lw	s0,24(sp)
    278e:	40f2                	lw	ra,28(sp)
    2790:	44d2                	lw	s1,20(sp)
    2792:	4942                	lw	s2,16(sp)
    2794:	49b2                	lw	s3,12(sp)
print_num():
    2796:	45a9                	li	a1,10
print_flt():
    2798:	6105                	addi	sp,sp,32
print_num():
    279a:	e8dff06f          	j	2626 <print_num.part.0>
    279e:	45a9                	li	a1,10
    27a0:	e87ff0ef          	jal	ra,2626 <print_num.part.0>
    27a4:	b75d                	j	274a <print_flt+0x20>

000027a6 <printk>:
printk():
C:\Users\admin\OneDrive - stu.cdu.edu.cn\2024FPGA\fpga_pds_project\cpu\picorv32+osp\software\HBird-workspace\pico_spi\Debug/../src/uart.c:136
 ** 杈ュ帮fmt锛扮瀛绗涓插瀹
 ** 杈哄帮
 ** 杩帮
 ********************************************************************/
void printk(char *fmt, ...)
{
    27a6:	715d                	addi	sp,sp,-80
    27a8:	c0ba                	sw	a4,64(sp)
    27aa:	d606                	sw	ra,44(sp)
    27ac:	d422                	sw	s0,40(sp)
    27ae:	d226                	sw	s1,36(sp)
    27b0:	d04a                	sw	s2,32(sp)
    27b2:	ce4e                	sw	s3,28(sp)
    27b4:	cc52                	sw	s4,24(sp)
    27b6:	ca56                	sw	s5,20(sp)
    27b8:	c85a                	sw	s6,16(sp)
    27ba:	da2e                	sw	a1,52(sp)
    27bc:	dc32                	sw	a2,56(sp)
    27be:	de36                	sw	a3,60(sp)
    27c0:	c2be                	sw	a5,68(sp)
    27c2:	c4c2                	sw	a6,72(sp)
    27c4:	c6c6                	sw	a7,76(sp)
C:\Users\admin\OneDrive - stu.cdu.edu.cn\2024FPGA\fpga_pds_project\cpu\picorv32+osp\software\HBird-workspace\pico_spi\Debug/../src/uart.c:143
	va_list vp;

	va_start(vp, fmt);
	pfmt = fmt;

	while(*pfmt)
    27c6:	00050783          	lb	a5,0(a0)
C:\Users\admin\OneDrive - stu.cdu.edu.cn\2024FPGA\fpga_pds_project\cpu\picorv32+osp\software\HBird-workspace\pico_spi\Debug/../src/uart.c:140
	va_start(vp, fmt);
    27ca:	1858                	addi	a4,sp,52
    27cc:	c63a                	sw	a4,12(sp)
C:\Users\admin\OneDrive - stu.cdu.edu.cn\2024FPGA\fpga_pds_project\cpu\picorv32+osp\software\HBird-workspace\pico_spi\Debug/../src/uart.c:143
	while(*pfmt)
    27ce:	c3b9                	beqz	a5,2814 <printk+0x6e>
C:\Users\admin\OneDrive - stu.cdu.edu.cn\2024FPGA\fpga_pds_project\cpu\picorv32+osp\software\HBird-workspace\pico_spi\Debug/../src/uart.c:149
	{
		switch(*pfmt)
		{
			case '%':
			{
				switch(*(pfmt + 1))
    27d0:	6a91                	lui	s5,0x4
    27d2:	84aa                	mv	s1,a0
C:\Users\admin\OneDrive - stu.cdu.edu.cn\2024FPGA\fpga_pds_project\cpu\picorv32+osp\software\HBird-workspace\pico_spi\Debug/../src/uart.c:145
		switch(*pfmt)
    27d4:	4929                	li	s2,10
put_char():
C:\Users\admin\OneDrive - stu.cdu.edu.cn\2024FPGA\fpga_pds_project\cpu\picorv32+osp\software\HBird-workspace\pico_spi\Debug/../src/uart.c:33
	reg_uart_data = c;
    27d6:	69a1                	lui	s3,0x8
    27d8:	4b35                	li	s6,13
printk():
C:\Users\admin\OneDrive - stu.cdu.edu.cn\2024FPGA\fpga_pds_project\cpu\picorv32+osp\software\HBird-workspace\pico_spi\Debug/../src/uart.c:145
		switch(*pfmt)
    27da:	02500a13          	li	s4,37
C:\Users\admin\OneDrive - stu.cdu.edu.cn\2024FPGA\fpga_pds_project\cpu\picorv32+osp\software\HBird-workspace\pico_spi\Debug/../src/uart.c:149
				switch(*(pfmt + 1))
    27de:	52ca8a93          	addi	s5,s5,1324 # 452c <chines_word+0xab8>
    27e2:	a819                	j	27f8 <printk+0x52>
C:\Users\admin\OneDrive - stu.cdu.edu.cn\2024FPGA\fpga_pds_project\cpu\picorv32+osp\software\HBird-workspace\pico_spi\Debug/../src/uart.c:145
		switch(*pfmt)
    27e4:	05478263          	beq	a5,s4,2828 <printk+0x82>
put_char():
C:\Users\admin\OneDrive - stu.cdu.edu.cn\2024FPGA\fpga_pds_project\cpu\picorv32+osp\software\HBird-workspace\pico_spi\Debug/../src/uart.c:33
	reg_uart_data = c;
    27e8:	8722                	mv	a4,s0
    27ea:	00f9a823          	sw	a5,16(s3) # 8010 <_etext+0x3834>
    27ee:	8426                	mv	s0,s1
    27f0:	84ba                	mv	s1,a4
printk():
C:\Users\admin\OneDrive - stu.cdu.edu.cn\2024FPGA\fpga_pds_project\cpu\picorv32+osp\software\HBird-workspace\pico_spi\Debug/../src/uart.c:143
	while(*pfmt)
    27f2:	00140783          	lb	a5,1(s0)
    27f6:	cf99                	beqz	a5,2814 <printk+0x6e>
    27f8:	00148413          	addi	s0,s1,1 # 8001 <_etext+0x3825>
C:\Users\admin\OneDrive - stu.cdu.edu.cn\2024FPGA\fpga_pds_project\cpu\picorv32+osp\software\HBird-workspace\pico_spi\Debug/../src/uart.c:145
		switch(*pfmt)
    27fc:	ff2794e3          	bne	a5,s2,27e4 <printk+0x3e>
put_char():
C:\Users\admin\OneDrive - stu.cdu.edu.cn\2024FPGA\fpga_pds_project\cpu\picorv32+osp\software\HBird-workspace\pico_spi\Debug/../src/uart.c:33
	reg_uart_data = c;
    2800:	0169a823          	sw	s6,16(s3)
    2804:	87a2                	mv	a5,s0
    2806:	0129a823          	sw	s2,16(s3)
    280a:	8426                	mv	s0,s1
    280c:	84be                	mv	s1,a5
printk():
C:\Users\admin\OneDrive - stu.cdu.edu.cn\2024FPGA\fpga_pds_project\cpu\picorv32+osp\software\HBird-workspace\pico_spi\Debug/../src/uart.c:143
	while(*pfmt)
    280e:	00140783          	lb	a5,1(s0)
    2812:	f3fd                	bnez	a5,27f8 <printk+0x52>
C:\Users\admin\OneDrive - stu.cdu.edu.cn\2024FPGA\fpga_pds_project\cpu\picorv32+osp\software\HBird-workspace\pico_spi\Debug/../src/uart.c:201
				break;
		}
		pfmt++;
	}
	va_end(vp);
}
    2814:	50b2                	lw	ra,44(sp)
    2816:	5422                	lw	s0,40(sp)
    2818:	5492                	lw	s1,36(sp)
    281a:	5902                	lw	s2,32(sp)
    281c:	49f2                	lw	s3,28(sp)
    281e:	4a62                	lw	s4,24(sp)
    2820:	4ad2                	lw	s5,20(sp)
    2822:	4b42                	lw	s6,16(sp)
    2824:	6161                	addi	sp,sp,80
    2826:	8082                	ret
C:\Users\admin\OneDrive - stu.cdu.edu.cn\2024FPGA\fpga_pds_project\cpu\picorv32+osp\software\HBird-workspace\pico_spi\Debug/../src/uart.c:149
				switch(*(pfmt + 1))
    2828:	0014c783          	lbu	a5,1(s1)
    282c:	05300713          	li	a4,83
    2830:	fdb78793          	addi	a5,a5,-37
    2834:	0ff7f793          	andi	a5,a5,255
    2838:	00f76663          	bltu	a4,a5,2844 <printk+0x9e>
    283c:	078a                	slli	a5,a5,0x2
    283e:	97d6                	add	a5,a5,s5
    2840:	439c                	lw	a5,0(a5)
    2842:	8782                	jr	a5
put_char():
C:\Users\admin\OneDrive - stu.cdu.edu.cn\2024FPGA\fpga_pds_project\cpu\picorv32+osp\software\HBird-workspace\pico_spi\Debug/../src/uart.c:33
	reg_uart_data = c;
    2844:	87a2                	mv	a5,s0
    2846:	0149a823          	sw	s4,16(s3)
    284a:	8426                	mv	s0,s1
    284c:	84be                	mv	s1,a5
    284e:	b755                	j	27f2 <printk+0x4c>
printk():
C:\Users\admin\OneDrive - stu.cdu.edu.cn\2024FPGA\fpga_pds_project\cpu\picorv32+osp\software\HBird-workspace\pico_spi\Debug/../src/uart.c:152
						put_char(va_arg(vp, int));
    2850:	47b2                	lw	a5,12(sp)
    2852:	00078703          	lb	a4,0(a5)
    2856:	0791                	addi	a5,a5,4
    2858:	c63e                	sw	a5,12(sp)
put_char():
C:\Users\admin\OneDrive - stu.cdu.edu.cn\2024FPGA\fpga_pds_project\cpu\picorv32+osp\software\HBird-workspace\pico_spi\Debug/../src/uart.c:31
	if (c == '\n')
    285a:	09270063          	beq	a4,s2,28da <printk+0x134>
C:\Users\admin\OneDrive - stu.cdu.edu.cn\2024FPGA\fpga_pds_project\cpu\picorv32+osp\software\HBird-workspace\pico_spi\Debug/../src/uart.c:33
	reg_uart_data = c;
    285e:	00e9a823          	sw	a4,16(s3)
    2862:	0489                	addi	s1,s1,2
printk():
C:\Users\admin\OneDrive - stu.cdu.edu.cn\2024FPGA\fpga_pds_project\cpu\picorv32+osp\software\HBird-workspace\pico_spi\Debug/../src/uart.c:154
						break;
    2864:	b779                	j	27f2 <printk+0x4c>
C:\Users\admin\OneDrive - stu.cdu.edu.cn\2024FPGA\fpga_pds_project\cpu\picorv32+osp\software\HBird-workspace\pico_spi\Debug/../src/uart.c:175
						print_hex2(va_arg(vp, int));
    2866:	47b2                	lw	a5,12(sp)
    2868:	4388                	lw	a0,0(a5)
    286a:	0791                	addi	a5,a5,4
    286c:	c63e                	sw	a5,12(sp)
print_hex2():
C:\Users\admin\OneDrive - stu.cdu.edu.cn\2024FPGA\fpga_pds_project\cpu\picorv32+osp\software\HBird-workspace\pico_spi\Debug/../src/uart.c:78
	if(0 == hex)
    286e:	e12d                	bnez	a0,28d0 <printk+0x12a>
put_char():
C:\Users\admin\OneDrive - stu.cdu.edu.cn\2024FPGA\fpga_pds_project\cpu\picorv32+osp\software\HBird-workspace\pico_spi\Debug/../src/uart.c:33
	reg_uart_data = c;
    2870:	03000793          	li	a5,48
    2874:	00f9a823          	sw	a5,16(s3)
    2878:	0489                	addi	s1,s1,2
printk():
C:\Users\admin\OneDrive - stu.cdu.edu.cn\2024FPGA\fpga_pds_project\cpu\picorv32+osp\software\HBird-workspace\pico_spi\Debug/../src/uart.c:177
						break;
    287a:	bfa5                	j	27f2 <printk+0x4c>
C:\Users\admin\OneDrive - stu.cdu.edu.cn\2024FPGA\fpga_pds_project\cpu\picorv32+osp\software\HBird-workspace\pico_spi\Debug/../src/uart.c:158
						print_dec(va_arg(vp, int));
    287c:	47b2                	lw	a5,12(sp)
    287e:	4388                	lw	a0,0(a5)
    2880:	0791                	addi	a5,a5,4
    2882:	c63e                	sw	a5,12(sp)
print_dec():
C:\Users\admin\OneDrive - stu.cdu.edu.cn\2024FPGA\fpga_pds_project\cpu\picorv32+osp\software\HBird-workspace\pico_spi\Debug/../src/uart.c:97
	if(0 == v)
    2884:	d575                	beqz	a0,2870 <printk+0xca>
print_num():
    2886:	45a9                	li	a1,10
    2888:	d9fff0ef          	jal	ra,2626 <print_num.part.0>
    288c:	0489                	addi	s1,s1,2
    288e:	b795                	j	27f2 <printk+0x4c>
printk():
C:\Users\admin\OneDrive - stu.cdu.edu.cn\2024FPGA\fpga_pds_project\cpu\picorv32+osp\software\HBird-workspace\pico_spi\Debug/../src/uart.c:169
						print_str(va_arg(vp, char*));
    2890:	47b2                	lw	a5,12(sp)
    2892:	4398                	lw	a4,0(a5)
    2894:	0791                	addi	a5,a5,4
    2896:	c63e                	sw	a5,12(sp)
print_str():
C:\Users\admin\OneDrive - stu.cdu.edu.cn\2024FPGA\fpga_pds_project\cpu\picorv32+osp\software\HBird-workspace\pico_spi\Debug/../src/uart.c:45
	while (*p)
    2898:	00070783          	lb	a5,0(a4) # 8000 <_etext+0x3824>
    289c:	dff1                	beqz	a5,2878 <printk+0xd2>
C:\Users\admin\OneDrive - stu.cdu.edu.cn\2024FPGA\fpga_pds_project\cpu\picorv32+osp\software\HBird-workspace\pico_spi\Debug/../src/uart.c:46
		put_char(*(p++));
    289e:	0705                	addi	a4,a4,1
put_char():
C:\Users\admin\OneDrive - stu.cdu.edu.cn\2024FPGA\fpga_pds_project\cpu\picorv32+osp\software\HBird-workspace\pico_spi\Debug/../src/uart.c:31
	if (c == '\n')
    28a0:	01278a63          	beq	a5,s2,28b4 <printk+0x10e>
C:\Users\admin\OneDrive - stu.cdu.edu.cn\2024FPGA\fpga_pds_project\cpu\picorv32+osp\software\HBird-workspace\pico_spi\Debug/../src/uart.c:33
	reg_uart_data = c;
    28a4:	00f9a823          	sw	a5,16(s3)
print_str():
C:\Users\admin\OneDrive - stu.cdu.edu.cn\2024FPGA\fpga_pds_project\cpu\picorv32+osp\software\HBird-workspace\pico_spi\Debug/../src/uart.c:45
	while (*p)
    28a8:	00070783          	lb	a5,0(a4)
    28ac:	d7f1                	beqz	a5,2878 <printk+0xd2>
C:\Users\admin\OneDrive - stu.cdu.edu.cn\2024FPGA\fpga_pds_project\cpu\picorv32+osp\software\HBird-workspace\pico_spi\Debug/../src/uart.c:46
		put_char(*(p++));
    28ae:	0705                	addi	a4,a4,1
put_char():
C:\Users\admin\OneDrive - stu.cdu.edu.cn\2024FPGA\fpga_pds_project\cpu\picorv32+osp\software\HBird-workspace\pico_spi\Debug/../src/uart.c:31
	if (c == '\n')
    28b0:	ff279ae3          	bne	a5,s2,28a4 <printk+0xfe>
C:\Users\admin\OneDrive - stu.cdu.edu.cn\2024FPGA\fpga_pds_project\cpu\picorv32+osp\software\HBird-workspace\pico_spi\Debug/../src/uart.c:33
	reg_uart_data = c;
    28b4:	0169a823          	sw	s6,16(s3)
    28b8:	b7f5                	j	28a4 <printk+0xfe>
printk():
C:\Users\admin\OneDrive - stu.cdu.edu.cn\2024FPGA\fpga_pds_project\cpu\picorv32+osp\software\HBird-workspace\pico_spi\Debug/../src/uart.c:163
						print_flt(va_arg(vp, double));
    28ba:	47b2                	lw	a5,12(sp)
    28bc:	0489                	addi	s1,s1,2
    28be:	079d                	addi	a5,a5,7
    28c0:	9be1                	andi	a5,a5,-8
    28c2:	4388                	lw	a0,0(a5)
    28c4:	43cc                	lw	a1,4(a5)
    28c6:	07a1                	addi	a5,a5,8
    28c8:	c63e                	sw	a5,12(sp)
    28ca:	e61ff0ef          	jal	ra,272a <print_flt>
C:\Users\admin\OneDrive - stu.cdu.edu.cn\2024FPGA\fpga_pds_project\cpu\picorv32+osp\software\HBird-workspace\pico_spi\Debug/../src/uart.c:165
						break;
    28ce:	b715                	j	27f2 <printk+0x4c>
print_num():
    28d0:	45c1                	li	a1,16
    28d2:	d55ff0ef          	jal	ra,2626 <print_num.part.0>
    28d6:	0489                	addi	s1,s1,2
    28d8:	bf29                	j	27f2 <printk+0x4c>
put_char():
C:\Users\admin\OneDrive - stu.cdu.edu.cn\2024FPGA\fpga_pds_project\cpu\picorv32+osp\software\HBird-workspace\pico_spi\Debug/../src/uart.c:33
	reg_uart_data = c;
    28da:	0169a823          	sw	s6,16(s3)
    28de:	b741                	j	285e <printk+0xb8>

000028e0 <getchar_prompt>:
getchar_prompt():
C:\Users\admin\OneDrive - stu.cdu.edu.cn\2024FPGA\fpga_pds_project\cpu\picorv32+osp\software\HBird-workspace\pico_spi\Debug/../src/uart.c:215
char getchar_prompt(char *prompt)
{
	int32_t c = -1;

	uint32_t cycles_begin, cycles_now, cycles;
	__asm__ volatile ("rdcycle %0" : "=r"(cycles_begin));
    28e0:	c00025f3          	rdcycle	a1
C:\Users\admin\OneDrive - stu.cdu.edu.cn\2024FPGA\fpga_pds_project\cpu\picorv32+osp\software\HBird-workspace\pico_spi\Debug/../src/uart.c:217

	if (prompt)
    28e4:	c515                	beqz	a0,2910 <getchar_prompt+0x30>
print_str():
C:\Users\admin\OneDrive - stu.cdu.edu.cn\2024FPGA\fpga_pds_project\cpu\picorv32+osp\software\HBird-workspace\pico_spi\Debug/../src/uart.c:45
	while (*p)
    28e6:	00050783          	lb	a5,0(a0)
    28ea:	c39d                	beqz	a5,2910 <getchar_prompt+0x30>
    28ec:	872a                	mv	a4,a0
put_char():
C:\Users\admin\OneDrive - stu.cdu.edu.cn\2024FPGA\fpga_pds_project\cpu\picorv32+osp\software\HBird-workspace\pico_spi\Debug/../src/uart.c:31
	if (c == '\n')
    28ee:	4629                	li	a2,10
C:\Users\admin\OneDrive - stu.cdu.edu.cn\2024FPGA\fpga_pds_project\cpu\picorv32+osp\software\HBird-workspace\pico_spi\Debug/../src/uart.c:33
	reg_uart_data = c;
    28f0:	66a1                	lui	a3,0x8
    28f2:	4835                	li	a6,13
    28f4:	a029                	j	28fe <getchar_prompt+0x1e>
    28f6:	ca9c                	sw	a5,16(a3)
print_str():
C:\Users\admin\OneDrive - stu.cdu.edu.cn\2024FPGA\fpga_pds_project\cpu\picorv32+osp\software\HBird-workspace\pico_spi\Debug/../src/uart.c:45
	while (*p)
    28f8:	00070783          	lb	a5,0(a4)
    28fc:	cb91                	beqz	a5,2910 <getchar_prompt+0x30>
C:\Users\admin\OneDrive - stu.cdu.edu.cn\2024FPGA\fpga_pds_project\cpu\picorv32+osp\software\HBird-workspace\pico_spi\Debug/../src/uart.c:46
		put_char(*(p++));
    28fe:	0705                	addi	a4,a4,1
put_char():
C:\Users\admin\OneDrive - stu.cdu.edu.cn\2024FPGA\fpga_pds_project\cpu\picorv32+osp\software\HBird-workspace\pico_spi\Debug/../src/uart.c:31
	if (c == '\n')
    2900:	fec79be3          	bne	a5,a2,28f6 <getchar_prompt+0x16>
C:\Users\admin\OneDrive - stu.cdu.edu.cn\2024FPGA\fpga_pds_project\cpu\picorv32+osp\software\HBird-workspace\pico_spi\Debug/../src/uart.c:33
	reg_uart_data = c;
    2904:	0106a823          	sw	a6,16(a3) # 8010 <_etext+0x3834>
    2908:	ca9c                	sw	a5,16(a3)
print_str():
C:\Users\admin\OneDrive - stu.cdu.edu.cn\2024FPGA\fpga_pds_project\cpu\picorv32+osp\software\HBird-workspace\pico_spi\Debug/../src/uart.c:45
	while (*p)
    290a:	00070783          	lb	a5,0(a4)
    290e:	fbe5                	bnez	a5,28fe <getchar_prompt+0x1e>
getchar_prompt():
C:\Users\admin\OneDrive - stu.cdu.edu.cn\2024FPGA\fpga_pds_project\cpu\picorv32+osp\software\HBird-workspace\pico_spi\Debug/../src/uart.c:224

	while (c == -1)
	{
		__asm__ volatile ("rdcycle %0" : "=r"(cycles_now));
		cycles = cycles_now - cycles_begin;
		if (cycles > 12000000)
    2910:	00b728b7          	lui	a7,0xb72
    2914:	b0088893          	addi	a7,a7,-1280 # b71b00 <_etext+0xb6d324>
put_char():
C:\Users\admin\OneDrive - stu.cdu.edu.cn\2024FPGA\fpga_pds_project\cpu\picorv32+osp\software\HBird-workspace\pico_spi\Debug/../src/uart.c:31
	if (c == '\n')
    2918:	4829                	li	a6,10
C:\Users\admin\OneDrive - stu.cdu.edu.cn\2024FPGA\fpga_pds_project\cpu\picorv32+osp\software\HBird-workspace\pico_spi\Debug/../src/uart.c:33
	reg_uart_data = c;
    291a:	66a1                	lui	a3,0x8
    291c:	4e35                	li	t3,13
getchar_prompt():
C:\Users\admin\OneDrive - stu.cdu.edu.cn\2024FPGA\fpga_pds_project\cpu\picorv32+osp\software\HBird-workspace\pico_spi\Debug/../src/uart.c:220
	while (c == -1)
    291e:	537d                	li	t1,-1
C:\Users\admin\OneDrive - stu.cdu.edu.cn\2024FPGA\fpga_pds_project\cpu\picorv32+osp\software\HBird-workspace\pico_spi\Debug/../src/uart.c:222
		__asm__ volatile ("rdcycle %0" : "=r"(cycles_now));
    2920:	c0002673          	rdcycle	a2
C:\Users\admin\OneDrive - stu.cdu.edu.cn\2024FPGA\fpga_pds_project\cpu\picorv32+osp\software\HBird-workspace\pico_spi\Debug/../src/uart.c:223
		cycles = cycles_now - cycles_begin;
    2924:	40b607b3          	sub	a5,a2,a1
C:\Users\admin\OneDrive - stu.cdu.edu.cn\2024FPGA\fpga_pds_project\cpu\picorv32+osp\software\HBird-workspace\pico_spi\Debug/../src/uart.c:224
		if (cycles > 12000000)
    2928:	02f8f763          	bleu	a5,a7,2956 <getchar_prompt+0x76>
C:\Users\admin\OneDrive - stu.cdu.edu.cn\2024FPGA\fpga_pds_project\cpu\picorv32+osp\software\HBird-workspace\pico_spi\Debug/../src/uart.c:230
		{
			if (prompt)
			{
				print_str(prompt);
			}
			cycles_begin = cycles_now;
    292c:	85b2                	mv	a1,a2
C:\Users\admin\OneDrive - stu.cdu.edu.cn\2024FPGA\fpga_pds_project\cpu\picorv32+osp\software\HBird-workspace\pico_spi\Debug/../src/uart.c:226
			if (prompt)
    292e:	c505                	beqz	a0,2956 <getchar_prompt+0x76>
print_str():
C:\Users\admin\OneDrive - stu.cdu.edu.cn\2024FPGA\fpga_pds_project\cpu\picorv32+osp\software\HBird-workspace\pico_spi\Debug/../src/uart.c:45
	while (*p)
    2930:	00050783          	lb	a5,0(a0)
    2934:	c38d                	beqz	a5,2956 <getchar_prompt+0x76>
    2936:	872a                	mv	a4,a0
    2938:	a029                	j	2942 <getchar_prompt+0x62>
put_char():
C:\Users\admin\OneDrive - stu.cdu.edu.cn\2024FPGA\fpga_pds_project\cpu\picorv32+osp\software\HBird-workspace\pico_spi\Debug/../src/uart.c:33
	reg_uart_data = c;
    293a:	ca9c                	sw	a5,16(a3)
print_str():
C:\Users\admin\OneDrive - stu.cdu.edu.cn\2024FPGA\fpga_pds_project\cpu\picorv32+osp\software\HBird-workspace\pico_spi\Debug/../src/uart.c:45
	while (*p)
    293c:	00070783          	lb	a5,0(a4)
    2940:	cb91                	beqz	a5,2954 <getchar_prompt+0x74>
C:\Users\admin\OneDrive - stu.cdu.edu.cn\2024FPGA\fpga_pds_project\cpu\picorv32+osp\software\HBird-workspace\pico_spi\Debug/../src/uart.c:46
		put_char(*(p++));
    2942:	0705                	addi	a4,a4,1
put_char():
C:\Users\admin\OneDrive - stu.cdu.edu.cn\2024FPGA\fpga_pds_project\cpu\picorv32+osp\software\HBird-workspace\pico_spi\Debug/../src/uart.c:31
	if (c == '\n')
    2944:	ff079be3          	bne	a5,a6,293a <getchar_prompt+0x5a>
C:\Users\admin\OneDrive - stu.cdu.edu.cn\2024FPGA\fpga_pds_project\cpu\picorv32+osp\software\HBird-workspace\pico_spi\Debug/../src/uart.c:33
	reg_uart_data = c;
    2948:	01c6a823          	sw	t3,16(a3) # 8010 <_etext+0x3834>
    294c:	ca9c                	sw	a5,16(a3)
print_str():
C:\Users\admin\OneDrive - stu.cdu.edu.cn\2024FPGA\fpga_pds_project\cpu\picorv32+osp\software\HBird-workspace\pico_spi\Debug/../src/uart.c:45
	while (*p)
    294e:	00070783          	lb	a5,0(a4)
    2952:	fbe5                	bnez	a5,2942 <getchar_prompt+0x62>
getchar_prompt():
C:\Users\admin\OneDrive - stu.cdu.edu.cn\2024FPGA\fpga_pds_project\cpu\picorv32+osp\software\HBird-workspace\pico_spi\Debug/../src/uart.c:230
			cycles_begin = cycles_now;
    2954:	85b2                	mv	a1,a2
C:\Users\admin\OneDrive - stu.cdu.edu.cn\2024FPGA\fpga_pds_project\cpu\picorv32+osp\software\HBird-workspace\pico_spi\Debug/../src/uart.c:232
		}
		c = reg_uart_data;
    2956:	4a9c                	lw	a5,16(a3)
C:\Users\admin\OneDrive - stu.cdu.edu.cn\2024FPGA\fpga_pds_project\cpu\picorv32+osp\software\HBird-workspace\pico_spi\Debug/../src/uart.c:220
	while (c == -1)
    2958:	fc6784e3          	beq	a5,t1,2920 <getchar_prompt+0x40>
C:\Users\admin\OneDrive - stu.cdu.edu.cn\2024FPGA\fpga_pds_project\cpu\picorv32+osp\software\HBird-workspace\pico_spi\Debug/../src/uart.c:236
	}

	return c;
}
    295c:	01879513          	slli	a0,a5,0x18
    2960:	8561                	srai	a0,a0,0x18
    2962:	8082                	ret

00002964 <get_char>:
get_char():
C:\Users\admin\OneDrive - stu.cdu.edu.cn\2024FPGA\fpga_pds_project\cpu\picorv32+osp\software\HBird-workspace\pico_spi\Debug/../src/uart.c:246
 ** 杈ュ帮
 ** 杈哄帮
 ** 杩帮杈虹瀛绗
 ********************************************************************/
char get_char()
{
    2964:	1141                	addi	sp,sp,-16
C:\Users\admin\OneDrive - stu.cdu.edu.cn\2024FPGA\fpga_pds_project\cpu\picorv32+osp\software\HBird-workspace\pico_spi\Debug/../src/uart.c:248
//	return getchar_prompt(0);
	put_char(getchar_prompt(0));
    2966:	4501                	li	a0,0
C:\Users\admin\OneDrive - stu.cdu.edu.cn\2024FPGA\fpga_pds_project\cpu\picorv32+osp\software\HBird-workspace\pico_spi\Debug/../src/uart.c:246
{
    2968:	c606                	sw	ra,12(sp)
C:\Users\admin\OneDrive - stu.cdu.edu.cn\2024FPGA\fpga_pds_project\cpu\picorv32+osp\software\HBird-workspace\pico_spi\Debug/../src/uart.c:248
	put_char(getchar_prompt(0));
    296a:	f77ff0ef          	jal	ra,28e0 <getchar_prompt>
put_char():
C:\Users\admin\OneDrive - stu.cdu.edu.cn\2024FPGA\fpga_pds_project\cpu\picorv32+osp\software\HBird-workspace\pico_spi\Debug/../src/uart.c:31
	if (c == '\n')
    296e:	4729                	li	a4,10
get_char():
C:\Users\admin\OneDrive - stu.cdu.edu.cn\2024FPGA\fpga_pds_project\cpu\picorv32+osp\software\HBird-workspace\pico_spi\Debug/../src/uart.c:248
	put_char(getchar_prompt(0));
    2970:	87aa                	mv	a5,a0
put_char():
C:\Users\admin\OneDrive - stu.cdu.edu.cn\2024FPGA\fpga_pds_project\cpu\picorv32+osp\software\HBird-workspace\pico_spi\Debug/../src/uart.c:31
	if (c == '\n')
    2972:	00e50763          	beq	a0,a4,2980 <get_char+0x1c>
get_char():
C:\Users\admin\OneDrive - stu.cdu.edu.cn\2024FPGA\fpga_pds_project\cpu\picorv32+osp\software\HBird-workspace\pico_spi\Debug/../src/uart.c:249
}
    2976:	40b2                	lw	ra,12(sp)
put_char():
C:\Users\admin\OneDrive - stu.cdu.edu.cn\2024FPGA\fpga_pds_project\cpu\picorv32+osp\software\HBird-workspace\pico_spi\Debug/../src/uart.c:33
	reg_uart_data = c;
    2978:	6721                	lui	a4,0x8
    297a:	cb1c                	sw	a5,16(a4)
get_char():
C:\Users\admin\OneDrive - stu.cdu.edu.cn\2024FPGA\fpga_pds_project\cpu\picorv32+osp\software\HBird-workspace\pico_spi\Debug/../src/uart.c:249
}
    297c:	0141                	addi	sp,sp,16
    297e:	8082                	ret
put_char():
C:\Users\admin\OneDrive - stu.cdu.edu.cn\2024FPGA\fpga_pds_project\cpu\picorv32+osp\software\HBird-workspace\pico_spi\Debug/../src/uart.c:33
	reg_uart_data = c;
    2980:	6721                	lui	a4,0x8
get_char():
C:\Users\admin\OneDrive - stu.cdu.edu.cn\2024FPGA\fpga_pds_project\cpu\picorv32+osp\software\HBird-workspace\pico_spi\Debug/../src/uart.c:249
}
    2982:	40b2                	lw	ra,12(sp)
put_char():
C:\Users\admin\OneDrive - stu.cdu.edu.cn\2024FPGA\fpga_pds_project\cpu\picorv32+osp\software\HBird-workspace\pico_spi\Debug/../src/uart.c:33
	reg_uart_data = c;
    2984:	46b5                	li	a3,13
    2986:	cb14                	sw	a3,16(a4)
    2988:	6721                	lui	a4,0x8
    298a:	cb1c                	sw	a5,16(a4)
get_char():
C:\Users\admin\OneDrive - stu.cdu.edu.cn\2024FPGA\fpga_pds_project\cpu\picorv32+osp\software\HBird-workspace\pico_spi\Debug/../src/uart.c:249
}
    298c:	0141                	addi	sp,sp,16
    298e:	8082                	ret

00002990 <__muldf3>:
__muldf3():
    2990:	fc010113          	addi	sp,sp,-64
    2994:	02812c23          	sw	s0,56(sp)
    2998:	0145d793          	srli	a5,a1,0x14
    299c:	00100437          	lui	s0,0x100
    29a0:	02912a23          	sw	s1,52(sp)
    29a4:	03312623          	sw	s3,44(sp)
    29a8:	00050493          	mv	s1,a0
    29ac:	fff40413          	addi	s0,s0,-1 # fffff <_etext+0xfb823>
    29b0:	02112e23          	sw	ra,60(sp)
    29b4:	03212823          	sw	s2,48(sp)
    29b8:	03412423          	sw	s4,40(sp)
    29bc:	03512223          	sw	s5,36(sp)
    29c0:	03612023          	sw	s6,32(sp)
    29c4:	01712e23          	sw	s7,28(sp)
    29c8:	7ff7f513          	andi	a0,a5,2047
    29cc:	00b47433          	and	s0,s0,a1
    29d0:	01f5d993          	srli	s3,a1,0x1f
    29d4:	1e050e63          	beqz	a0,2bd0 <__muldf3+0x240>
    29d8:	7ff00793          	li	a5,2047
    29dc:	0af50063          	beq	a0,a5,2a7c <__muldf3+0xec>
    29e0:	00341413          	slli	s0,s0,0x3
    29e4:	008007b7          	lui	a5,0x800
    29e8:	01d4db13          	srli	s6,s1,0x1d
    29ec:	00f46433          	or	s0,s0,a5
    29f0:	00349a13          	slli	s4,s1,0x3
    29f4:	008b6b33          	or	s6,s6,s0
    29f8:	c0150a93          	addi	s5,a0,-1023
    29fc:	00000493          	li	s1,0
    2a00:	00000b93          	li	s7,0
    2a04:	0146d893          	srli	a7,a3,0x14
    2a08:	00100437          	lui	s0,0x100
    2a0c:	fff40413          	addi	s0,s0,-1 # fffff <_etext+0xfb823>
    2a10:	7ff8f893          	andi	a7,a7,2047
    2a14:	00060813          	mv	a6,a2
    2a18:	00d47433          	and	s0,s0,a3
    2a1c:	01f6d913          	srli	s2,a3,0x1f
    2a20:	08088a63          	beqz	a7,2ab4 <__muldf3+0x124>
    2a24:	7ff00793          	li	a5,2047
    2a28:	20f88463          	beq	a7,a5,2c30 <__muldf3+0x2a0>
    2a2c:	00800737          	lui	a4,0x800
    2a30:	00341413          	slli	s0,s0,0x3
    2a34:	00e46433          	or	s0,s0,a4
    2a38:	c0188893          	addi	a7,a7,-1023
    2a3c:	01d65713          	srli	a4,a2,0x1d
    2a40:	00876733          	or	a4,a4,s0
    2a44:	00361813          	slli	a6,a2,0x3
    2a48:	011a8ab3          	add	s5,s5,a7
    2a4c:	00000513          	li	a0,0
    2a50:	00f00693          	li	a3,15
    2a54:	0129c7b3          	xor	a5,s3,s2
    2a58:	001a8593          	addi	a1,s5,1
    2a5c:	1e96e863          	bltu	a3,s1,2c4c <__muldf3+0x2bc>
    2a60:	00002617          	auipc	a2,0x2
    2a64:	c3c60613          	addi	a2,a2,-964 # 469c <chines_word+0xc28>
    2a68:	00249493          	slli	s1,s1,0x2
    2a6c:	00c484b3          	add	s1,s1,a2
    2a70:	0004a683          	lw	a3,0(s1)
    2a74:	00c686b3          	add	a3,a3,a2
    2a78:	00068067          	jr	a3
    2a7c:	00946b33          	or	s6,s0,s1
    2a80:	400b1663          	bnez	s6,2e8c <__muldf3+0x4fc>
    2a84:	0146d893          	srli	a7,a3,0x14
    2a88:	00100437          	lui	s0,0x100
    2a8c:	fff40413          	addi	s0,s0,-1 # fffff <_etext+0xfb823>
    2a90:	7ff8f893          	andi	a7,a7,2047
    2a94:	00800493          	li	s1,8
    2a98:	00000a13          	li	s4,0
    2a9c:	7ff00a93          	li	s5,2047
    2aa0:	00200b93          	li	s7,2
    2aa4:	00060813          	mv	a6,a2
    2aa8:	00d47433          	and	s0,s0,a3
    2aac:	01f6d913          	srli	s2,a3,0x1f
    2ab0:	f6089ae3          	bnez	a7,2a24 <__muldf3+0x94>
    2ab4:	00c46733          	or	a4,s0,a2
    2ab8:	3e070663          	beqz	a4,2ea4 <__muldf3+0x514>
    2abc:	4a040463          	beqz	s0,2f64 <__muldf3+0x5d4>
    2ac0:	00040513          	mv	a0,s0
    2ac4:	00c12423          	sw	a2,8(sp)
    2ac8:	719000ef          	jal	ra,39e0 <__clzsi2>
    2acc:	00812603          	lw	a2,8(sp)
    2ad0:	ff550793          	addi	a5,a0,-11
    2ad4:	01c00713          	li	a4,28
    2ad8:	44f74a63          	blt	a4,a5,2f2c <__muldf3+0x59c>
    2adc:	01d00713          	li	a4,29
    2ae0:	ff850813          	addi	a6,a0,-8
    2ae4:	40f70733          	sub	a4,a4,a5
    2ae8:	01041433          	sll	s0,s0,a6
    2aec:	00e65733          	srl	a4,a2,a4
    2af0:	00876733          	or	a4,a4,s0
    2af4:	01061833          	sll	a6,a2,a6
    2af8:	40aa8533          	sub	a0,s5,a0
    2afc:	c0d50a93          	addi	s5,a0,-1011
    2b00:	00000513          	li	a0,0
    2b04:	f4dff06f          	j	2a50 <__muldf3+0xc0>
    2b08:	00000613          	li	a2,0
    2b0c:	7ff00713          	li	a4,2047
    2b10:	000807b7          	lui	a5,0x80
    2b14:	00000813          	li	a6,0
    2b18:	001006b7          	lui	a3,0x100
    2b1c:	fff68693          	addi	a3,a3,-1 # fffff <_etext+0xfb823>
    2b20:	00d7f7b3          	and	a5,a5,a3
    2b24:	801006b7          	lui	a3,0x80100
    2b28:	fff68693          	addi	a3,a3,-1 # 800fffff <_etext+0x800fb823>
    2b2c:	00d7f7b3          	and	a5,a5,a3
    2b30:	03c12083          	lw	ra,60(sp)
    2b34:	03812403          	lw	s0,56(sp)
    2b38:	01471713          	slli	a4,a4,0x14
    2b3c:	01f61693          	slli	a3,a2,0x1f
    2b40:	00e7e7b3          	or	a5,a5,a4
    2b44:	00d7e7b3          	or	a5,a5,a3
    2b48:	03412483          	lw	s1,52(sp)
    2b4c:	03012903          	lw	s2,48(sp)
    2b50:	02c12983          	lw	s3,44(sp)
    2b54:	02812a03          	lw	s4,40(sp)
    2b58:	02412a83          	lw	s5,36(sp)
    2b5c:	02012b03          	lw	s6,32(sp)
    2b60:	01c12b83          	lw	s7,28(sp)
    2b64:	00080513          	mv	a0,a6
    2b68:	00078593          	mv	a1,a5
    2b6c:	04010113          	addi	sp,sp,64
    2b70:	00008067          	ret
    2b74:	00090793          	mv	a5,s2
    2b78:	00200693          	li	a3,2
    2b7c:	02d51863          	bne	a0,a3,2bac <__muldf3+0x21c>
    2b80:	00078613          	mv	a2,a5
    2b84:	7ff00713          	li	a4,2047
    2b88:	00000793          	li	a5,0
    2b8c:	00000813          	li	a6,0
    2b90:	f89ff06f          	j	2b18 <__muldf3+0x188>
    2b94:	00098793          	mv	a5,s3
    2b98:	000b8513          	mv	a0,s7
    2b9c:	00200693          	li	a3,2
    2ba0:	000b0713          	mv	a4,s6
    2ba4:	000a0813          	mv	a6,s4
    2ba8:	fcd50ce3          	beq	a0,a3,2b80 <__muldf3+0x1f0>
    2bac:	00300693          	li	a3,3
    2bb0:	f4d50ce3          	beq	a0,a3,2b08 <__muldf3+0x178>
    2bb4:	00100693          	li	a3,1
    2bb8:	24d51a63          	bne	a0,a3,2e0c <__muldf3+0x47c>
    2bbc:	00078613          	mv	a2,a5
    2bc0:	00000713          	li	a4,0
    2bc4:	00000793          	li	a5,0
    2bc8:	00000813          	li	a6,0
    2bcc:	f4dff06f          	j	2b18 <__muldf3+0x188>
    2bd0:	00946b33          	or	s6,s0,s1
    2bd4:	2a0b0263          	beqz	s6,2e78 <__muldf3+0x4e8>
    2bd8:	00d12623          	sw	a3,12(sp)
    2bdc:	00c12423          	sw	a2,8(sp)
    2be0:	36040663          	beqz	s0,2f4c <__muldf3+0x5bc>
    2be4:	00040513          	mv	a0,s0
    2be8:	5f9000ef          	jal	ra,39e0 <__clzsi2>
    2bec:	00812603          	lw	a2,8(sp)
    2bf0:	00c12683          	lw	a3,12(sp)
    2bf4:	ff550793          	addi	a5,a0,-11
    2bf8:	01c00713          	li	a4,28
    2bfc:	34f74063          	blt	a4,a5,2f3c <__muldf3+0x5ac>
    2c00:	01d00b13          	li	s6,29
    2c04:	ff850a13          	addi	s4,a0,-8
    2c08:	40fb0b33          	sub	s6,s6,a5
    2c0c:	01441433          	sll	s0,s0,s4
    2c10:	0164db33          	srl	s6,s1,s6
    2c14:	008b6b33          	or	s6,s6,s0
    2c18:	01449a33          	sll	s4,s1,s4
    2c1c:	c0d00a93          	li	s5,-1011
    2c20:	40aa8ab3          	sub	s5,s5,a0
    2c24:	00000493          	li	s1,0
    2c28:	00000b93          	li	s7,0
    2c2c:	dd9ff06f          	j	2a04 <__muldf3+0x74>
    2c30:	00c46733          	or	a4,s0,a2
    2c34:	7ffa8a93          	addi	s5,s5,2047
    2c38:	26071e63          	bnez	a4,2eb4 <__muldf3+0x524>
    2c3c:	0024e493          	ori	s1,s1,2
    2c40:	00000813          	li	a6,0
    2c44:	00200513          	li	a0,2
    2c48:	e09ff06f          	j	2a50 <__muldf3+0xc0>
    2c4c:	00010eb7          	lui	t4,0x10
    2c50:	fffe8613          	addi	a2,t4,-1 # ffff <_etext+0xb823>
    2c54:	010a5693          	srli	a3,s4,0x10
    2c58:	01085313          	srli	t1,a6,0x10
    2c5c:	00ca7a33          	and	s4,s4,a2
    2c60:	00c87833          	and	a6,a6,a2
    2c64:	03480633          	mul	a2,a6,s4
    2c68:	03068e33          	mul	t3,a3,a6
    2c6c:	01065513          	srli	a0,a2,0x10
    2c70:	034308b3          	mul	a7,t1,s4
    2c74:	01c888b3          	add	a7,a7,t3
    2c78:	01150533          	add	a0,a0,a7
    2c7c:	02668f33          	mul	t5,a3,t1
    2c80:	01c57463          	bleu	t3,a0,2c88 <__muldf3+0x2f8>
    2c84:	01df0f33          	add	t5,t5,t4
    2c88:	00010e37          	lui	t3,0x10
    2c8c:	fffe0893          	addi	a7,t3,-1 # ffff <_etext+0xb823>
    2c90:	011773b3          	and	t2,a4,a7
    2c94:	01075293          	srli	t0,a4,0x10
    2c98:	01157733          	and	a4,a0,a7
    2c9c:	011678b3          	and	a7,a2,a7
    2ca0:	01071713          	slli	a4,a4,0x10
    2ca4:	03438633          	mul	a2,t2,s4
    2ca8:	011708b3          	add	a7,a4,a7
    2cac:	01055513          	srli	a0,a0,0x10
    2cb0:	02768eb3          	mul	t4,a3,t2
    2cb4:	01065713          	srli	a4,a2,0x10
    2cb8:	03428a33          	mul	s4,t0,s4
    2cbc:	01da0a33          	add	s4,s4,t4
    2cc0:	01470a33          	add	s4,a4,s4
    2cc4:	025686b3          	mul	a3,a3,t0
    2cc8:	01da7463          	bleu	t4,s4,2cd0 <__muldf3+0x340>
    2ccc:	01c686b3          	add	a3,a3,t3
    2cd0:	00010937          	lui	s2,0x10
    2cd4:	fff90713          	addi	a4,s2,-1 # ffff <_etext+0xb823>
    2cd8:	010b5f93          	srli	t6,s6,0x10
    2cdc:	00eb7433          	and	s0,s6,a4
    2ce0:	00ea7eb3          	and	t4,s4,a4
    2ce4:	00e67633          	and	a2,a2,a4
    2ce8:	010e9e93          	slli	t4,t4,0x10
    2cec:	028804b3          	mul	s1,a6,s0
    2cf0:	010a5a13          	srli	s4,s4,0x10
    2cf4:	00ce8eb3          	add	t4,t4,a2
    2cf8:	00da0a33          	add	s4,s4,a3
    2cfc:	01d50533          	add	a0,a0,t4
    2d00:	02830733          	mul	a4,t1,s0
    2d04:	0104de13          	srli	t3,s1,0x10
    2d08:	030f8833          	mul	a6,t6,a6
    2d0c:	01070733          	add	a4,a4,a6
    2d10:	00ee0e33          	add	t3,t3,a4
    2d14:	03f30333          	mul	t1,t1,t6
    2d18:	010e7463          	bleu	a6,t3,2d20 <__muldf3+0x390>
    2d1c:	01230333          	add	t1,t1,s2
    2d20:	00010937          	lui	s2,0x10
    2d24:	fff90613          	addi	a2,s2,-1 # ffff <_etext+0xb823>
    2d28:	00ce76b3          	and	a3,t3,a2
    2d2c:	010e5e13          	srli	t3,t3,0x10
    2d30:	006e0333          	add	t1,t3,t1
    2d34:	01069693          	slli	a3,a3,0x10
    2d38:	00c4f4b3          	and	s1,s1,a2
    2d3c:	02838e33          	mul	t3,t2,s0
    2d40:	00968633          	add	a2,a3,s1
    2d44:	027f8833          	mul	a6,t6,t2
    2d48:	010e5713          	srli	a4,t3,0x10
    2d4c:	02828433          	mul	s0,t0,s0
    2d50:	01040433          	add	s0,s0,a6
    2d54:	00870433          	add	s0,a4,s0
    2d58:	03f28fb3          	mul	t6,t0,t6
    2d5c:	01047463          	bleu	a6,s0,2d64 <__muldf3+0x3d4>
    2d60:	012f8fb3          	add	t6,t6,s2
    2d64:	00010737          	lui	a4,0x10
    2d68:	fff70713          	addi	a4,a4,-1 # ffff <_etext+0xb823>
    2d6c:	00e476b3          	and	a3,s0,a4
    2d70:	01069693          	slli	a3,a3,0x10
    2d74:	00ee7733          	and	a4,t3,a4
    2d78:	01e50533          	add	a0,a0,t5
    2d7c:	00e686b3          	add	a3,a3,a4
    2d80:	01d53eb3          	sltu	t4,a0,t4
    2d84:	01468733          	add	a4,a3,s4
    2d88:	00c50533          	add	a0,a0,a2
    2d8c:	01d70833          	add	a6,a4,t4
    2d90:	00c536b3          	sltu	a3,a0,a2
    2d94:	00680e33          	add	t3,a6,t1
    2d98:	00de0633          	add	a2,t3,a3
    2d9c:	01d83eb3          	sltu	t4,a6,t4
    2da0:	01473733          	sltu	a4,a4,s4
    2da4:	01d76733          	or	a4,a4,t4
    2da8:	01045413          	srli	s0,s0,0x10
    2dac:	006e3333          	sltu	t1,t3,t1
    2db0:	00d636b3          	sltu	a3,a2,a3
    2db4:	00d366b3          	or	a3,t1,a3
    2db8:	00870733          	add	a4,a4,s0
    2dbc:	00d70733          	add	a4,a4,a3
    2dc0:	00951813          	slli	a6,a0,0x9
    2dc4:	01186833          	or	a6,a6,a7
    2dc8:	01f70733          	add	a4,a4,t6
    2dcc:	00971713          	slli	a4,a4,0x9
    2dd0:	01765893          	srli	a7,a2,0x17
    2dd4:	01003833          	snez	a6,a6
    2dd8:	01755513          	srli	a0,a0,0x17
    2ddc:	00961693          	slli	a3,a2,0x9
    2de0:	00a86833          	or	a6,a6,a0
    2de4:	01176733          	or	a4,a4,a7
    2de8:	00d86833          	or	a6,a6,a3
    2dec:	00771693          	slli	a3,a4,0x7
    2df0:	1806d663          	bgez	a3,2f7c <__muldf3+0x5ec>
    2df4:	00185693          	srli	a3,a6,0x1
    2df8:	00187813          	andi	a6,a6,1
    2dfc:	01f71613          	slli	a2,a4,0x1f
    2e00:	0106e833          	or	a6,a3,a6
    2e04:	00c86833          	or	a6,a6,a2
    2e08:	00175713          	srli	a4,a4,0x1
    2e0c:	3ff58693          	addi	a3,a1,1023
    2e10:	00078613          	mv	a2,a5
    2e14:	0ad05863          	blez	a3,2ec4 <__muldf3+0x534>
    2e18:	00787793          	andi	a5,a6,7
    2e1c:	02078063          	beqz	a5,2e3c <__muldf3+0x4ac>
    2e20:	00f87793          	andi	a5,a6,15
    2e24:	00400513          	li	a0,4
    2e28:	00a78a63          	beq	a5,a0,2e3c <__muldf3+0x4ac>
    2e2c:	00480793          	addi	a5,a6,4
    2e30:	0107b833          	sltu	a6,a5,a6
    2e34:	01070733          	add	a4,a4,a6
    2e38:	00078813          	mv	a6,a5
    2e3c:	00771793          	slli	a5,a4,0x7
    2e40:	0007da63          	bgez	a5,2e54 <__muldf3+0x4c4>
    2e44:	ff0007b7          	lui	a5,0xff000
    2e48:	fff78793          	addi	a5,a5,-1 # feffffff <_etext+0xfeffb823>
    2e4c:	00f77733          	and	a4,a4,a5
    2e50:	40058693          	addi	a3,a1,1024
    2e54:	7fe00793          	li	a5,2046
    2e58:	12d7c663          	blt	a5,a3,2f84 <__muldf3+0x5f4>
    2e5c:	00385793          	srli	a5,a6,0x3
    2e60:	01d71813          	slli	a6,a4,0x1d
    2e64:	00971713          	slli	a4,a4,0x9
    2e68:	00f86833          	or	a6,a6,a5
    2e6c:	00c75793          	srli	a5,a4,0xc
    2e70:	7ff6f713          	andi	a4,a3,2047
    2e74:	ca5ff06f          	j	2b18 <__muldf3+0x188>
    2e78:	00400493          	li	s1,4
    2e7c:	00000a13          	li	s4,0
    2e80:	00000a93          	li	s5,0
    2e84:	00100b93          	li	s7,1
    2e88:	b7dff06f          	j	2a04 <__muldf3+0x74>
    2e8c:	00048a13          	mv	s4,s1
    2e90:	00040b13          	mv	s6,s0
    2e94:	00c00493          	li	s1,12
    2e98:	7ff00a93          	li	s5,2047
    2e9c:	00300b93          	li	s7,3
    2ea0:	b65ff06f          	j	2a04 <__muldf3+0x74>
    2ea4:	0014e493          	ori	s1,s1,1
    2ea8:	00000813          	li	a6,0
    2eac:	00100513          	li	a0,1
    2eb0:	ba1ff06f          	j	2a50 <__muldf3+0xc0>
    2eb4:	0034e493          	ori	s1,s1,3
    2eb8:	00040713          	mv	a4,s0
    2ebc:	00300513          	li	a0,3
    2ec0:	b91ff06f          	j	2a50 <__muldf3+0xc0>
    2ec4:	00100793          	li	a5,1
    2ec8:	40d787b3          	sub	a5,a5,a3
    2ecc:	0c069463          	bnez	a3,2f94 <__muldf3+0x604>
    2ed0:	41e58593          	addi	a1,a1,1054
    2ed4:	00b816b3          	sll	a3,a6,a1
    2ed8:	00b715b3          	sll	a1,a4,a1
    2edc:	00f85833          	srl	a6,a6,a5
    2ee0:	00d036b3          	snez	a3,a3
    2ee4:	0105e5b3          	or	a1,a1,a6
    2ee8:	00d5e5b3          	or	a1,a1,a3
    2eec:	0075f693          	andi	a3,a1,7
    2ef0:	00f75733          	srl	a4,a4,a5
    2ef4:	02068063          	beqz	a3,2f14 <__muldf3+0x584>
    2ef8:	00f5f793          	andi	a5,a1,15
    2efc:	00400693          	li	a3,4
    2f00:	00d78a63          	beq	a5,a3,2f14 <__muldf3+0x584>
    2f04:	00058813          	mv	a6,a1
    2f08:	00480593          	addi	a1,a6,4
    2f0c:	0105b833          	sltu	a6,a1,a6
    2f10:	01070733          	add	a4,a4,a6
    2f14:	00871793          	slli	a5,a4,0x8
    2f18:	0e07d263          	bgez	a5,2ffc <__muldf3+0x66c>
    2f1c:	00100713          	li	a4,1
    2f20:	00000793          	li	a5,0
    2f24:	00000813          	li	a6,0
    2f28:	bf1ff06f          	j	2b18 <__muldf3+0x188>
    2f2c:	fd850713          	addi	a4,a0,-40
    2f30:	00e61733          	sll	a4,a2,a4
    2f34:	00000813          	li	a6,0
    2f38:	bc1ff06f          	j	2af8 <__muldf3+0x168>
    2f3c:	fd850413          	addi	s0,a0,-40
    2f40:	00849b33          	sll	s6,s1,s0
    2f44:	00000a13          	li	s4,0
    2f48:	cd5ff06f          	j	2c1c <__muldf3+0x28c>
    2f4c:	00048513          	mv	a0,s1
    2f50:	291000ef          	jal	ra,39e0 <__clzsi2>
    2f54:	02050513          	addi	a0,a0,32
    2f58:	00c12683          	lw	a3,12(sp)
    2f5c:	00812603          	lw	a2,8(sp)
    2f60:	c95ff06f          	j	2bf4 <__muldf3+0x264>
    2f64:	00060513          	mv	a0,a2
    2f68:	00c12423          	sw	a2,8(sp)
    2f6c:	275000ef          	jal	ra,39e0 <__clzsi2>
    2f70:	02050513          	addi	a0,a0,32
    2f74:	00812603          	lw	a2,8(sp)
    2f78:	b59ff06f          	j	2ad0 <__muldf3+0x140>
    2f7c:	000a8593          	mv	a1,s5
    2f80:	e8dff06f          	j	2e0c <__muldf3+0x47c>
    2f84:	7ff00713          	li	a4,2047
    2f88:	00000793          	li	a5,0
    2f8c:	00000813          	li	a6,0
    2f90:	b89ff06f          	j	2b18 <__muldf3+0x188>
    2f94:	03800513          	li	a0,56
    2f98:	00f55a63          	ble	a5,a0,2fac <__muldf3+0x61c>
    2f9c:	00000713          	li	a4,0
    2fa0:	00000793          	li	a5,0
    2fa4:	00000813          	li	a6,0
    2fa8:	b71ff06f          	j	2b18 <__muldf3+0x188>
    2fac:	01f00513          	li	a0,31
    2fb0:	f2f550e3          	ble	a5,a0,2ed0 <__muldf3+0x540>
    2fb4:	fe100513          	li	a0,-31
    2fb8:	40d506b3          	sub	a3,a0,a3
    2fbc:	02000513          	li	a0,32
    2fc0:	00d756b3          	srl	a3,a4,a3
    2fc4:	00a78863          	beq	a5,a0,2fd4 <__muldf3+0x644>
    2fc8:	43e58593          	addi	a1,a1,1086
    2fcc:	00b71733          	sll	a4,a4,a1
    2fd0:	00e86833          	or	a6,a6,a4
    2fd4:	01003833          	snez	a6,a6
    2fd8:	00d86833          	or	a6,a6,a3
    2fdc:	00787713          	andi	a4,a6,7
    2fe0:	00000793          	li	a5,0
    2fe4:	02070463          	beqz	a4,300c <__muldf3+0x67c>
    2fe8:	00f87793          	andi	a5,a6,15
    2fec:	00400693          	li	a3,4
    2ff0:	00000713          	li	a4,0
    2ff4:	00080593          	mv	a1,a6
    2ff8:	f0d798e3          	bne	a5,a3,2f08 <__muldf3+0x578>
    2ffc:	00971693          	slli	a3,a4,0x9
    3000:	00c6d793          	srli	a5,a3,0xc
    3004:	01d71713          	slli	a4,a4,0x1d
    3008:	00058813          	mv	a6,a1
    300c:	00385813          	srli	a6,a6,0x3
    3010:	00e86833          	or	a6,a6,a4
    3014:	00000713          	li	a4,0
    3018:	b01ff06f          	j	2b18 <__muldf3+0x188>

0000301c <__subdf3>:
__subdf3():
    301c:	00100837          	lui	a6,0x100
    3020:	fff80813          	addi	a6,a6,-1 # fffff <_etext+0xfb823>
    3024:	fe010113          	addi	sp,sp,-32
    3028:	00b877b3          	and	a5,a6,a1
    302c:	0146d893          	srli	a7,a3,0x14
    3030:	00d87833          	and	a6,a6,a3
    3034:	00379313          	slli	t1,a5,0x3
    3038:	00812c23          	sw	s0,24(sp)
    303c:	01d55793          	srli	a5,a0,0x1d
    3040:	00912a23          	sw	s1,20(sp)
    3044:	01212823          	sw	s2,16(sp)
    3048:	0145d493          	srli	s1,a1,0x14
    304c:	01d65913          	srli	s2,a2,0x1d
    3050:	00381813          	slli	a6,a6,0x3
    3054:	00112e23          	sw	ra,28(sp)
    3058:	01312623          	sw	s3,12(sp)
    305c:	7ff8f893          	andi	a7,a7,2047
    3060:	7ff00713          	li	a4,2047
    3064:	01f5d413          	srli	s0,a1,0x1f
    3068:	7ff4f493          	andi	s1,s1,2047
    306c:	0067e7b3          	or	a5,a5,t1
    3070:	00351513          	slli	a0,a0,0x3
    3074:	01f6d693          	srli	a3,a3,0x1f
    3078:	010965b3          	or	a1,s2,a6
    307c:	00361613          	slli	a2,a2,0x3
    3080:	0ae88663          	beq	a7,a4,312c <__subdf3+0x110>
    3084:	0016c693          	xori	a3,a3,1
    3088:	41148833          	sub	a6,s1,a7
    308c:	0a868863          	beq	a3,s0,313c <__subdf3+0x120>
    3090:	0f005463          	blez	a6,3178 <__subdf3+0x15c>
    3094:	12089463          	bnez	a7,31bc <__subdf3+0x1a0>
    3098:	00c5e733          	or	a4,a1,a2
    309c:	24071c63          	bnez	a4,32f4 <__subdf3+0x2d8>
    30a0:	7ff00713          	li	a4,2047
    30a4:	38e80e63          	beq	a6,a4,3440 <__subdf3+0x424>
    30a8:	01d79693          	slli	a3,a5,0x1d
    30ac:	00355513          	srli	a0,a0,0x3
    30b0:	00d569b3          	or	s3,a0,a3
    30b4:	0037d793          	srli	a5,a5,0x3
    30b8:	7ff00713          	li	a4,2047
    30bc:	56e80063          	beq	a6,a4,361c <__subdf3+0x600>
    30c0:	00100737          	lui	a4,0x100
    30c4:	fff70713          	addi	a4,a4,-1 # fffff <_etext+0xfb823>
    30c8:	00e7f7b3          	and	a5,a5,a4
    30cc:	7ff87813          	andi	a6,a6,2047
    30d0:	00147593          	andi	a1,s0,1
    30d4:	00100737          	lui	a4,0x100
    30d8:	fff70713          	addi	a4,a4,-1 # fffff <_etext+0xfb823>
    30dc:	00e7f7b3          	and	a5,a5,a4
    30e0:	80100737          	lui	a4,0x80100
    30e4:	fff70713          	addi	a4,a4,-1 # 800fffff <_etext+0x800fb823>
    30e8:	00e7f7b3          	and	a5,a5,a4
    30ec:	01481813          	slli	a6,a6,0x14
    30f0:	80000737          	lui	a4,0x80000
    30f4:	01c12083          	lw	ra,28(sp)
    30f8:	01812403          	lw	s0,24(sp)
    30fc:	0107e7b3          	or	a5,a5,a6
    3100:	fff74713          	not	a4,a4
    3104:	01f59593          	slli	a1,a1,0x1f
    3108:	00e7f7b3          	and	a5,a5,a4
    310c:	00b7e7b3          	or	a5,a5,a1
    3110:	00098513          	mv	a0,s3
    3114:	01412483          	lw	s1,20(sp)
    3118:	01012903          	lw	s2,16(sp)
    311c:	00c12983          	lw	s3,12(sp)
    3120:	00078593          	mv	a1,a5
    3124:	02010113          	addi	sp,sp,32
    3128:	00008067          	ret
    312c:	00c5e733          	or	a4,a1,a2
    3130:	f4070ae3          	beqz	a4,3084 <__subdf3+0x68>
    3134:	41148833          	sub	a6,s1,a7
    3138:	f4869ce3          	bne	a3,s0,3090 <__subdf3+0x74>
    313c:	33005063          	blez	a6,345c <__subdf3+0x440>
    3140:	0c089263          	bnez	a7,3204 <__subdf3+0x1e8>
    3144:	00c5e733          	or	a4,a1,a2
    3148:	f4070ce3          	beqz	a4,30a0 <__subdf3+0x84>
    314c:	fff80713          	addi	a4,a6,-1
    3150:	48071c63          	bnez	a4,35e8 <__subdf3+0x5cc>
    3154:	00c509b3          	add	s3,a0,a2
    3158:	00b78933          	add	s2,a5,a1
    315c:	00a9b533          	sltu	a0,s3,a0
    3160:	00a90333          	add	t1,s2,a0
    3164:	00831793          	slli	a5,t1,0x8
    3168:	00100493          	li	s1,1
    316c:	2a07d663          	bgez	a5,3418 <__subdf3+0x3fc>
    3170:	00200493          	li	s1,2
    3174:	0f80006f          	j	326c <__subdf3+0x250>
    3178:	22081063          	bnez	a6,3398 <__subdf3+0x37c>
    317c:	00148713          	addi	a4,s1,1
    3180:	7ff77713          	andi	a4,a4,2047
    3184:	00100813          	li	a6,1
    3188:	36e85663          	ble	a4,a6,34f4 <__subdf3+0x4d8>
    318c:	40c509b3          	sub	s3,a0,a2
    3190:	01353733          	sltu	a4,a0,s3
    3194:	40b78933          	sub	s2,a5,a1
    3198:	40e90933          	sub	s2,s2,a4
    319c:	00891713          	slli	a4,s2,0x8
    31a0:	3a074a63          	bltz	a4,3554 <__subdf3+0x538>
    31a4:	0129e7b3          	or	a5,s3,s2
    31a8:	16079e63          	bnez	a5,3324 <__subdf3+0x308>
    31ac:	00000413          	li	s0,0
    31b0:	00000993          	li	s3,0
    31b4:	00040813          	mv	a6,s0
    31b8:	f09ff06f          	j	30c0 <__subdf3+0xa4>
    31bc:	008006b7          	lui	a3,0x800
    31c0:	7ff00713          	li	a4,2047
    31c4:	00d5e5b3          	or	a1,a1,a3
    31c8:	22e48c63          	beq	s1,a4,3400 <__subdf3+0x3e4>
    31cc:	03800713          	li	a4,56
    31d0:	31074663          	blt	a4,a6,34dc <__subdf3+0x4c0>
    31d4:	01f00713          	li	a4,31
    31d8:	3b075063          	ble	a6,a4,3578 <__subdf3+0x55c>
    31dc:	02000713          	li	a4,32
    31e0:	0105d6b3          	srl	a3,a1,a6
    31e4:	00e80a63          	beq	a6,a4,31f8 <__subdf3+0x1dc>
    31e8:	04000913          	li	s2,64
    31ec:	41090833          	sub	a6,s2,a6
    31f0:	01059933          	sll	s2,a1,a6
    31f4:	01266633          	or	a2,a2,s2
    31f8:	00c03633          	snez	a2,a2
    31fc:	00d666b3          	or	a3,a2,a3
    3200:	2e40006f          	j	34e4 <__subdf3+0x4c8>
    3204:	008006b7          	lui	a3,0x800
    3208:	7ff00713          	li	a4,2047
    320c:	00d5e5b3          	or	a1,a1,a3
    3210:	1ee48863          	beq	s1,a4,3400 <__subdf3+0x3e4>
    3214:	03800713          	li	a4,56
    3218:	35074a63          	blt	a4,a6,356c <__subdf3+0x550>
    321c:	01f00713          	li	a4,31
    3220:	4b074663          	blt	a4,a6,36cc <__subdf3+0x6b0>
    3224:	02000713          	li	a4,32
    3228:	41070733          	sub	a4,a4,a6
    322c:	010656b3          	srl	a3,a2,a6
    3230:	00e599b3          	sll	s3,a1,a4
    3234:	00e61633          	sll	a2,a2,a4
    3238:	00d9e9b3          	or	s3,s3,a3
    323c:	0105d933          	srl	s2,a1,a6
    3240:	00c036b3          	snez	a3,a2
    3244:	00d9e6b3          	or	a3,s3,a3
    3248:	012787b3          	add	a5,a5,s2
    324c:	00a689b3          	add	s3,a3,a0
    3250:	00a9b533          	sltu	a0,s3,a0
    3254:	00f50333          	add	t1,a0,a5
    3258:	00831793          	slli	a5,t1,0x8
    325c:	1a07de63          	bgez	a5,3418 <__subdf3+0x3fc>
    3260:	00148493          	addi	s1,s1,1
    3264:	7ff00793          	li	a5,2047
    3268:	1ef48063          	beq	s1,a5,3448 <__subdf3+0x42c>
    326c:	ff800937          	lui	s2,0xff800
    3270:	fff90913          	addi	s2,s2,-1 # ff7fffff <_etext+0xff7fb823>
    3274:	0019d793          	srli	a5,s3,0x1
    3278:	01237933          	and	s2,t1,s2
    327c:	0019f693          	andi	a3,s3,1
    3280:	00d7e6b3          	or	a3,a5,a3
    3284:	01f91993          	slli	s3,s2,0x1f
    3288:	00d9e9b3          	or	s3,s3,a3
    328c:	00195313          	srli	t1,s2,0x1
    3290:	0079f793          	andi	a5,s3,7
    3294:	02078063          	beqz	a5,32b4 <__subdf3+0x298>
    3298:	00f9f593          	andi	a1,s3,15
    329c:	00400793          	li	a5,4
    32a0:	00f58a63          	beq	a1,a5,32b4 <__subdf3+0x298>
    32a4:	00498713          	addi	a4,s3,4
    32a8:	013736b3          	sltu	a3,a4,s3
    32ac:	00d30333          	add	t1,t1,a3
    32b0:	00070993          	mv	s3,a4
    32b4:	00831793          	slli	a5,t1,0x8
    32b8:	5c07da63          	bgez	a5,388c <__subdf3+0x870>
    32bc:	00148813          	addi	a6,s1,1
    32c0:	7ff00793          	li	a5,2047
    32c4:	00147593          	andi	a1,s0,1
    32c8:	18f80263          	beq	a6,a5,344c <__subdf3+0x430>
    32cc:	ff800737          	lui	a4,0xff800
    32d0:	fff70713          	addi	a4,a4,-1 # ff7fffff <_etext+0xff7fb823>
    32d4:	00e37733          	and	a4,t1,a4
    32d8:	0039d693          	srli	a3,s3,0x3
    32dc:	00971793          	slli	a5,a4,0x9
    32e0:	01d71993          	slli	s3,a4,0x1d
    32e4:	00d9e9b3          	or	s3,s3,a3
    32e8:	00c7d793          	srli	a5,a5,0xc
    32ec:	7ff87813          	andi	a6,a6,2047
    32f0:	de5ff06f          	j	30d4 <__subdf3+0xb8>
    32f4:	fff80713          	addi	a4,a6,-1
    32f8:	14071063          	bnez	a4,3438 <__subdf3+0x41c>
    32fc:	40c509b3          	sub	s3,a0,a2
    3300:	40b78933          	sub	s2,a5,a1
    3304:	01353533          	sltu	a0,a0,s3
    3308:	40a90333          	sub	t1,s2,a0
    330c:	00100493          	li	s1,1
    3310:	00831793          	slli	a5,t1,0x8
    3314:	1007d263          	bgez	a5,3418 <__subdf3+0x3fc>
    3318:	00800937          	lui	s2,0x800
    331c:	fff90913          	addi	s2,s2,-1 # 7fffff <_etext+0x7fb823>
    3320:	01237933          	and	s2,t1,s2
    3324:	1a090463          	beqz	s2,34cc <__subdf3+0x4b0>
    3328:	00090513          	mv	a0,s2
    332c:	6b4000ef          	jal	ra,39e0 <__clzsi2>
    3330:	ff850813          	addi	a6,a0,-8
    3334:	01f00793          	li	a5,31
    3338:	1707c663          	blt	a5,a6,34a4 <__subdf3+0x488>
    333c:	02000313          	li	t1,32
    3340:	41030333          	sub	t1,t1,a6
    3344:	0069d333          	srl	t1,s3,t1
    3348:	01091933          	sll	s2,s2,a6
    334c:	01236933          	or	s2,t1,s2
    3350:	010999b3          	sll	s3,s3,a6
    3354:	16984063          	blt	a6,s1,34b4 <__subdf3+0x498>
    3358:	40980833          	sub	a6,a6,s1
    335c:	00180713          	addi	a4,a6,1
    3360:	01f00793          	li	a5,31
    3364:	1ae7cc63          	blt	a5,a4,351c <__subdf3+0x500>
    3368:	02000793          	li	a5,32
    336c:	40e787b3          	sub	a5,a5,a4
    3370:	00f996b3          	sll	a3,s3,a5
    3374:	00e9d633          	srl	a2,s3,a4
    3378:	00f917b3          	sll	a5,s2,a5
    337c:	00c7e7b3          	or	a5,a5,a2
    3380:	00d036b3          	snez	a3,a3
    3384:	00d7e9b3          	or	s3,a5,a3
    3388:	00e95333          	srl	t1,s2,a4
    338c:	0079f793          	andi	a5,s3,7
    3390:	00000493          	li	s1,0
    3394:	f01ff06f          	j	3294 <__subdf3+0x278>
    3398:	20048663          	beqz	s1,35a4 <__subdf3+0x588>
    339c:	7ff00713          	li	a4,2047
    33a0:	30e88863          	beq	a7,a4,36b0 <__subdf3+0x694>
    33a4:	00800737          	lui	a4,0x800
    33a8:	41000833          	neg	a6,a6
    33ac:	00e7e7b3          	or	a5,a5,a4
    33b0:	03800713          	li	a4,56
    33b4:	3b074063          	blt	a4,a6,3754 <__subdf3+0x738>
    33b8:	01f00713          	li	a4,31
    33bc:	43074e63          	blt	a4,a6,37f8 <__subdf3+0x7dc>
    33c0:	02000713          	li	a4,32
    33c4:	41070733          	sub	a4,a4,a6
    33c8:	00e799b3          	sll	s3,a5,a4
    33cc:	01055333          	srl	t1,a0,a6
    33d0:	00e51733          	sll	a4,a0,a4
    33d4:	0069e9b3          	or	s3,s3,t1
    33d8:	00e03733          	snez	a4,a4
    33dc:	0107d833          	srl	a6,a5,a6
    33e0:	00e9e9b3          	or	s3,s3,a4
    33e4:	410585b3          	sub	a1,a1,a6
    33e8:	413609b3          	sub	s3,a2,s3
    33ec:	01363633          	sltu	a2,a2,s3
    33f0:	40c58333          	sub	t1,a1,a2
    33f4:	00088493          	mv	s1,a7
    33f8:	00068413          	mv	s0,a3
    33fc:	f15ff06f          	j	3310 <__subdf3+0x2f4>
    3400:	00a7e733          	or	a4,a5,a0
    3404:	04070263          	beqz	a4,3448 <__subdf3+0x42c>
    3408:	7ff00813          	li	a6,2047
    340c:	c9dff06f          	j	30a8 <__subdf3+0x8c>
    3410:	0069e7b3          	or	a5,s3,t1
    3414:	d8078ce3          	beqz	a5,31ac <__subdf3+0x190>
    3418:	0079f793          	andi	a5,s3,7
    341c:	e6079ee3          	bnez	a5,3298 <__subdf3+0x27c>
    3420:	01d31793          	slli	a5,t1,0x1d
    3424:	0039d693          	srli	a3,s3,0x3
    3428:	00f6e9b3          	or	s3,a3,a5
    342c:	00048813          	mv	a6,s1
    3430:	00335793          	srli	a5,t1,0x3
    3434:	c85ff06f          	j	30b8 <__subdf3+0x9c>
    3438:	7ff00693          	li	a3,2047
    343c:	18d81663          	bne	a6,a3,35c8 <__subdf3+0x5ac>
    3440:	00a7e733          	or	a4,a5,a0
    3444:	c60712e3          	bnez	a4,30a8 <__subdf3+0x8c>
    3448:	00147593          	andi	a1,s0,1
    344c:	7ff00813          	li	a6,2047
    3450:	00000793          	li	a5,0
    3454:	00000993          	li	s3,0
    3458:	c7dff06f          	j	30d4 <__subdf3+0xb8>
    345c:	18081e63          	bnez	a6,35f8 <__subdf3+0x5dc>
    3460:	00148893          	addi	a7,s1,1
    3464:	7ff8f813          	andi	a6,a7,2047
    3468:	00100713          	li	a4,1
    346c:	1d075663          	ble	a6,a4,3638 <__subdf3+0x61c>
    3470:	7ff00713          	li	a4,2047
    3474:	fce88ae3          	beq	a7,a4,3448 <__subdf3+0x42c>
    3478:	00c50633          	add	a2,a0,a2
    347c:	00b78933          	add	s2,a5,a1
    3480:	00a63533          	sltu	a0,a2,a0
    3484:	00a90533          	add	a0,s2,a0
    3488:	01f51693          	slli	a3,a0,0x1f
    348c:	00165613          	srli	a2,a2,0x1
    3490:	00c6e9b3          	or	s3,a3,a2
    3494:	00155313          	srli	t1,a0,0x1
    3498:	0079f793          	andi	a5,s3,7
    349c:	00088493          	mv	s1,a7
    34a0:	df5ff06f          	j	3294 <__subdf3+0x278>
    34a4:	fd850913          	addi	s2,a0,-40
    34a8:	01299933          	sll	s2,s3,s2
    34ac:	00000993          	li	s3,0
    34b0:	ea9854e3          	ble	s1,a6,3358 <__subdf3+0x33c>
    34b4:	ff800737          	lui	a4,0xff800
    34b8:	fff70713          	addi	a4,a4,-1 # ff7fffff <_etext+0xff7fb823>
    34bc:	410484b3          	sub	s1,s1,a6
    34c0:	00e97333          	and	t1,s2,a4
    34c4:	0079f793          	andi	a5,s3,7
    34c8:	dcdff06f          	j	3294 <__subdf3+0x278>
    34cc:	00098513          	mv	a0,s3
    34d0:	510000ef          	jal	ra,39e0 <__clzsi2>
    34d4:	02050513          	addi	a0,a0,32
    34d8:	e59ff06f          	j	3330 <__subdf3+0x314>
    34dc:	00c5e633          	or	a2,a1,a2
    34e0:	00c036b3          	snez	a3,a2
    34e4:	40d509b3          	sub	s3,a0,a3
    34e8:	01353533          	sltu	a0,a0,s3
    34ec:	40a78333          	sub	t1,a5,a0
    34f0:	e21ff06f          	j	3310 <__subdf3+0x2f4>
    34f4:	00a7e733          	or	a4,a5,a0
    34f8:	00c5e9b3          	or	s3,a1,a2
    34fc:	0c049a63          	bnez	s1,35d0 <__subdf3+0x5b4>
    3500:	2a071a63          	bnez	a4,37b4 <__subdf3+0x798>
    3504:	32098c63          	beqz	s3,383c <__subdf3+0x820>
    3508:	00058793          	mv	a5,a1
    350c:	00060513          	mv	a0,a2
    3510:	00048813          	mv	a6,s1
    3514:	00068413          	mv	s0,a3
    3518:	b91ff06f          	j	30a8 <__subdf3+0x8c>
    351c:	fe180813          	addi	a6,a6,-31
    3520:	02000793          	li	a5,32
    3524:	01095833          	srl	a6,s2,a6
    3528:	00f70a63          	beq	a4,a5,353c <__subdf3+0x520>
    352c:	04000313          	li	t1,64
    3530:	40e30333          	sub	t1,t1,a4
    3534:	00691933          	sll	s2,s2,t1
    3538:	0129e9b3          	or	s3,s3,s2
    353c:	013036b3          	snez	a3,s3
    3540:	0106e9b3          	or	s3,a3,a6
    3544:	0079f793          	andi	a5,s3,7
    3548:	00000313          	li	t1,0
    354c:	00000493          	li	s1,0
    3550:	ecdff06f          	j	341c <__subdf3+0x400>
    3554:	40a609b3          	sub	s3,a2,a0
    3558:	40f58933          	sub	s2,a1,a5
    355c:	01363633          	sltu	a2,a2,s3
    3560:	40c90933          	sub	s2,s2,a2
    3564:	00068413          	mv	s0,a3
    3568:	dbdff06f          	j	3324 <__subdf3+0x308>
    356c:	00c5e633          	or	a2,a1,a2
    3570:	00c036b3          	snez	a3,a2
    3574:	cd9ff06f          	j	324c <__subdf3+0x230>
    3578:	02000713          	li	a4,32
    357c:	41070733          	sub	a4,a4,a6
    3580:	010656b3          	srl	a3,a2,a6
    3584:	00e599b3          	sll	s3,a1,a4
    3588:	00e61633          	sll	a2,a2,a4
    358c:	00d9e9b3          	or	s3,s3,a3
    3590:	0105d933          	srl	s2,a1,a6
    3594:	00c036b3          	snez	a3,a2
    3598:	00d9e6b3          	or	a3,s3,a3
    359c:	412787b3          	sub	a5,a5,s2
    35a0:	f45ff06f          	j	34e4 <__subdf3+0x4c8>
    35a4:	00a7e733          	or	a4,a5,a0
    35a8:	0e071a63          	bnez	a4,369c <__subdf3+0x680>
    35ac:	7ff00793          	li	a5,2047
    35b0:	10f88063          	beq	a7,a5,36b0 <__subdf3+0x694>
    35b4:	00088813          	mv	a6,a7
    35b8:	00068413          	mv	s0,a3
    35bc:	00058793          	mv	a5,a1
    35c0:	00060513          	mv	a0,a2
    35c4:	ae5ff06f          	j	30a8 <__subdf3+0x8c>
    35c8:	00070813          	mv	a6,a4
    35cc:	c01ff06f          	j	31cc <__subdf3+0x1b0>
    35d0:	1a071663          	bnez	a4,377c <__subdf3+0x760>
    35d4:	1a099063          	bnez	s3,3774 <__subdf3+0x758>
    35d8:	00000593          	li	a1,0
    35dc:	7ff00813          	li	a6,2047
    35e0:	000807b7          	lui	a5,0x80
    35e4:	af1ff06f          	j	30d4 <__subdf3+0xb8>
    35e8:	7ff00693          	li	a3,2047
    35ec:	e4d80ae3          	beq	a6,a3,3440 <__subdf3+0x424>
    35f0:	00070813          	mv	a6,a4
    35f4:	c21ff06f          	j	3214 <__subdf3+0x1f8>
    35f8:	0e049e63          	bnez	s1,36f4 <__subdf3+0x6d8>
    35fc:	00a7e733          	or	a4,a5,a0
    3600:	18071463          	bnez	a4,3788 <__subdf3+0x76c>
    3604:	7ff00793          	li	a5,2047
    3608:	18f88a63          	beq	a7,a5,379c <__subdf3+0x780>
    360c:	00088813          	mv	a6,a7
    3610:	00058793          	mv	a5,a1
    3614:	00060513          	mv	a0,a2
    3618:	a91ff06f          	j	30a8 <__subdf3+0x8c>
    361c:	0137e7b3          	or	a5,a5,s3
    3620:	e20784e3          	beqz	a5,3448 <__subdf3+0x42c>
    3624:	00000593          	li	a1,0
    3628:	7ff00813          	li	a6,2047
    362c:	000807b7          	lui	a5,0x80
    3630:	00000993          	li	s3,0
    3634:	aa1ff06f          	j	30d4 <__subdf3+0xb8>
    3638:	00a7e733          	or	a4,a5,a0
    363c:	12049263          	bnez	s1,3760 <__subdf3+0x744>
    3640:	04070463          	beqz	a4,3688 <__subdf3+0x66c>
    3644:	00c5e733          	or	a4,a1,a2
    3648:	02070c63          	beqz	a4,3680 <__subdf3+0x664>
    364c:	00c509b3          	add	s3,a0,a2
    3650:	00b78933          	add	s2,a5,a1
    3654:	00a9b533          	sltu	a0,s3,a0
    3658:	00a90333          	add	t1,s2,a0
    365c:	00831713          	slli	a4,t1,0x8
    3660:	0079f793          	andi	a5,s3,7
    3664:	da075ce3          	bgez	a4,341c <__subdf3+0x400>
    3668:	ff800737          	lui	a4,0xff800
    366c:	fff70713          	addi	a4,a4,-1 # ff7fffff <_etext+0xff7fb823>
    3670:	00e37333          	and	t1,t1,a4
    3674:	00100493          	li	s1,1
    3678:	c1dff06f          	j	3294 <__subdf3+0x278>
    367c:	00040693          	mv	a3,s0
    3680:	00078593          	mv	a1,a5
    3684:	00050613          	mv	a2,a0
    3688:	00048813          	mv	a6,s1
    368c:	00068413          	mv	s0,a3
    3690:	00058793          	mv	a5,a1
    3694:	00060513          	mv	a0,a2
    3698:	a11ff06f          	j	30a8 <__subdf3+0x8c>
    369c:	fff00713          	li	a4,-1
    36a0:	18e80063          	beq	a6,a4,3820 <__subdf3+0x804>
    36a4:	7ff00713          	li	a4,2047
    36a8:	fff84813          	not	a6,a6
    36ac:	d0e892e3          	bne	a7,a4,33b0 <__subdf3+0x394>
    36b0:	00c5e7b3          	or	a5,a1,a2
    36b4:	00068413          	mv	s0,a3
    36b8:	d80788e3          	beqz	a5,3448 <__subdf3+0x42c>
    36bc:	00058793          	mv	a5,a1
    36c0:	00060513          	mv	a0,a2
    36c4:	7ff00813          	li	a6,2047
    36c8:	9e1ff06f          	j	30a8 <__subdf3+0x8c>
    36cc:	02000713          	li	a4,32
    36d0:	0105d6b3          	srl	a3,a1,a6
    36d4:	00e80a63          	beq	a6,a4,36e8 <__subdf3+0x6cc>
    36d8:	04000913          	li	s2,64
    36dc:	41090833          	sub	a6,s2,a6
    36e0:	01059933          	sll	s2,a1,a6
    36e4:	01266633          	or	a2,a2,s2
    36e8:	00c03633          	snez	a2,a2
    36ec:	00d666b3          	or	a3,a2,a3
    36f0:	b5dff06f          	j	324c <__subdf3+0x230>
    36f4:	7ff00713          	li	a4,2047
    36f8:	0ae88263          	beq	a7,a4,379c <__subdf3+0x780>
    36fc:	00800737          	lui	a4,0x800
    3700:	41000833          	neg	a6,a6
    3704:	00e7e7b3          	or	a5,a5,a4
    3708:	03800713          	li	a4,56
    370c:	0f074063          	blt	a4,a6,37ec <__subdf3+0x7d0>
    3710:	01f00713          	li	a4,31
    3714:	13074c63          	blt	a4,a6,384c <__subdf3+0x830>
    3718:	02000713          	li	a4,32
    371c:	41070733          	sub	a4,a4,a6
    3720:	01055333          	srl	t1,a0,a6
    3724:	00e796b3          	sll	a3,a5,a4
    3728:	00e51533          	sll	a0,a0,a4
    372c:	0066e6b3          	or	a3,a3,t1
    3730:	00a039b3          	snez	s3,a0
    3734:	0107d833          	srl	a6,a5,a6
    3738:	0136e6b3          	or	a3,a3,s3
    373c:	010585b3          	add	a1,a1,a6
    3740:	00c689b3          	add	s3,a3,a2
    3744:	00c9b633          	sltu	a2,s3,a2
    3748:	00b60333          	add	t1,a2,a1
    374c:	00088493          	mv	s1,a7
    3750:	b09ff06f          	j	3258 <__subdf3+0x23c>
    3754:	00a7e533          	or	a0,a5,a0
    3758:	00a039b3          	snez	s3,a0
    375c:	c8dff06f          	j	33e8 <__subdf3+0x3cc>
    3760:	00070a63          	beqz	a4,3774 <__subdf3+0x758>
    3764:	00c5e633          	or	a2,a1,a2
    3768:	ea061ee3          	bnez	a2,3624 <__subdf3+0x608>
    376c:	7ff00813          	li	a6,2047
    3770:	939ff06f          	j	30a8 <__subdf3+0x8c>
    3774:	7ff00493          	li	s1,2047
    3778:	f11ff06f          	j	3688 <__subdf3+0x66c>
    377c:	ea0994e3          	bnez	s3,3624 <__subdf3+0x608>
    3780:	7ff00813          	li	a6,2047
    3784:	925ff06f          	j	30a8 <__subdf3+0x8c>
    3788:	fff00713          	li	a4,-1
    378c:	0ee80463          	beq	a6,a4,3874 <__subdf3+0x858>
    3790:	7ff00713          	li	a4,2047
    3794:	fff84813          	not	a6,a6
    3798:	f6e898e3          	bne	a7,a4,3708 <__subdf3+0x6ec>
    379c:	00c5e7b3          	or	a5,a1,a2
    37a0:	ca0784e3          	beqz	a5,3448 <__subdf3+0x42c>
    37a4:	00058793          	mv	a5,a1
    37a8:	00060513          	mv	a0,a2
    37ac:	7ff00813          	li	a6,2047
    37b0:	8f9ff06f          	j	30a8 <__subdf3+0x8c>
    37b4:	ec0984e3          	beqz	s3,367c <__subdf3+0x660>
    37b8:	40c509b3          	sub	s3,a0,a2
    37bc:	40b78333          	sub	t1,a5,a1
    37c0:	01353933          	sltu	s2,a0,s3
    37c4:	41230333          	sub	t1,t1,s2
    37c8:	00831713          	slli	a4,t1,0x8
    37cc:	c40752e3          	bgez	a4,3410 <__subdf3+0x3f4>
    37d0:	40a609b3          	sub	s3,a2,a0
    37d4:	40f58933          	sub	s2,a1,a5
    37d8:	01363633          	sltu	a2,a2,s3
    37dc:	40c90333          	sub	t1,s2,a2
    37e0:	0079f793          	andi	a5,s3,7
    37e4:	00068413          	mv	s0,a3
    37e8:	aadff06f          	j	3294 <__subdf3+0x278>
    37ec:	00a7e533          	or	a0,a5,a0
    37f0:	00a036b3          	snez	a3,a0
    37f4:	f4dff06f          	j	3740 <__subdf3+0x724>
    37f8:	02000713          	li	a4,32
    37fc:	0107d9b3          	srl	s3,a5,a6
    3800:	00e80a63          	beq	a6,a4,3814 <__subdf3+0x7f8>
    3804:	04000713          	li	a4,64
    3808:	41070833          	sub	a6,a4,a6
    380c:	010797b3          	sll	a5,a5,a6
    3810:	00f56533          	or	a0,a0,a5
    3814:	00a03533          	snez	a0,a0
    3818:	013569b3          	or	s3,a0,s3
    381c:	bcdff06f          	j	33e8 <__subdf3+0x3cc>
    3820:	40a609b3          	sub	s3,a2,a0
    3824:	40f58933          	sub	s2,a1,a5
    3828:	01363633          	sltu	a2,a2,s3
    382c:	40c90333          	sub	t1,s2,a2
    3830:	00088493          	mv	s1,a7
    3834:	00068413          	mv	s0,a3
    3838:	ad9ff06f          	j	3310 <__subdf3+0x2f4>
    383c:	00000413          	li	s0,0
    3840:	00040813          	mv	a6,s0
    3844:	00000793          	li	a5,0
    3848:	879ff06f          	j	30c0 <__subdf3+0xa4>
    384c:	02000713          	li	a4,32
    3850:	0107d6b3          	srl	a3,a5,a6
    3854:	00e80a63          	beq	a6,a4,3868 <__subdf3+0x84c>
    3858:	04000713          	li	a4,64
    385c:	41070833          	sub	a6,a4,a6
    3860:	010797b3          	sll	a5,a5,a6
    3864:	00f56533          	or	a0,a0,a5
    3868:	00a03533          	snez	a0,a0
    386c:	00d566b3          	or	a3,a0,a3
    3870:	ed1ff06f          	j	3740 <__subdf3+0x724>
    3874:	00c509b3          	add	s3,a0,a2
    3878:	00b78933          	add	s2,a5,a1
    387c:	00c9b633          	sltu	a2,s3,a2
    3880:	00c90333          	add	t1,s2,a2
    3884:	00088493          	mv	s1,a7
    3888:	9d1ff06f          	j	3258 <__subdf3+0x23c>
    388c:	00048813          	mv	a6,s1
    3890:	00030793          	mv	a5,t1
    3894:	00098513          	mv	a0,s3
    3898:	811ff06f          	j	30a8 <__subdf3+0x8c>

0000389c <__fixdfsi>:
__fixdfsi():
    389c:	0145d793          	srli	a5,a1,0x14
    38a0:	001006b7          	lui	a3,0x100
    38a4:	fff68713          	addi	a4,a3,-1 # fffff <_etext+0xfb823>
    38a8:	7ff7f793          	andi	a5,a5,2047
    38ac:	3fe00613          	li	a2,1022
    38b0:	00b77733          	and	a4,a4,a1
    38b4:	01f5d593          	srli	a1,a1,0x1f
    38b8:	04f65663          	ble	a5,a2,3904 <__fixdfsi+0x68>
    38bc:	41d00613          	li	a2,1053
    38c0:	02f64a63          	blt	a2,a5,38f4 <__fixdfsi+0x58>
    38c4:	43300613          	li	a2,1075
    38c8:	40f60633          	sub	a2,a2,a5
    38cc:	01f00813          	li	a6,31
    38d0:	00d76733          	or	a4,a4,a3
    38d4:	02c85c63          	ble	a2,a6,390c <__fixdfsi+0x70>
    38d8:	41300693          	li	a3,1043
    38dc:	40f687b3          	sub	a5,a3,a5
    38e0:	00f757b3          	srl	a5,a4,a5
    38e4:	40f00533          	neg	a0,a5
    38e8:	02059063          	bnez	a1,3908 <__fixdfsi+0x6c>
    38ec:	00078513          	mv	a0,a5
    38f0:	00008067          	ret
    38f4:	80000537          	lui	a0,0x80000
    38f8:	fff54513          	not	a0,a0
    38fc:	00a58533          	add	a0,a1,a0
    3900:	00008067          	ret
    3904:	00000513          	li	a0,0
    3908:	00008067          	ret
    390c:	bed78793          	addi	a5,a5,-1043 # 7fbed <_etext+0x7b411>
    3910:	00f717b3          	sll	a5,a4,a5
    3914:	00c55533          	srl	a0,a0,a2
    3918:	00a7e7b3          	or	a5,a5,a0
    391c:	fc9ff06f          	j	38e4 <__fixdfsi+0x48>

00003920 <__floatunsidf>:
__floatunsidf():
    3920:	ff010113          	addi	sp,sp,-16
    3924:	00112623          	sw	ra,12(sp)
    3928:	00812423          	sw	s0,8(sp)
    392c:	0a050263          	beqz	a0,39d0 <__floatunsidf+0xb0>
    3930:	00050413          	mv	s0,a0
    3934:	0ac000ef          	jal	ra,39e0 <__clzsi2>
    3938:	41e00693          	li	a3,1054
    393c:	40a686b3          	sub	a3,a3,a0
    3940:	00a00793          	li	a5,10
    3944:	7ff6f693          	andi	a3,a3,2047
    3948:	06a7d263          	ble	a0,a5,39ac <__floatunsidf+0x8c>
    394c:	ff550793          	addi	a5,a0,-11 # 7ffffff5 <_etext+0x7fffb819>
    3950:	00100737          	lui	a4,0x100
    3954:	00f417b3          	sll	a5,s0,a5
    3958:	fff70713          	addi	a4,a4,-1 # fffff <_etext+0xfb823>
    395c:	00e7f7b3          	and	a5,a5,a4
    3960:	00000513          	li	a0,0
    3964:	00100737          	lui	a4,0x100
    3968:	fff70713          	addi	a4,a4,-1 # fffff <_etext+0xfb823>
    396c:	00e7f7b3          	and	a5,a5,a4
    3970:	80100737          	lui	a4,0x80100
    3974:	fff70713          	addi	a4,a4,-1 # 800fffff <_etext+0x800fb823>
    3978:	01469693          	slli	a3,a3,0x14
    397c:	00e7f733          	and	a4,a5,a4
    3980:	00d76733          	or	a4,a4,a3
    3984:	00c12083          	lw	ra,12(sp)
    3988:	00812403          	lw	s0,8(sp)
    398c:	800006b7          	lui	a3,0x80000
    3990:	fff6c693          	not	a3,a3
    3994:	00050793          	mv	a5,a0
    3998:	00d77733          	and	a4,a4,a3
    399c:	00078513          	mv	a0,a5
    39a0:	00070593          	mv	a1,a4
    39a4:	01010113          	addi	sp,sp,16
    39a8:	00008067          	ret
    39ac:	00b00793          	li	a5,11
    39b0:	40a787b3          	sub	a5,a5,a0
    39b4:	00100737          	lui	a4,0x100
    39b8:	01550513          	addi	a0,a0,21
    39bc:	00f457b3          	srl	a5,s0,a5
    39c0:	fff70713          	addi	a4,a4,-1 # fffff <_etext+0xfb823>
    39c4:	00a41533          	sll	a0,s0,a0
    39c8:	00e7f7b3          	and	a5,a5,a4
    39cc:	f99ff06f          	j	3964 <__floatunsidf+0x44>
    39d0:	00000693          	li	a3,0
    39d4:	00000793          	li	a5,0
    39d8:	00000513          	li	a0,0
    39dc:	f89ff06f          	j	3964 <__floatunsidf+0x44>

000039e0 <__clzsi2>:
__clzsi2():
    39e0:	000107b7          	lui	a5,0x10
    39e4:	02f57463          	bleu	a5,a0,3a0c <__clzsi2+0x2c>
    39e8:	0ff00793          	li	a5,255
    39ec:	02000713          	li	a4,32
    39f0:	04a7e263          	bltu	a5,a0,3a34 <__clzsi2+0x54>
    39f4:	00001797          	auipc	a5,0x1
    39f8:	ce878793          	addi	a5,a5,-792 # 46dc <__clz_tab>
    39fc:	00a78533          	add	a0,a5,a0
    3a00:	00054503          	lbu	a0,0(a0)
    3a04:	40a70533          	sub	a0,a4,a0
    3a08:	00008067          	ret
    3a0c:	010007b7          	lui	a5,0x1000
    3a10:	04f56263          	bltu	a0,a5,3a54 <__clzsi2+0x74>
    3a14:	00001797          	auipc	a5,0x1
    3a18:	cc878793          	addi	a5,a5,-824 # 46dc <__clz_tab>
    3a1c:	01855513          	srli	a0,a0,0x18
    3a20:	00a78533          	add	a0,a5,a0
    3a24:	00054503          	lbu	a0,0(a0)
    3a28:	00800713          	li	a4,8
    3a2c:	40a70533          	sub	a0,a4,a0
    3a30:	00008067          	ret
    3a34:	00001797          	auipc	a5,0x1
    3a38:	ca878793          	addi	a5,a5,-856 # 46dc <__clz_tab>
    3a3c:	00855513          	srli	a0,a0,0x8
    3a40:	00a78533          	add	a0,a5,a0
    3a44:	00054503          	lbu	a0,0(a0)
    3a48:	01800713          	li	a4,24
    3a4c:	40a70533          	sub	a0,a4,a0
    3a50:	00008067          	ret
    3a54:	00001797          	auipc	a5,0x1
    3a58:	c8878793          	addi	a5,a5,-888 # 46dc <__clz_tab>
    3a5c:	01055513          	srli	a0,a0,0x10
    3a60:	00a78533          	add	a0,a5,a0
    3a64:	00054503          	lbu	a0,0(a0)
    3a68:	01000713          	li	a4,16
    3a6c:	40a70533          	sub	a0,a4,a0
    3a70:	00008067          	ret

00003a74 <chines_word>:
    3a74:	80020000 824a83fa 424a424a 124a2ffe     ......J.JBJB./J.
    3a84:	464a2a4a 800083fa fff80007 00800060     J*JF........`...
    3a94:	71040000 5d549554 05fd1556 1d570554     ...qT.T]V...T.W.
    3aa4:	440827fc 01108090 82107fff 04104410     .'.D.........D..
    3ab4:	f8100000 20114016 0c101010 001003ff     .....@. ........
    3ac4:	10901010 3f901090 60902090 00102010     .......?. .`. ..
    3ad4:	00000000 03000000 090c0504 21a41154     ............T..!
    3ae4:	4a473144 449844a4 89108910 00008100     D1GJ.D.D........
    3af4:	00000000 40103ff0 40108010 0e1001ff     .....?.@...@....
    3b04:	48083010 08088808 10081ff8 10083008     .0.H.........0..
    3b14:	e0e00000 84848282 88888888 00007e7f     .............~..
    3b24:	7fcc0018 5248924a 124a1249 0008ffcc     ....J.HRI.J.....
    3b34:	80000000 401e8000 130020e0 13010c06     .......@. ......
    3b44:	401c20e0 00078000 0060fff8 01000080     . .@......`.....
    3b54:	08800000 9492f89e 92b294d2 0180f29e     ................
    3b64:	f19e00e0 92929292 f49e9492 08800880     ................
    3b74:	30400000 04420840 00420242 00420042     ..@0@.B.B.B.B.B.
    3b84:	80427fc2 00424042 08420642 20401040     ..B.B@B.B.B.@.@ 
    3b94:	80180000 468881a8 10ff2888 43882c88     .......F.(...,.C
    3ba4:	1ff88088 80c06000 7c02030c 04100460     .....`.....|`...
    3bb4:	08800000 9492f89e 92b294d2 0180f29e     ................
    3bc4:	f19e00e0 92929292 f49e9492 08800880     ................
    3bd4:	40000000 40d2401e 425e4152 4a7e4452     ...@.@.@RA^BRD~J
    3be4:	50924952 5000511e 1fcc2000 40402042     RI.P.Q.P. ..B @@
    3bf4:	10400000 ffde1040 15521552 25522552     ..@.@...R.R.R%R%
    3c04:	20403fde 048824c8 088fffe8 08c818b8     .?@ .$..........
    3c14:	00800000 00200040 3f8c0010 80804083     ....@. ....?.@..
    3c24:	00804080 18880786 40202090 00808040     .@.......  @@...
    3c34:	00400000 00430042 0044ffc2 00440044     ..@.B.C...D.D.D.
    3c44:	60001ffc 00908110 00d0ffff 04100310     ...`............
    3c54:	80000000 401e8000 130020e0 13010c06     .......@. ......
    3c64:	401c20e0 00078000 0060fff8 01000080     . .@......`.....
    3c74:	00040000 4924f924 49264924 49244925     ....$.$I$I&I%I$I
    3c84:	0004f924 00070000 0060fff8 01000080     $.........`.....
    3c94:	00800000 00800080 44a23cbe 44a284a2     .........<.D...D
    3ca4:	04a204a2 05a204a2 008006be 00800080     ................
    3cb4:	80000000 43948010 28904492 28901090     .......C.D.(...(
    3cc4:	41b84697 831080d0 10188c16 00002000     .F.A......... ..
    3cd4:	40000000 42104010 42104210 42104210     ...@.@.B.B.B.B.B
    3ce4:	42107fff 42104210 4230421e 40804040     ...B.B.B.B0B@@.@
    3cf4:	08800000 9492f89e 92b294d2 0180f29e     ................
    3d04:	f19e00e0 92929292 f49e9492 08800880     ................
    3d14:	00980000 478880a8 108e2888 4b8828e9     .......G.(...(.K
    3d24:	80988488 00900020 81107fff 02104210     .... ........B..
    3d34:	44100000 4554457c 45545fff 44104554     ...D|ETE._TETE.D
    3d44:	18e4279c 51242680 7fef2124 01400130     .'...&$Q$!..0.@.
	...
    3d6c:	36003600 00000000 040c0000 02050414     .6.6............
    3d7c:	19550255 4885a955 2a854c7f 09552955     U.U.U..H.L.*U)U.
    3d8c:	02050a55 0410040c 00800000 00800080     U...............
    3d9c:	00800080 00800080 00800080 00800080     ................
    3dac:	00800080 00800080 10000000 10081000     ................
    3dbc:	10081008 10081008 10081008 10081008     ................
    3dcc:	10081008 10001000 20000000 20842004     ........... . . 
    3ddc:	20842084 20842084 20842084 20842084     . . . . . . . . 
    3dec:	20842084 20002004 00000000 22047ffc     . . . . ......."
    3dfc:	22042204 200421fc 20042004 230420fc     .".".!. . . . .#
    3e0c:	28042404 00007ffc 40000000 40024002     .$.(.......@.@.@
    3e1c:	40427fc2 40424042 407e4042 784247c2     ..B@B@B@B@~@.GBx
    3e2c:	40424042 40004002 00200000 18206020     B@B@.@.@.. . ` .
    3e3c:	02200420 002c0120 00210022 0c200320      . . .,.".!. . .
    3e4c:	20201020 00204020 00000000 40207820      .   @ ..... x @
    3e5c:	40204020 40404040 3fff4040 00800040      @ @@@@@@@.?@...
    3e6c:	00800080 00800080 80000000 30004000     .............@.0
    3e7c:	03800c00 0000007e 00000000 070000fc     ....~...........
    3e8c:	60001800 00008000 78000000 40004000     ...`.......x.@.@
    3e9c:	3ff04000 00100010 00100010 071000ff     .@.?............
    3eac:	20101810 80004010 00400000 00400040     ... .@....@.@.@.
    3ebc:	00400040 00400040 0040ffff 00400040     @.@.@.@...@.@.@.
    3ecc:	00400040 00400040 00000000 049e0400     @.@.@.@.........
    3edc:	ffd204b2 04920492 1fd20492 849264b2     .............d..
    3eec:	0ffe0412 40003000 12000000 0a021202     .....0.@........
    3efc:	4aaa3efa 0aaa2aaf 0aaafeaa 0aaa0baf     .>.J.*..........
    3f0c:	0a027efa 12001202 40000000 40404000     .~.........@.@@@
    3f1c:	40404040 40404040 7fff4040 40004000     @@@@@@@@@@...@.@
    3f2c:	40004000 40004000 40000000 41d04010     .@.@.@.@...@.@.A
    3f3c:	70104e10 40114016 41905e10 40074010     .N.p.@.@.^.A.@.@
    3f4c:	0060fff8 01000080 78000000 40004000     ..`........x.@.@
    3f5c:	00023ffe 00020002 60001ffe 00908310     .?.........`....
    3f6c:	00d0ffff 04100310 80000000 24924282     .............B.$
    3f7c:	47921892 ff928092 1ffe0082 81106090     ...G.........`..
    3f8c:	82107fff 04104410 00020000 497aff02     .....D........zI
    3f9c:	7f4a494a 497a494a 0000ff02 08080ff8     JIJ.JIzI........
    3fac:	0008ffff 00000ff8 80020000 20124ff2     .............O. 
    3fbc:	07d61012 2012181a 80404ff2 20481e48     ....... .O@.H.H 
    3fcc:	40404f7f 90408e7c 08000000 08a40914     .O@@|.@.........
    3fdc:	0b040844 09240994 09adfd66 09240934     D.....$.f...4.$.
    3fec:	08a40844 08000914 60000000 290833f8     D..........`.3.)
    3ffc:	3fff2108 21082108 200063f8 892cffe0     .!.?.!.!.c. ..,.
    400c:	09273ff4 80107fec 80000000 43948010     .?'............C
    401c:	28904492 28901090 41b84697 831080d0     .D.(...(.F.A....
    402c:	10188c16 00002000 00040000 8204fe04     ..... ..........
    403c:	7af40204 4a944a94 4a954a96 7af44a94     ...z.J.J.J.J.J.z
    404c:	02040204 0004fe04 f8800000 30834082     .............@.0
    405c:	41fe8e82 20840084 fffc4084 00070000     ...A... .@......
    406c:	0060fff8 01000080 f0000000 9ff88000     ..`.............
    407c:	88888888 88888888 08887fff 08880888     ................
    408c:	1ff80888 00000000 01000000 01020102     ................
    409c:	01420132 01020102 0102fffe 01620102     2.B...........b.
    40ac:	01020112 01000102 40000000 40404000     ...........@.@@@
    40bc:	40404040 40404040 7fff4040 40004000     @@@@@@@@@@...@.@
    40cc:	40004000 40004000 00800000 00800080     .@.@.@.@........
    40dc:	ffff0080 00820080 00820083 188407fe     ................
    40ec:	40842084 00808080 00020000 06020002     . .@............
    40fc:	00820102 00020042 fffe0002 00020002     ....B...........
    410c:	00020002 00020002 10800000 124c1284     ..............L.
    411c:	ffa41254 12571224 18901248 08da0786     T...$.W.H.......
    412c:	08021022 0000fffe 00400000 fe400040     ".........@.@.@.
    413c:	4202423e 42024202 fe40423e 00000080     >B.B.B.B>B@.....
    414c:	7e02018c 04100460 80000000 c922bfe0     ...~`.........".
    415c:	892aa926 892abff2 8922892a 8000ffe2     &.*...*.*.".....
    416c:	3fcc4000 80404042 40000000 5fe94008     .@.?B@@....@.@._
    417c:	4aa84aaa 4ab84aa8 5fe94aaa 20004008     .J.J.J.J.J._.@. 
    418c:	20421fcc 00404040 00980000 478880a8     ..B @@@........G
    419c:	108e2888 4b8828e9 80988488 00900020     .(...(.K.... ...
    41ac:	81107fff 02104210 00020000 06020002     .....B..........
    41bc:	00820102 00020042 fffe0002 00020002     ....B...........
    41cc:	00020002 00020002 01020000 092a0902     ..............*.
    41dc:	7d220926 49248923 092209fa 1926692a     &."}#.$I..".*i&.
    41ec:	09230922 01080904 02400000 02480248     ".#.......@.H.H.
    41fc:	82487fc8 0248427f 0a483248 00330240     ..H..BH.H2H.@.3.
    420c:	0088ffc4 02000110 40000000 40824002     ...........@.@.@
    421c:	40824082 40824082 40027ffe 40024002     .@.@.@.@...@.@.@
    422c:	40027fc2 40004002 00080000 28c87008     ...@.@.@.....p.(
    423c:	230e2108 29482539 21087188 3e3e0000     .!.#9%H).q.!..>>
    424c:	82224222 000243e2 20000000 20842004     "B"..C..... . . 
    425c:	20842084 20842084 20842084 20842084     . . . . . . . . 
    426c:	20842084 20002004 00000000 7fe00000     . . . . ........
    427c:	492c8920 09240934 09247fe4 09270924      .,I4.$...$.$.'.
    428c:	1fe80924 80206010 00080000 00080008     $....` .........
    429c:	40883f88 40888088 0089008e 180807f8     .?.@...@........
    42ac:	40082008 00088008 00800000 4492fc9e     . .@...........D
    42bc:	47f24492 fc924492 1ffe0092 91246000     .D.G.D.......`$.
    42cc:	7fef2124 01400130 00400000 ff440040     $!..0.@...@.@.D.
    42dc:	50444044 44444844 4440437f 50404840     D@DPDHDD.C@D@H@P
    42ec:	7f40407c 00400040 80180000 468881a8     |@@.@.@........F
    42fc:	10ff2888 43882c88 1ff88088 80c06000     .(...,.C.....`..
    430c:	7c02030c 04100460 00400000 02440040     ...|`.....@.@.D.
    431c:	08440444 10441044 20402fff 40404040     D.D.D.D../@ @@@@
    432c:	8840467c 80409040 40800000 40884088     |F@.@.@....@.@.@
    433c:	40885fff 43ff4088 50884c88 20004080     ._.@.@.C.L.P.@. 
    434c:	20421fcc 00404040 00000000 1008e008     ..B @@@.........
    435c:	044807c8 14486448 647f0448 04401440     ..H.HdH.H..d@.@.
    436c:	37c00440 80004000 00020000 ffe20002     @..7.@..........
    437c:	42224222 42224222 422a4226 42224232     "B"B"B"B&B*B2B"B
    438c:	ffe24222 00020002 00800000 00200040     "B..........@. .
    439c:	3f8c0010 80804083 00804080 18880786     ...?.@...@......
    43ac:	40202090 00808040 40000000 40104000     .  @@......@.@.@
    43bc:	40504030 41104090 44114216 10102810     0@P@.@.A.B.D.(..
    43cc:	20101010 00004010 80000000 4be48804     ... .@.........K
    43dc:	1aa42aaf 1aa40ea4 4be42aaf 00908914     .*.......*.K....
    43ec:	00d0ffff 04100310 f8100000 20114016     .............@. 
    43fc:	0c101010 001003ff 10901010 3f901090     ...............?
    440c:	60902090 00102010 00000000 40043ffc     . .`. .......?.@
    441c:	40048004 180407fc 42202004 08208420     ...@.....  B . .
    442c:	00401fff 00400040 84000000 242c47e0     ..@.@.@......G,$
    443c:	07e41c34 24271c24 841047e8 00908420     4...$.'$.G.. ...
    444c:	81107fff 02104210 0c600000 21081086     .....B....`....!
    445c:	84204210 00828080 fffe0082 00820082     .B .............
    446c:	30820ffe 80804082 40000000 40044004     ...0.@.....@.@.@
    447c:	4a947ff4 4a944a94 4a944a9f 4a944a94     ...J.J.J.J.J.J.J
    448c:	40047ff4 40004004 02400000 4e548244     ...@.@.@..@.D.TN
    449c:	22445264 566523c6 82444a54 01108250     dRD".#eVTJD.P...
    44ac:	82107fff 04104410 00000000 ffc60000     .....D..........
    44bc:	44504448 44404440 4440447f 44584440     HDPD@D@D.D@D@DXD
    44cc:	44424444 00004040 00080000 7fe80008     DDBD@@..........
    44dc:	400c800b 00080fc8 7fe80008 492e8928     ...@........(..I
    44ec:	ffe80929 00080008 00001e0a 00001e7a     )...........z...
    44fc:	00001dd6 00001df0 00001d4a 00001e42     ........J...B...
    450c:	00001f30 00001f16 00001efc 00001ee2     0...............
    451c:	00001ec8 00001eae 00001e82 00001f4a     ............J...
    452c:	00002844 00002844 00002844 00002844     D(..D(..D(..D(..
    453c:	00002844 00002844 00002844 00002844     D(..D(..D(..D(..
    454c:	00002844 00002844 00002844 00002844     D(..D(..D(..D(..
    455c:	00002844 00002844 00002844 00002844     D(..D(..D(..D(..
    456c:	00002844 00002844 00002844 00002844     D(..D(..D(..D(..
    457c:	00002844 00002844 00002844 00002844     D(..D(..D(..D(..
    458c:	00002844 00002844 00002844 00002844     D(..D(..D(..D(..
    459c:	00002844 00002844 00002844 0000287c     D(..D(..D(..|(..
    45ac:	00002844 00002844 00002844 00002844     D(..D(..D(..D(..
    45bc:	00002844 00002844 00002844 00002844     D(..D(..D(..D(..
    45cc:	00002844 00002844 00002844 00002844     D(..D(..D(..D(..
    45dc:	00002844 00002844 00002890 00002844     D(..D(...(..D(..
    45ec:	00002844 00002844 00002844 00002866     D(..D(..D(..f(..
    45fc:	00002844 00002844 00002844 00002844     D(..D(..D(..D(..
    460c:	00002844 00002844 00002844 00002844     D(..D(..D(..D(..
    461c:	00002844 00002844 00002850 0000287c     D(..D(..P(..|(..
    462c:	00002844 000028ba 00002844 00002844     D(...(..D(..D(..
    463c:	0000287c 00002844 00002844 00002844     |(..D(..D(..D(..
    464c:	00002844 00002844 00002844 00002844     D(..D(..D(..D(..
    465c:	00002844 00002844 00002890 00002844     D(..D(...(..D(..
    466c:	00002844 00002844 00002844 00002866     D(..D(..D(..f(..
	...
    4684:	412e8480 33323130 37363534 62613938     ...A0123456789ab
    4694:	66656463 00000000 ffffe5b0 ffffe4dc     cdef............
    46a4:	ffffe4dc ffffe4d8 ffffe4fc ffffe4fc     ................
    46b4:	ffffe46c ffffe4d8 ffffe4fc ffffe46c     l...........l...
    46c4:	ffffe4fc ffffe4d8 ffffe4f8 ffffe4f8     ................
    46d4:	ffffe4f8 ffffe46c                       ....l...

000046dc <__clz_tab>:
    46dc:	02020100 03030303 04040404 04040404     ................
    46ec:	05050505 05050505 05050505 05050505     ................
    46fc:	06060606 06060606 06060606 06060606     ................
    470c:	06060606 06060606 06060606 06060606     ................
    471c:	07070707 07070707 07070707 07070707     ................
    472c:	07070707 07070707 07070707 07070707     ................
    473c:	07070707 07070707 07070707 07070707     ................
    474c:	07070707 07070707 07070707 07070707     ................
    475c:	08080808 08080808 08080808 08080808     ................
    476c:	08080808 08080808 08080808 08080808     ................
    477c:	08080808 08080808 08080808 08080808     ................
    478c:	08080808 08080808 08080808 08080808     ................
    479c:	08080808 08080808 08080808 08080808     ................
    47ac:	08080808 08080808 08080808 08080808     ................
    47bc:	08080808 08080808 08080808 08080808     ................
    47cc:	08080808 08080808 08080808 08080808     ................
